
RemoteRacing.elf:     file format elf32-littlearm

Sections:
Idx Name          Size      VMA       LMA       File off  Algn
  0 .isr_vector   000000c0  08000000  08000000  00010000  2**0
                  CONTENTS, ALLOC, LOAD, READONLY, DATA
  1 .text         00007534  080000c0  080000c0  000100c0  2**4
                  CONTENTS, ALLOC, LOAD, READONLY, CODE
  2 .rodata       000007fc  080075f4  080075f4  000175f4  2**2
                  CONTENTS, ALLOC, LOAD, READONLY, DATA
  3 .ARM.extab    00000000  08007df0  08007df0  0002000c  2**0
                  CONTENTS
  4 .ARM          00000000  08007df0  08007df0  0002000c  2**0
                  CONTENTS
  5 .preinit_array 00000000  08007df0  08007df0  0002000c  2**0
                  CONTENTS, ALLOC, LOAD, DATA
  6 .init_array   00000004  08007df0  08007df0  00017df0  2**2
                  CONTENTS, ALLOC, LOAD, DATA
  7 .fini_array   00000004  08007df4  08007df4  00017df4  2**2
                  CONTENTS, ALLOC, LOAD, DATA
  8 .data         0000000c  20000000  08007df8  00020000  2**2
                  CONTENTS, ALLOC, LOAD, DATA
  9 .bss          0000170c  2000000c  08007e04  0002000c  2**2
                  ALLOC
 10 ._user_heap_stack 00000600  20001718  08007e04  00021718  2**0
                  ALLOC
 11 .ARM.attributes 00000028  00000000  00000000  0002000c  2**0
                  CONTENTS, READONLY
 12 .comment      0000007b  00000000  00000000  00020034  2**0
                  CONTENTS, READONLY
 13 .debug_frame  000002c0  00000000  00000000  000200b0  2**2
                  CONTENTS, READONLY, DEBUGGING

Disassembly of section .text:

080000c0 <__do_global_dtors_aux>:
 80000c0:	b510      	push	{r4, lr}
 80000c2:	4c06      	ldr	r4, [pc, #24]	; (80000dc <__do_global_dtors_aux+0x1c>)
 80000c4:	7823      	ldrb	r3, [r4, #0]
 80000c6:	2b00      	cmp	r3, #0
 80000c8:	d107      	bne.n	80000da <__do_global_dtors_aux+0x1a>
 80000ca:	4b05      	ldr	r3, [pc, #20]	; (80000e0 <__do_global_dtors_aux+0x20>)
 80000cc:	2b00      	cmp	r3, #0
 80000ce:	d002      	beq.n	80000d6 <__do_global_dtors_aux+0x16>
 80000d0:	4804      	ldr	r0, [pc, #16]	; (80000e4 <__do_global_dtors_aux+0x24>)
 80000d2:	e000      	b.n	80000d6 <__do_global_dtors_aux+0x16>
 80000d4:	bf00      	nop
 80000d6:	2301      	movs	r3, #1
 80000d8:	7023      	strb	r3, [r4, #0]
 80000da:	bd10      	pop	{r4, pc}
 80000dc:	2000000c 	.word	0x2000000c
 80000e0:	00000000 	.word	0x00000000
 80000e4:	080075dc 	.word	0x080075dc

080000e8 <frame_dummy>:
 80000e8:	4b04      	ldr	r3, [pc, #16]	; (80000fc <frame_dummy+0x14>)
 80000ea:	b510      	push	{r4, lr}
 80000ec:	2b00      	cmp	r3, #0
 80000ee:	d003      	beq.n	80000f8 <frame_dummy+0x10>
 80000f0:	4903      	ldr	r1, [pc, #12]	; (8000100 <frame_dummy+0x18>)
 80000f2:	4804      	ldr	r0, [pc, #16]	; (8000104 <frame_dummy+0x1c>)
 80000f4:	e000      	b.n	80000f8 <frame_dummy+0x10>
 80000f6:	bf00      	nop
 80000f8:	bd10      	pop	{r4, pc}
 80000fa:	46c0      	nop			; (mov r8, r8)
 80000fc:	00000000 	.word	0x00000000
 8000100:	20000010 	.word	0x20000010
 8000104:	080075dc 	.word	0x080075dc

08000108 <strlen>:
 8000108:	2300      	movs	r3, #0
 800010a:	5cc2      	ldrb	r2, [r0, r3]
 800010c:	3301      	adds	r3, #1
 800010e:	2a00      	cmp	r2, #0
 8000110:	d1fb      	bne.n	800010a <strlen+0x2>
 8000112:	1e58      	subs	r0, r3, #1
 8000114:	4770      	bx	lr
	...

08000118 <__udivsi3>:
 8000118:	2200      	movs	r2, #0
 800011a:	0843      	lsrs	r3, r0, #1
 800011c:	428b      	cmp	r3, r1
 800011e:	d374      	bcc.n	800020a <__udivsi3+0xf2>
 8000120:	0903      	lsrs	r3, r0, #4
 8000122:	428b      	cmp	r3, r1
 8000124:	d35f      	bcc.n	80001e6 <__udivsi3+0xce>
 8000126:	0a03      	lsrs	r3, r0, #8
 8000128:	428b      	cmp	r3, r1
 800012a:	d344      	bcc.n	80001b6 <__udivsi3+0x9e>
 800012c:	0b03      	lsrs	r3, r0, #12
 800012e:	428b      	cmp	r3, r1
 8000130:	d328      	bcc.n	8000184 <__udivsi3+0x6c>
 8000132:	0c03      	lsrs	r3, r0, #16
 8000134:	428b      	cmp	r3, r1
 8000136:	d30d      	bcc.n	8000154 <__udivsi3+0x3c>
 8000138:	22ff      	movs	r2, #255	; 0xff
 800013a:	0209      	lsls	r1, r1, #8
 800013c:	ba12      	rev	r2, r2
 800013e:	0c03      	lsrs	r3, r0, #16
 8000140:	428b      	cmp	r3, r1
 8000142:	d302      	bcc.n	800014a <__udivsi3+0x32>
 8000144:	1212      	asrs	r2, r2, #8
 8000146:	0209      	lsls	r1, r1, #8
 8000148:	d065      	beq.n	8000216 <__udivsi3+0xfe>
 800014a:	0b03      	lsrs	r3, r0, #12
 800014c:	428b      	cmp	r3, r1
 800014e:	d319      	bcc.n	8000184 <__udivsi3+0x6c>
 8000150:	e000      	b.n	8000154 <__udivsi3+0x3c>
 8000152:	0a09      	lsrs	r1, r1, #8
 8000154:	0bc3      	lsrs	r3, r0, #15
 8000156:	428b      	cmp	r3, r1
 8000158:	d301      	bcc.n	800015e <__udivsi3+0x46>
 800015a:	03cb      	lsls	r3, r1, #15
 800015c:	1ac0      	subs	r0, r0, r3
 800015e:	4152      	adcs	r2, r2
 8000160:	0b83      	lsrs	r3, r0, #14
 8000162:	428b      	cmp	r3, r1
 8000164:	d301      	bcc.n	800016a <__udivsi3+0x52>
 8000166:	038b      	lsls	r3, r1, #14
 8000168:	1ac0      	subs	r0, r0, r3
 800016a:	4152      	adcs	r2, r2
 800016c:	0b43      	lsrs	r3, r0, #13
 800016e:	428b      	cmp	r3, r1
 8000170:	d301      	bcc.n	8000176 <__udivsi3+0x5e>
 8000172:	034b      	lsls	r3, r1, #13
 8000174:	1ac0      	subs	r0, r0, r3
 8000176:	4152      	adcs	r2, r2
 8000178:	0b03      	lsrs	r3, r0, #12
 800017a:	428b      	cmp	r3, r1
 800017c:	d301      	bcc.n	8000182 <__udivsi3+0x6a>
 800017e:	030b      	lsls	r3, r1, #12
 8000180:	1ac0      	subs	r0, r0, r3
 8000182:	4152      	adcs	r2, r2
 8000184:	0ac3      	lsrs	r3, r0, #11
 8000186:	428b      	cmp	r3, r1
 8000188:	d301      	bcc.n	800018e <__udivsi3+0x76>
 800018a:	02cb      	lsls	r3, r1, #11
 800018c:	1ac0      	subs	r0, r0, r3
 800018e:	4152      	adcs	r2, r2
 8000190:	0a83      	lsrs	r3, r0, #10
 8000192:	428b      	cmp	r3, r1
 8000194:	d301      	bcc.n	800019a <__udivsi3+0x82>
 8000196:	028b      	lsls	r3, r1, #10
 8000198:	1ac0      	subs	r0, r0, r3
 800019a:	4152      	adcs	r2, r2
 800019c:	0a43      	lsrs	r3, r0, #9
 800019e:	428b      	cmp	r3, r1
 80001a0:	d301      	bcc.n	80001a6 <__udivsi3+0x8e>
 80001a2:	024b      	lsls	r3, r1, #9
 80001a4:	1ac0      	subs	r0, r0, r3
 80001a6:	4152      	adcs	r2, r2
 80001a8:	0a03      	lsrs	r3, r0, #8
 80001aa:	428b      	cmp	r3, r1
 80001ac:	d301      	bcc.n	80001b2 <__udivsi3+0x9a>
 80001ae:	020b      	lsls	r3, r1, #8
 80001b0:	1ac0      	subs	r0, r0, r3
 80001b2:	4152      	adcs	r2, r2
 80001b4:	d2cd      	bcs.n	8000152 <__udivsi3+0x3a>
 80001b6:	09c3      	lsrs	r3, r0, #7
 80001b8:	428b      	cmp	r3, r1
 80001ba:	d301      	bcc.n	80001c0 <__udivsi3+0xa8>
 80001bc:	01cb      	lsls	r3, r1, #7
 80001be:	1ac0      	subs	r0, r0, r3
 80001c0:	4152      	adcs	r2, r2
 80001c2:	0983      	lsrs	r3, r0, #6
 80001c4:	428b      	cmp	r3, r1
 80001c6:	d301      	bcc.n	80001cc <__udivsi3+0xb4>
 80001c8:	018b      	lsls	r3, r1, #6
 80001ca:	1ac0      	subs	r0, r0, r3
 80001cc:	4152      	adcs	r2, r2
 80001ce:	0943      	lsrs	r3, r0, #5
 80001d0:	428b      	cmp	r3, r1
 80001d2:	d301      	bcc.n	80001d8 <__udivsi3+0xc0>
 80001d4:	014b      	lsls	r3, r1, #5
 80001d6:	1ac0      	subs	r0, r0, r3
 80001d8:	4152      	adcs	r2, r2
 80001da:	0903      	lsrs	r3, r0, #4
 80001dc:	428b      	cmp	r3, r1
 80001de:	d301      	bcc.n	80001e4 <__udivsi3+0xcc>
 80001e0:	010b      	lsls	r3, r1, #4
 80001e2:	1ac0      	subs	r0, r0, r3
 80001e4:	4152      	adcs	r2, r2
 80001e6:	08c3      	lsrs	r3, r0, #3
 80001e8:	428b      	cmp	r3, r1
 80001ea:	d301      	bcc.n	80001f0 <__udivsi3+0xd8>
 80001ec:	00cb      	lsls	r3, r1, #3
 80001ee:	1ac0      	subs	r0, r0, r3
 80001f0:	4152      	adcs	r2, r2
 80001f2:	0883      	lsrs	r3, r0, #2
 80001f4:	428b      	cmp	r3, r1
 80001f6:	d301      	bcc.n	80001fc <__udivsi3+0xe4>
 80001f8:	008b      	lsls	r3, r1, #2
 80001fa:	1ac0      	subs	r0, r0, r3
 80001fc:	4152      	adcs	r2, r2
 80001fe:	0843      	lsrs	r3, r0, #1
 8000200:	428b      	cmp	r3, r1
 8000202:	d301      	bcc.n	8000208 <__udivsi3+0xf0>
 8000204:	004b      	lsls	r3, r1, #1
 8000206:	1ac0      	subs	r0, r0, r3
 8000208:	4152      	adcs	r2, r2
 800020a:	1a41      	subs	r1, r0, r1
 800020c:	d200      	bcs.n	8000210 <__udivsi3+0xf8>
 800020e:	4601      	mov	r1, r0
 8000210:	4152      	adcs	r2, r2
 8000212:	4610      	mov	r0, r2
 8000214:	4770      	bx	lr
 8000216:	e7ff      	b.n	8000218 <__udivsi3+0x100>
 8000218:	b501      	push	{r0, lr}
 800021a:	2000      	movs	r0, #0
 800021c:	f000 f806 	bl	800022c <__aeabi_idiv0>
 8000220:	bd02      	pop	{r1, pc}
 8000222:	46c0      	nop			; (mov r8, r8)

08000224 <__aeabi_uidivmod>:
 8000224:	2900      	cmp	r1, #0
 8000226:	d0f7      	beq.n	8000218 <__udivsi3+0x100>
 8000228:	e776      	b.n	8000118 <__udivsi3>
 800022a:	4770      	bx	lr

0800022c <__aeabi_idiv0>:
 800022c:	4770      	bx	lr
 800022e:	46c0      	nop			; (mov r8, r8)

08000230 <__aeabi_f2uiz>:
 8000230:	219e      	movs	r1, #158	; 0x9e
 8000232:	b510      	push	{r4, lr}
 8000234:	05c9      	lsls	r1, r1, #23
 8000236:	1c04      	adds	r4, r0, #0
 8000238:	f000 fe8e 	bl	8000f58 <__aeabi_fcmpge>
 800023c:	2800      	cmp	r0, #0
 800023e:	d103      	bne.n	8000248 <__aeabi_f2uiz+0x18>
 8000240:	1c20      	adds	r0, r4, #0
 8000242:	f000 fdaf 	bl	8000da4 <__aeabi_f2iz>
 8000246:	bd10      	pop	{r4, pc}
 8000248:	219e      	movs	r1, #158	; 0x9e
 800024a:	1c20      	adds	r0, r4, #0
 800024c:	05c9      	lsls	r1, r1, #23
 800024e:	f000 fbe5 	bl	8000a1c <__aeabi_fsub>
 8000252:	f000 fda7 	bl	8000da4 <__aeabi_f2iz>
 8000256:	2380      	movs	r3, #128	; 0x80
 8000258:	061b      	lsls	r3, r3, #24
 800025a:	469c      	mov	ip, r3
 800025c:	4460      	add	r0, ip
 800025e:	e7f2      	b.n	8000246 <__aeabi_f2uiz+0x16>

08000260 <__aeabi_fadd>:
 8000260:	b5f8      	push	{r3, r4, r5, r6, r7, lr}
 8000262:	4647      	mov	r7, r8
 8000264:	46ce      	mov	lr, r9
 8000266:	0243      	lsls	r3, r0, #9
 8000268:	0a5b      	lsrs	r3, r3, #9
 800026a:	0044      	lsls	r4, r0, #1
 800026c:	0fc2      	lsrs	r2, r0, #31
 800026e:	469c      	mov	ip, r3
 8000270:	0048      	lsls	r0, r1, #1
 8000272:	00dd      	lsls	r5, r3, #3
 8000274:	024b      	lsls	r3, r1, #9
 8000276:	0e24      	lsrs	r4, r4, #24
 8000278:	0a5b      	lsrs	r3, r3, #9
 800027a:	0e00      	lsrs	r0, r0, #24
 800027c:	b580      	push	{r7, lr}
 800027e:	4698      	mov	r8, r3
 8000280:	0026      	movs	r6, r4
 8000282:	4691      	mov	r9, r2
 8000284:	0fc9      	lsrs	r1, r1, #31
 8000286:	00db      	lsls	r3, r3, #3
 8000288:	1a27      	subs	r7, r4, r0
 800028a:	428a      	cmp	r2, r1
 800028c:	d029      	beq.n	80002e2 <__aeabi_fadd+0x82>
 800028e:	2f00      	cmp	r7, #0
 8000290:	dd15      	ble.n	80002be <__aeabi_fadd+0x5e>
 8000292:	2800      	cmp	r0, #0
 8000294:	d14a      	bne.n	800032c <__aeabi_fadd+0xcc>
 8000296:	2b00      	cmp	r3, #0
 8000298:	d000      	beq.n	800029c <__aeabi_fadd+0x3c>
 800029a:	e095      	b.n	80003c8 <__aeabi_fadd+0x168>
 800029c:	08ed      	lsrs	r5, r5, #3
 800029e:	2cff      	cmp	r4, #255	; 0xff
 80002a0:	d100      	bne.n	80002a4 <__aeabi_fadd+0x44>
 80002a2:	e088      	b.n	80003b6 <__aeabi_fadd+0x156>
 80002a4:	026b      	lsls	r3, r5, #9
 80002a6:	0a5b      	lsrs	r3, r3, #9
 80002a8:	b2e6      	uxtb	r6, r4
 80002aa:	025b      	lsls	r3, r3, #9
 80002ac:	05f6      	lsls	r6, r6, #23
 80002ae:	0a58      	lsrs	r0, r3, #9
 80002b0:	4330      	orrs	r0, r6
 80002b2:	07d2      	lsls	r2, r2, #31
 80002b4:	4310      	orrs	r0, r2
 80002b6:	bc0c      	pop	{r2, r3}
 80002b8:	4690      	mov	r8, r2
 80002ba:	4699      	mov	r9, r3
 80002bc:	bdf8      	pop	{r3, r4, r5, r6, r7, pc}
 80002be:	2f00      	cmp	r7, #0
 80002c0:	d000      	beq.n	80002c4 <__aeabi_fadd+0x64>
 80002c2:	e087      	b.n	80003d4 <__aeabi_fadd+0x174>
 80002c4:	1c60      	adds	r0, r4, #1
 80002c6:	b2c0      	uxtb	r0, r0
 80002c8:	2801      	cmp	r0, #1
 80002ca:	dc00      	bgt.n	80002ce <__aeabi_fadd+0x6e>
 80002cc:	e0b6      	b.n	800043c <__aeabi_fadd+0x1dc>
 80002ce:	1aee      	subs	r6, r5, r3
 80002d0:	0172      	lsls	r2, r6, #5
 80002d2:	d500      	bpl.n	80002d6 <__aeabi_fadd+0x76>
 80002d4:	e0c5      	b.n	8000462 <__aeabi_fadd+0x202>
 80002d6:	2e00      	cmp	r6, #0
 80002d8:	d13d      	bne.n	8000356 <__aeabi_fadd+0xf6>
 80002da:	2200      	movs	r2, #0
 80002dc:	2600      	movs	r6, #0
 80002de:	2300      	movs	r3, #0
 80002e0:	e7e3      	b.n	80002aa <__aeabi_fadd+0x4a>
 80002e2:	2f00      	cmp	r7, #0
 80002e4:	dc00      	bgt.n	80002e8 <__aeabi_fadd+0x88>
 80002e6:	e096      	b.n	8000416 <__aeabi_fadd+0x1b6>
 80002e8:	2800      	cmp	r0, #0
 80002ea:	d05d      	beq.n	80003a8 <__aeabi_fadd+0x148>
 80002ec:	2cff      	cmp	r4, #255	; 0xff
 80002ee:	d060      	beq.n	80003b2 <__aeabi_fadd+0x152>
 80002f0:	2280      	movs	r2, #128	; 0x80
 80002f2:	04d2      	lsls	r2, r2, #19
 80002f4:	4313      	orrs	r3, r2
 80002f6:	2f1b      	cmp	r7, #27
 80002f8:	dd00      	ble.n	80002fc <__aeabi_fadd+0x9c>
 80002fa:	e0ec      	b.n	80004d6 <__aeabi_fadd+0x276>
 80002fc:	2220      	movs	r2, #32
 80002fe:	1bd2      	subs	r2, r2, r7
 8000300:	0018      	movs	r0, r3
 8000302:	4093      	lsls	r3, r2
 8000304:	40f8      	lsrs	r0, r7
 8000306:	1e5a      	subs	r2, r3, #1
 8000308:	4193      	sbcs	r3, r2
 800030a:	4303      	orrs	r3, r0
 800030c:	18ed      	adds	r5, r5, r3
 800030e:	016b      	lsls	r3, r5, #5
 8000310:	d57b      	bpl.n	800040a <__aeabi_fadd+0x1aa>
 8000312:	3401      	adds	r4, #1
 8000314:	2cff      	cmp	r4, #255	; 0xff
 8000316:	d100      	bne.n	800031a <__aeabi_fadd+0xba>
 8000318:	e0b7      	b.n	800048a <__aeabi_fadd+0x22a>
 800031a:	2201      	movs	r2, #1
 800031c:	2607      	movs	r6, #7
 800031e:	402a      	ands	r2, r5
 8000320:	086b      	lsrs	r3, r5, #1
 8000322:	4d9a      	ldr	r5, [pc, #616]	; (800058c <__aeabi_fadd+0x32c>)
 8000324:	401d      	ands	r5, r3
 8000326:	4315      	orrs	r5, r2
 8000328:	402e      	ands	r6, r5
 800032a:	e029      	b.n	8000380 <__aeabi_fadd+0x120>
 800032c:	2cff      	cmp	r4, #255	; 0xff
 800032e:	d0b5      	beq.n	800029c <__aeabi_fadd+0x3c>
 8000330:	2280      	movs	r2, #128	; 0x80
 8000332:	04d2      	lsls	r2, r2, #19
 8000334:	4313      	orrs	r3, r2
 8000336:	2f1b      	cmp	r7, #27
 8000338:	dd00      	ble.n	800033c <__aeabi_fadd+0xdc>
 800033a:	e0b2      	b.n	80004a2 <__aeabi_fadd+0x242>
 800033c:	2220      	movs	r2, #32
 800033e:	1bd2      	subs	r2, r2, r7
 8000340:	0019      	movs	r1, r3
 8000342:	4093      	lsls	r3, r2
 8000344:	40f9      	lsrs	r1, r7
 8000346:	1e5a      	subs	r2, r3, #1
 8000348:	4193      	sbcs	r3, r2
 800034a:	430b      	orrs	r3, r1
 800034c:	1aed      	subs	r5, r5, r3
 800034e:	016b      	lsls	r3, r5, #5
 8000350:	d55b      	bpl.n	800040a <__aeabi_fadd+0x1aa>
 8000352:	01ad      	lsls	r5, r5, #6
 8000354:	09ae      	lsrs	r6, r5, #6
 8000356:	0030      	movs	r0, r6
 8000358:	f000 fe08 	bl	8000f6c <__clzsi2>
 800035c:	3805      	subs	r0, #5
 800035e:	4086      	lsls	r6, r0
 8000360:	4284      	cmp	r4, r0
 8000362:	dc65      	bgt.n	8000430 <__aeabi_fadd+0x1d0>
 8000364:	1b04      	subs	r4, r0, r4
 8000366:	0033      	movs	r3, r6
 8000368:	2020      	movs	r0, #32
 800036a:	3401      	adds	r4, #1
 800036c:	40e3      	lsrs	r3, r4
 800036e:	1b04      	subs	r4, r0, r4
 8000370:	40a6      	lsls	r6, r4
 8000372:	1e75      	subs	r5, r6, #1
 8000374:	41ae      	sbcs	r6, r5
 8000376:	4333      	orrs	r3, r6
 8000378:	2607      	movs	r6, #7
 800037a:	001d      	movs	r5, r3
 800037c:	2400      	movs	r4, #0
 800037e:	401e      	ands	r6, r3
 8000380:	2201      	movs	r2, #1
 8000382:	464b      	mov	r3, r9
 8000384:	401a      	ands	r2, r3
 8000386:	2e00      	cmp	r6, #0
 8000388:	d004      	beq.n	8000394 <__aeabi_fadd+0x134>
 800038a:	230f      	movs	r3, #15
 800038c:	402b      	ands	r3, r5
 800038e:	2b04      	cmp	r3, #4
 8000390:	d000      	beq.n	8000394 <__aeabi_fadd+0x134>
 8000392:	3504      	adds	r5, #4
 8000394:	016b      	lsls	r3, r5, #5
 8000396:	d400      	bmi.n	800039a <__aeabi_fadd+0x13a>
 8000398:	e780      	b.n	800029c <__aeabi_fadd+0x3c>
 800039a:	3401      	adds	r4, #1
 800039c:	b2e6      	uxtb	r6, r4
 800039e:	2cff      	cmp	r4, #255	; 0xff
 80003a0:	d12f      	bne.n	8000402 <__aeabi_fadd+0x1a2>
 80003a2:	26ff      	movs	r6, #255	; 0xff
 80003a4:	2300      	movs	r3, #0
 80003a6:	e780      	b.n	80002aa <__aeabi_fadd+0x4a>
 80003a8:	2b00      	cmp	r3, #0
 80003aa:	d152      	bne.n	8000452 <__aeabi_fadd+0x1f2>
 80003ac:	2cff      	cmp	r4, #255	; 0xff
 80003ae:	d000      	beq.n	80003b2 <__aeabi_fadd+0x152>
 80003b0:	e774      	b.n	800029c <__aeabi_fadd+0x3c>
 80003b2:	000a      	movs	r2, r1
 80003b4:	08ed      	lsrs	r5, r5, #3
 80003b6:	2d00      	cmp	r5, #0
 80003b8:	d0f3      	beq.n	80003a2 <__aeabi_fadd+0x142>
 80003ba:	2380      	movs	r3, #128	; 0x80
 80003bc:	03db      	lsls	r3, r3, #15
 80003be:	432b      	orrs	r3, r5
 80003c0:	025b      	lsls	r3, r3, #9
 80003c2:	0a5b      	lsrs	r3, r3, #9
 80003c4:	26ff      	movs	r6, #255	; 0xff
 80003c6:	e770      	b.n	80002aa <__aeabi_fadd+0x4a>
 80003c8:	3f01      	subs	r7, #1
 80003ca:	2f00      	cmp	r7, #0
 80003cc:	d0be      	beq.n	800034c <__aeabi_fadd+0xec>
 80003ce:	2cff      	cmp	r4, #255	; 0xff
 80003d0:	d1b1      	bne.n	8000336 <__aeabi_fadd+0xd6>
 80003d2:	e763      	b.n	800029c <__aeabi_fadd+0x3c>
 80003d4:	2c00      	cmp	r4, #0
 80003d6:	d047      	beq.n	8000468 <__aeabi_fadd+0x208>
 80003d8:	28ff      	cmp	r0, #255	; 0xff
 80003da:	d069      	beq.n	80004b0 <__aeabi_fadd+0x250>
 80003dc:	2480      	movs	r4, #128	; 0x80
 80003de:	04e4      	lsls	r4, r4, #19
 80003e0:	427a      	negs	r2, r7
 80003e2:	4325      	orrs	r5, r4
 80003e4:	2a1b      	cmp	r2, #27
 80003e6:	dd00      	ble.n	80003ea <__aeabi_fadd+0x18a>
 80003e8:	e0c5      	b.n	8000576 <__aeabi_fadd+0x316>
 80003ea:	002c      	movs	r4, r5
 80003ec:	2620      	movs	r6, #32
 80003ee:	40d4      	lsrs	r4, r2
 80003f0:	1ab2      	subs	r2, r6, r2
 80003f2:	4095      	lsls	r5, r2
 80003f4:	1e6a      	subs	r2, r5, #1
 80003f6:	4195      	sbcs	r5, r2
 80003f8:	4325      	orrs	r5, r4
 80003fa:	1b5d      	subs	r5, r3, r5
 80003fc:	0004      	movs	r4, r0
 80003fe:	4689      	mov	r9, r1
 8000400:	e7a5      	b.n	800034e <__aeabi_fadd+0xee>
 8000402:	01ab      	lsls	r3, r5, #6
 8000404:	0a5b      	lsrs	r3, r3, #9
 8000406:	e750      	b.n	80002aa <__aeabi_fadd+0x4a>
 8000408:	2400      	movs	r4, #0
 800040a:	2201      	movs	r2, #1
 800040c:	464b      	mov	r3, r9
 800040e:	401a      	ands	r2, r3
 8000410:	076b      	lsls	r3, r5, #29
 8000412:	d1ba      	bne.n	800038a <__aeabi_fadd+0x12a>
 8000414:	e742      	b.n	800029c <__aeabi_fadd+0x3c>
 8000416:	2f00      	cmp	r7, #0
 8000418:	d13b      	bne.n	8000492 <__aeabi_fadd+0x232>
 800041a:	3401      	adds	r4, #1
 800041c:	b2e0      	uxtb	r0, r4
 800041e:	2801      	cmp	r0, #1
 8000420:	dd4a      	ble.n	80004b8 <__aeabi_fadd+0x258>
 8000422:	2cff      	cmp	r4, #255	; 0xff
 8000424:	d0bd      	beq.n	80003a2 <__aeabi_fadd+0x142>
 8000426:	2607      	movs	r6, #7
 8000428:	18ed      	adds	r5, r5, r3
 800042a:	086d      	lsrs	r5, r5, #1
 800042c:	402e      	ands	r6, r5
 800042e:	e7a7      	b.n	8000380 <__aeabi_fadd+0x120>
 8000430:	2307      	movs	r3, #7
 8000432:	4d57      	ldr	r5, [pc, #348]	; (8000590 <__aeabi_fadd+0x330>)
 8000434:	1a24      	subs	r4, r4, r0
 8000436:	4035      	ands	r5, r6
 8000438:	401e      	ands	r6, r3
 800043a:	e7a1      	b.n	8000380 <__aeabi_fadd+0x120>
 800043c:	2c00      	cmp	r4, #0
 800043e:	d11b      	bne.n	8000478 <__aeabi_fadd+0x218>
 8000440:	2d00      	cmp	r5, #0
 8000442:	d16e      	bne.n	8000522 <__aeabi_fadd+0x2c2>
 8000444:	2b00      	cmp	r3, #0
 8000446:	d100      	bne.n	800044a <__aeabi_fadd+0x1ea>
 8000448:	e09a      	b.n	8000580 <__aeabi_fadd+0x320>
 800044a:	000a      	movs	r2, r1
 800044c:	001d      	movs	r5, r3
 800044e:	003c      	movs	r4, r7
 8000450:	e724      	b.n	800029c <__aeabi_fadd+0x3c>
 8000452:	3f01      	subs	r7, #1
 8000454:	2f00      	cmp	r7, #0
 8000456:	d100      	bne.n	800045a <__aeabi_fadd+0x1fa>
 8000458:	e758      	b.n	800030c <__aeabi_fadd+0xac>
 800045a:	2cff      	cmp	r4, #255	; 0xff
 800045c:	d000      	beq.n	8000460 <__aeabi_fadd+0x200>
 800045e:	e74a      	b.n	80002f6 <__aeabi_fadd+0x96>
 8000460:	e7a7      	b.n	80003b2 <__aeabi_fadd+0x152>
 8000462:	1b5e      	subs	r6, r3, r5
 8000464:	4689      	mov	r9, r1
 8000466:	e776      	b.n	8000356 <__aeabi_fadd+0xf6>
 8000468:	2d00      	cmp	r5, #0
 800046a:	d11c      	bne.n	80004a6 <__aeabi_fadd+0x246>
 800046c:	000a      	movs	r2, r1
 800046e:	28ff      	cmp	r0, #255	; 0xff
 8000470:	d01f      	beq.n	80004b2 <__aeabi_fadd+0x252>
 8000472:	0004      	movs	r4, r0
 8000474:	001d      	movs	r5, r3
 8000476:	e711      	b.n	800029c <__aeabi_fadd+0x3c>
 8000478:	2d00      	cmp	r5, #0
 800047a:	d15d      	bne.n	8000538 <__aeabi_fadd+0x2d8>
 800047c:	2b00      	cmp	r3, #0
 800047e:	d117      	bne.n	80004b0 <__aeabi_fadd+0x250>
 8000480:	2380      	movs	r3, #128	; 0x80
 8000482:	2200      	movs	r2, #0
 8000484:	03db      	lsls	r3, r3, #15
 8000486:	26ff      	movs	r6, #255	; 0xff
 8000488:	e70f      	b.n	80002aa <__aeabi_fadd+0x4a>
 800048a:	000a      	movs	r2, r1
 800048c:	26ff      	movs	r6, #255	; 0xff
 800048e:	2300      	movs	r3, #0
 8000490:	e70b      	b.n	80002aa <__aeabi_fadd+0x4a>
 8000492:	2c00      	cmp	r4, #0
 8000494:	d121      	bne.n	80004da <__aeabi_fadd+0x27a>
 8000496:	2d00      	cmp	r5, #0
 8000498:	d166      	bne.n	8000568 <__aeabi_fadd+0x308>
 800049a:	28ff      	cmp	r0, #255	; 0xff
 800049c:	d1e9      	bne.n	8000472 <__aeabi_fadd+0x212>
 800049e:	001d      	movs	r5, r3
 80004a0:	e787      	b.n	80003b2 <__aeabi_fadd+0x152>
 80004a2:	2301      	movs	r3, #1
 80004a4:	e752      	b.n	800034c <__aeabi_fadd+0xec>
 80004a6:	1c7a      	adds	r2, r7, #1
 80004a8:	d0a7      	beq.n	80003fa <__aeabi_fadd+0x19a>
 80004aa:	43fa      	mvns	r2, r7
 80004ac:	28ff      	cmp	r0, #255	; 0xff
 80004ae:	d199      	bne.n	80003e4 <__aeabi_fadd+0x184>
 80004b0:	000a      	movs	r2, r1
 80004b2:	001d      	movs	r5, r3
 80004b4:	24ff      	movs	r4, #255	; 0xff
 80004b6:	e6f1      	b.n	800029c <__aeabi_fadd+0x3c>
 80004b8:	2e00      	cmp	r6, #0
 80004ba:	d121      	bne.n	8000500 <__aeabi_fadd+0x2a0>
 80004bc:	2d00      	cmp	r5, #0
 80004be:	d04f      	beq.n	8000560 <__aeabi_fadd+0x300>
 80004c0:	2b00      	cmp	r3, #0
 80004c2:	d04c      	beq.n	800055e <__aeabi_fadd+0x2fe>
 80004c4:	18ed      	adds	r5, r5, r3
 80004c6:	016b      	lsls	r3, r5, #5
 80004c8:	d59e      	bpl.n	8000408 <__aeabi_fadd+0x1a8>
 80004ca:	4b31      	ldr	r3, [pc, #196]	; (8000590 <__aeabi_fadd+0x330>)
 80004cc:	3607      	adds	r6, #7
 80004ce:	402e      	ands	r6, r5
 80004d0:	2401      	movs	r4, #1
 80004d2:	401d      	ands	r5, r3
 80004d4:	e754      	b.n	8000380 <__aeabi_fadd+0x120>
 80004d6:	2301      	movs	r3, #1
 80004d8:	e718      	b.n	800030c <__aeabi_fadd+0xac>
 80004da:	28ff      	cmp	r0, #255	; 0xff
 80004dc:	d0df      	beq.n	800049e <__aeabi_fadd+0x23e>
 80004de:	2480      	movs	r4, #128	; 0x80
 80004e0:	04e4      	lsls	r4, r4, #19
 80004e2:	427f      	negs	r7, r7
 80004e4:	4325      	orrs	r5, r4
 80004e6:	2f1b      	cmp	r7, #27
 80004e8:	dc4d      	bgt.n	8000586 <__aeabi_fadd+0x326>
 80004ea:	2620      	movs	r6, #32
 80004ec:	1bf6      	subs	r6, r6, r7
 80004ee:	002c      	movs	r4, r5
 80004f0:	40b5      	lsls	r5, r6
 80004f2:	40fc      	lsrs	r4, r7
 80004f4:	1e6a      	subs	r2, r5, #1
 80004f6:	4195      	sbcs	r5, r2
 80004f8:	4325      	orrs	r5, r4
 80004fa:	18ed      	adds	r5, r5, r3
 80004fc:	0004      	movs	r4, r0
 80004fe:	e706      	b.n	800030e <__aeabi_fadd+0xae>
 8000500:	2d00      	cmp	r5, #0
 8000502:	d0cc      	beq.n	800049e <__aeabi_fadd+0x23e>
 8000504:	2b00      	cmp	r3, #0
 8000506:	d100      	bne.n	800050a <__aeabi_fadd+0x2aa>
 8000508:	e753      	b.n	80003b2 <__aeabi_fadd+0x152>
 800050a:	2180      	movs	r1, #128	; 0x80
 800050c:	4660      	mov	r0, ip
 800050e:	03c9      	lsls	r1, r1, #15
 8000510:	4208      	tst	r0, r1
 8000512:	d003      	beq.n	800051c <__aeabi_fadd+0x2bc>
 8000514:	4640      	mov	r0, r8
 8000516:	4208      	tst	r0, r1
 8000518:	d100      	bne.n	800051c <__aeabi_fadd+0x2bc>
 800051a:	001d      	movs	r5, r3
 800051c:	2101      	movs	r1, #1
 800051e:	4011      	ands	r1, r2
 8000520:	e747      	b.n	80003b2 <__aeabi_fadd+0x152>
 8000522:	2b00      	cmp	r3, #0
 8000524:	d100      	bne.n	8000528 <__aeabi_fadd+0x2c8>
 8000526:	e6b9      	b.n	800029c <__aeabi_fadd+0x3c>
 8000528:	1aea      	subs	r2, r5, r3
 800052a:	0150      	lsls	r0, r2, #5
 800052c:	d525      	bpl.n	800057a <__aeabi_fadd+0x31a>
 800052e:	2607      	movs	r6, #7
 8000530:	1b5d      	subs	r5, r3, r5
 8000532:	402e      	ands	r6, r5
 8000534:	4689      	mov	r9, r1
 8000536:	e723      	b.n	8000380 <__aeabi_fadd+0x120>
 8000538:	24ff      	movs	r4, #255	; 0xff
 800053a:	2b00      	cmp	r3, #0
 800053c:	d100      	bne.n	8000540 <__aeabi_fadd+0x2e0>
 800053e:	e6ad      	b.n	800029c <__aeabi_fadd+0x3c>
 8000540:	2280      	movs	r2, #128	; 0x80
 8000542:	4660      	mov	r0, ip
 8000544:	03d2      	lsls	r2, r2, #15
 8000546:	4210      	tst	r0, r2
 8000548:	d004      	beq.n	8000554 <__aeabi_fadd+0x2f4>
 800054a:	4640      	mov	r0, r8
 800054c:	4210      	tst	r0, r2
 800054e:	d101      	bne.n	8000554 <__aeabi_fadd+0x2f4>
 8000550:	001d      	movs	r5, r3
 8000552:	4689      	mov	r9, r1
 8000554:	2201      	movs	r2, #1
 8000556:	464b      	mov	r3, r9
 8000558:	24ff      	movs	r4, #255	; 0xff
 800055a:	401a      	ands	r2, r3
 800055c:	e69e      	b.n	800029c <__aeabi_fadd+0x3c>
 800055e:	002b      	movs	r3, r5
 8000560:	08dd      	lsrs	r5, r3, #3
 8000562:	000a      	movs	r2, r1
 8000564:	2400      	movs	r4, #0
 8000566:	e69d      	b.n	80002a4 <__aeabi_fadd+0x44>
 8000568:	1c7a      	adds	r2, r7, #1
 800056a:	d0c6      	beq.n	80004fa <__aeabi_fadd+0x29a>
 800056c:	43ff      	mvns	r7, r7
 800056e:	28ff      	cmp	r0, #255	; 0xff
 8000570:	d1b9      	bne.n	80004e6 <__aeabi_fadd+0x286>
 8000572:	001d      	movs	r5, r3
 8000574:	e71d      	b.n	80003b2 <__aeabi_fadd+0x152>
 8000576:	2501      	movs	r5, #1
 8000578:	e73f      	b.n	80003fa <__aeabi_fadd+0x19a>
 800057a:	1e15      	subs	r5, r2, #0
 800057c:	d000      	beq.n	8000580 <__aeabi_fadd+0x320>
 800057e:	e744      	b.n	800040a <__aeabi_fadd+0x1aa>
 8000580:	2200      	movs	r2, #0
 8000582:	2300      	movs	r3, #0
 8000584:	e691      	b.n	80002aa <__aeabi_fadd+0x4a>
 8000586:	2501      	movs	r5, #1
 8000588:	e7b7      	b.n	80004fa <__aeabi_fadd+0x29a>
 800058a:	46c0      	nop			; (mov r8, r8)
 800058c:	7dffffff 	.word	0x7dffffff
 8000590:	fbffffff 	.word	0xfbffffff

08000594 <__aeabi_fdiv>:
 8000594:	b5f8      	push	{r3, r4, r5, r6, r7, lr}
 8000596:	4657      	mov	r7, sl
 8000598:	464e      	mov	r6, r9
 800059a:	4645      	mov	r5, r8
 800059c:	46de      	mov	lr, fp
 800059e:	0244      	lsls	r4, r0, #9
 80005a0:	b5e0      	push	{r5, r6, r7, lr}
 80005a2:	0046      	lsls	r6, r0, #1
 80005a4:	4688      	mov	r8, r1
 80005a6:	0a64      	lsrs	r4, r4, #9
 80005a8:	0e36      	lsrs	r6, r6, #24
 80005aa:	0fc7      	lsrs	r7, r0, #31
 80005ac:	2e00      	cmp	r6, #0
 80005ae:	d063      	beq.n	8000678 <__aeabi_fdiv+0xe4>
 80005b0:	2eff      	cmp	r6, #255	; 0xff
 80005b2:	d024      	beq.n	80005fe <__aeabi_fdiv+0x6a>
 80005b4:	2380      	movs	r3, #128	; 0x80
 80005b6:	00e4      	lsls	r4, r4, #3
 80005b8:	04db      	lsls	r3, r3, #19
 80005ba:	431c      	orrs	r4, r3
 80005bc:	2300      	movs	r3, #0
 80005be:	4699      	mov	r9, r3
 80005c0:	469b      	mov	fp, r3
 80005c2:	3e7f      	subs	r6, #127	; 0x7f
 80005c4:	4643      	mov	r3, r8
 80005c6:	4642      	mov	r2, r8
 80005c8:	025d      	lsls	r5, r3, #9
 80005ca:	0fd2      	lsrs	r2, r2, #31
 80005cc:	005b      	lsls	r3, r3, #1
 80005ce:	0a6d      	lsrs	r5, r5, #9
 80005d0:	0e1b      	lsrs	r3, r3, #24
 80005d2:	4690      	mov	r8, r2
 80005d4:	4692      	mov	sl, r2
 80005d6:	d065      	beq.n	80006a4 <__aeabi_fdiv+0x110>
 80005d8:	2bff      	cmp	r3, #255	; 0xff
 80005da:	d055      	beq.n	8000688 <__aeabi_fdiv+0xf4>
 80005dc:	2280      	movs	r2, #128	; 0x80
 80005de:	2100      	movs	r1, #0
 80005e0:	00ed      	lsls	r5, r5, #3
 80005e2:	04d2      	lsls	r2, r2, #19
 80005e4:	3b7f      	subs	r3, #127	; 0x7f
 80005e6:	4315      	orrs	r5, r2
 80005e8:	1af6      	subs	r6, r6, r3
 80005ea:	4643      	mov	r3, r8
 80005ec:	464a      	mov	r2, r9
 80005ee:	407b      	eors	r3, r7
 80005f0:	2a0f      	cmp	r2, #15
 80005f2:	d900      	bls.n	80005f6 <__aeabi_fdiv+0x62>
 80005f4:	e08d      	b.n	8000712 <__aeabi_fdiv+0x17e>
 80005f6:	486d      	ldr	r0, [pc, #436]	; (80007ac <__aeabi_fdiv+0x218>)
 80005f8:	0092      	lsls	r2, r2, #2
 80005fa:	5882      	ldr	r2, [r0, r2]
 80005fc:	4697      	mov	pc, r2
 80005fe:	2c00      	cmp	r4, #0
 8000600:	d154      	bne.n	80006ac <__aeabi_fdiv+0x118>
 8000602:	2308      	movs	r3, #8
 8000604:	4699      	mov	r9, r3
 8000606:	3b06      	subs	r3, #6
 8000608:	26ff      	movs	r6, #255	; 0xff
 800060a:	469b      	mov	fp, r3
 800060c:	e7da      	b.n	80005c4 <__aeabi_fdiv+0x30>
 800060e:	2500      	movs	r5, #0
 8000610:	4653      	mov	r3, sl
 8000612:	2902      	cmp	r1, #2
 8000614:	d01b      	beq.n	800064e <__aeabi_fdiv+0xba>
 8000616:	2903      	cmp	r1, #3
 8000618:	d100      	bne.n	800061c <__aeabi_fdiv+0x88>
 800061a:	e0bf      	b.n	800079c <__aeabi_fdiv+0x208>
 800061c:	2901      	cmp	r1, #1
 800061e:	d028      	beq.n	8000672 <__aeabi_fdiv+0xde>
 8000620:	0030      	movs	r0, r6
 8000622:	307f      	adds	r0, #127	; 0x7f
 8000624:	2800      	cmp	r0, #0
 8000626:	dd20      	ble.n	800066a <__aeabi_fdiv+0xd6>
 8000628:	076a      	lsls	r2, r5, #29
 800062a:	d004      	beq.n	8000636 <__aeabi_fdiv+0xa2>
 800062c:	220f      	movs	r2, #15
 800062e:	402a      	ands	r2, r5
 8000630:	2a04      	cmp	r2, #4
 8000632:	d000      	beq.n	8000636 <__aeabi_fdiv+0xa2>
 8000634:	3504      	adds	r5, #4
 8000636:	012a      	lsls	r2, r5, #4
 8000638:	d503      	bpl.n	8000642 <__aeabi_fdiv+0xae>
 800063a:	0030      	movs	r0, r6
 800063c:	4a5c      	ldr	r2, [pc, #368]	; (80007b0 <__aeabi_fdiv+0x21c>)
 800063e:	3080      	adds	r0, #128	; 0x80
 8000640:	4015      	ands	r5, r2
 8000642:	28fe      	cmp	r0, #254	; 0xfe
 8000644:	dc03      	bgt.n	800064e <__aeabi_fdiv+0xba>
 8000646:	01ac      	lsls	r4, r5, #6
 8000648:	0a64      	lsrs	r4, r4, #9
 800064a:	b2c2      	uxtb	r2, r0
 800064c:	e001      	b.n	8000652 <__aeabi_fdiv+0xbe>
 800064e:	22ff      	movs	r2, #255	; 0xff
 8000650:	2400      	movs	r4, #0
 8000652:	0264      	lsls	r4, r4, #9
 8000654:	05d2      	lsls	r2, r2, #23
 8000656:	0a60      	lsrs	r0, r4, #9
 8000658:	07db      	lsls	r3, r3, #31
 800065a:	4310      	orrs	r0, r2
 800065c:	4318      	orrs	r0, r3
 800065e:	bc3c      	pop	{r2, r3, r4, r5}
 8000660:	4690      	mov	r8, r2
 8000662:	4699      	mov	r9, r3
 8000664:	46a2      	mov	sl, r4
 8000666:	46ab      	mov	fp, r5
 8000668:	bdf8      	pop	{r3, r4, r5, r6, r7, pc}
 800066a:	2201      	movs	r2, #1
 800066c:	1a10      	subs	r0, r2, r0
 800066e:	281b      	cmp	r0, #27
 8000670:	dd7c      	ble.n	800076c <__aeabi_fdiv+0x1d8>
 8000672:	2200      	movs	r2, #0
 8000674:	2400      	movs	r4, #0
 8000676:	e7ec      	b.n	8000652 <__aeabi_fdiv+0xbe>
 8000678:	2c00      	cmp	r4, #0
 800067a:	d11d      	bne.n	80006b8 <__aeabi_fdiv+0x124>
 800067c:	2304      	movs	r3, #4
 800067e:	4699      	mov	r9, r3
 8000680:	3b03      	subs	r3, #3
 8000682:	2600      	movs	r6, #0
 8000684:	469b      	mov	fp, r3
 8000686:	e79d      	b.n	80005c4 <__aeabi_fdiv+0x30>
 8000688:	3eff      	subs	r6, #255	; 0xff
 800068a:	2d00      	cmp	r5, #0
 800068c:	d120      	bne.n	80006d0 <__aeabi_fdiv+0x13c>
 800068e:	2102      	movs	r1, #2
 8000690:	4643      	mov	r3, r8
 8000692:	464a      	mov	r2, r9
 8000694:	407b      	eors	r3, r7
 8000696:	430a      	orrs	r2, r1
 8000698:	2a0f      	cmp	r2, #15
 800069a:	d8d8      	bhi.n	800064e <__aeabi_fdiv+0xba>
 800069c:	4845      	ldr	r0, [pc, #276]	; (80007b4 <__aeabi_fdiv+0x220>)
 800069e:	0092      	lsls	r2, r2, #2
 80006a0:	5882      	ldr	r2, [r0, r2]
 80006a2:	4697      	mov	pc, r2
 80006a4:	2d00      	cmp	r5, #0
 80006a6:	d119      	bne.n	80006dc <__aeabi_fdiv+0x148>
 80006a8:	2101      	movs	r1, #1
 80006aa:	e7f1      	b.n	8000690 <__aeabi_fdiv+0xfc>
 80006ac:	230c      	movs	r3, #12
 80006ae:	4699      	mov	r9, r3
 80006b0:	3b09      	subs	r3, #9
 80006b2:	26ff      	movs	r6, #255	; 0xff
 80006b4:	469b      	mov	fp, r3
 80006b6:	e785      	b.n	80005c4 <__aeabi_fdiv+0x30>
 80006b8:	0020      	movs	r0, r4
 80006ba:	f000 fc57 	bl	8000f6c <__clzsi2>
 80006be:	2676      	movs	r6, #118	; 0x76
 80006c0:	1f43      	subs	r3, r0, #5
 80006c2:	409c      	lsls	r4, r3
 80006c4:	2300      	movs	r3, #0
 80006c6:	4276      	negs	r6, r6
 80006c8:	1a36      	subs	r6, r6, r0
 80006ca:	4699      	mov	r9, r3
 80006cc:	469b      	mov	fp, r3
 80006ce:	e779      	b.n	80005c4 <__aeabi_fdiv+0x30>
 80006d0:	464a      	mov	r2, r9
 80006d2:	2303      	movs	r3, #3
 80006d4:	431a      	orrs	r2, r3
 80006d6:	4691      	mov	r9, r2
 80006d8:	2103      	movs	r1, #3
 80006da:	e786      	b.n	80005ea <__aeabi_fdiv+0x56>
 80006dc:	0028      	movs	r0, r5
 80006de:	f000 fc45 	bl	8000f6c <__clzsi2>
 80006e2:	1f43      	subs	r3, r0, #5
 80006e4:	1836      	adds	r6, r6, r0
 80006e6:	409d      	lsls	r5, r3
 80006e8:	3676      	adds	r6, #118	; 0x76
 80006ea:	2100      	movs	r1, #0
 80006ec:	e77d      	b.n	80005ea <__aeabi_fdiv+0x56>
 80006ee:	2480      	movs	r4, #128	; 0x80
 80006f0:	2300      	movs	r3, #0
 80006f2:	03e4      	lsls	r4, r4, #15
 80006f4:	22ff      	movs	r2, #255	; 0xff
 80006f6:	e7ac      	b.n	8000652 <__aeabi_fdiv+0xbe>
 80006f8:	2500      	movs	r5, #0
 80006fa:	2380      	movs	r3, #128	; 0x80
 80006fc:	03db      	lsls	r3, r3, #15
 80006fe:	421c      	tst	r4, r3
 8000700:	d028      	beq.n	8000754 <__aeabi_fdiv+0x1c0>
 8000702:	421d      	tst	r5, r3
 8000704:	d126      	bne.n	8000754 <__aeabi_fdiv+0x1c0>
 8000706:	432b      	orrs	r3, r5
 8000708:	025c      	lsls	r4, r3, #9
 800070a:	0a64      	lsrs	r4, r4, #9
 800070c:	4643      	mov	r3, r8
 800070e:	22ff      	movs	r2, #255	; 0xff
 8000710:	e79f      	b.n	8000652 <__aeabi_fdiv+0xbe>
 8000712:	0162      	lsls	r2, r4, #5
 8000714:	016c      	lsls	r4, r5, #5
 8000716:	42a2      	cmp	r2, r4
 8000718:	d224      	bcs.n	8000764 <__aeabi_fdiv+0x1d0>
 800071a:	211b      	movs	r1, #27
 800071c:	2500      	movs	r5, #0
 800071e:	3e01      	subs	r6, #1
 8000720:	2701      	movs	r7, #1
 8000722:	0010      	movs	r0, r2
 8000724:	006d      	lsls	r5, r5, #1
 8000726:	0052      	lsls	r2, r2, #1
 8000728:	2800      	cmp	r0, #0
 800072a:	db01      	blt.n	8000730 <__aeabi_fdiv+0x19c>
 800072c:	4294      	cmp	r4, r2
 800072e:	d801      	bhi.n	8000734 <__aeabi_fdiv+0x1a0>
 8000730:	1b12      	subs	r2, r2, r4
 8000732:	433d      	orrs	r5, r7
 8000734:	3901      	subs	r1, #1
 8000736:	2900      	cmp	r1, #0
 8000738:	d1f3      	bne.n	8000722 <__aeabi_fdiv+0x18e>
 800073a:	0014      	movs	r4, r2
 800073c:	1e62      	subs	r2, r4, #1
 800073e:	4194      	sbcs	r4, r2
 8000740:	4325      	orrs	r5, r4
 8000742:	e76d      	b.n	8000620 <__aeabi_fdiv+0x8c>
 8000744:	46ba      	mov	sl, r7
 8000746:	4659      	mov	r1, fp
 8000748:	0025      	movs	r5, r4
 800074a:	4653      	mov	r3, sl
 800074c:	2902      	cmp	r1, #2
 800074e:	d000      	beq.n	8000752 <__aeabi_fdiv+0x1be>
 8000750:	e761      	b.n	8000616 <__aeabi_fdiv+0x82>
 8000752:	e77c      	b.n	800064e <__aeabi_fdiv+0xba>
 8000754:	2380      	movs	r3, #128	; 0x80
 8000756:	03db      	lsls	r3, r3, #15
 8000758:	431c      	orrs	r4, r3
 800075a:	0264      	lsls	r4, r4, #9
 800075c:	0a64      	lsrs	r4, r4, #9
 800075e:	003b      	movs	r3, r7
 8000760:	22ff      	movs	r2, #255	; 0xff
 8000762:	e776      	b.n	8000652 <__aeabi_fdiv+0xbe>
 8000764:	1b12      	subs	r2, r2, r4
 8000766:	211a      	movs	r1, #26
 8000768:	2501      	movs	r5, #1
 800076a:	e7d9      	b.n	8000720 <__aeabi_fdiv+0x18c>
 800076c:	369e      	adds	r6, #158	; 0x9e
 800076e:	002a      	movs	r2, r5
 8000770:	40b5      	lsls	r5, r6
 8000772:	002c      	movs	r4, r5
 8000774:	40c2      	lsrs	r2, r0
 8000776:	1e65      	subs	r5, r4, #1
 8000778:	41ac      	sbcs	r4, r5
 800077a:	4314      	orrs	r4, r2
 800077c:	0762      	lsls	r2, r4, #29
 800077e:	d004      	beq.n	800078a <__aeabi_fdiv+0x1f6>
 8000780:	220f      	movs	r2, #15
 8000782:	4022      	ands	r2, r4
 8000784:	2a04      	cmp	r2, #4
 8000786:	d000      	beq.n	800078a <__aeabi_fdiv+0x1f6>
 8000788:	3404      	adds	r4, #4
 800078a:	0162      	lsls	r2, r4, #5
 800078c:	d403      	bmi.n	8000796 <__aeabi_fdiv+0x202>
 800078e:	01a4      	lsls	r4, r4, #6
 8000790:	0a64      	lsrs	r4, r4, #9
 8000792:	2200      	movs	r2, #0
 8000794:	e75d      	b.n	8000652 <__aeabi_fdiv+0xbe>
 8000796:	2201      	movs	r2, #1
 8000798:	2400      	movs	r4, #0
 800079a:	e75a      	b.n	8000652 <__aeabi_fdiv+0xbe>
 800079c:	2480      	movs	r4, #128	; 0x80
 800079e:	03e4      	lsls	r4, r4, #15
 80007a0:	432c      	orrs	r4, r5
 80007a2:	0264      	lsls	r4, r4, #9
 80007a4:	0a64      	lsrs	r4, r4, #9
 80007a6:	22ff      	movs	r2, #255	; 0xff
 80007a8:	e753      	b.n	8000652 <__aeabi_fdiv+0xbe>
 80007aa:	46c0      	nop			; (mov r8, r8)
 80007ac:	08007684 	.word	0x08007684
 80007b0:	f7ffffff 	.word	0xf7ffffff
 80007b4:	080076c4 	.word	0x080076c4

080007b8 <__aeabi_fmul>:
 80007b8:	b5f0      	push	{r4, r5, r6, r7, lr}
 80007ba:	464e      	mov	r6, r9
 80007bc:	4657      	mov	r7, sl
 80007be:	4645      	mov	r5, r8
 80007c0:	46de      	mov	lr, fp
 80007c2:	b5e0      	push	{r5, r6, r7, lr}
 80007c4:	0243      	lsls	r3, r0, #9
 80007c6:	0a5b      	lsrs	r3, r3, #9
 80007c8:	0045      	lsls	r5, r0, #1
 80007ca:	b083      	sub	sp, #12
 80007cc:	1c0f      	adds	r7, r1, #0
 80007ce:	4699      	mov	r9, r3
 80007d0:	0e2d      	lsrs	r5, r5, #24
 80007d2:	0fc6      	lsrs	r6, r0, #31
 80007d4:	2d00      	cmp	r5, #0
 80007d6:	d057      	beq.n	8000888 <__aeabi_fmul+0xd0>
 80007d8:	2dff      	cmp	r5, #255	; 0xff
 80007da:	d024      	beq.n	8000826 <__aeabi_fmul+0x6e>
 80007dc:	2080      	movs	r0, #128	; 0x80
 80007de:	00db      	lsls	r3, r3, #3
 80007e0:	04c0      	lsls	r0, r0, #19
 80007e2:	4318      	orrs	r0, r3
 80007e4:	2300      	movs	r3, #0
 80007e6:	4681      	mov	r9, r0
 80007e8:	469a      	mov	sl, r3
 80007ea:	469b      	mov	fp, r3
 80007ec:	3d7f      	subs	r5, #127	; 0x7f
 80007ee:	027c      	lsls	r4, r7, #9
 80007f0:	007a      	lsls	r2, r7, #1
 80007f2:	0ffb      	lsrs	r3, r7, #31
 80007f4:	0a64      	lsrs	r4, r4, #9
 80007f6:	0e12      	lsrs	r2, r2, #24
 80007f8:	4698      	mov	r8, r3
 80007fa:	d023      	beq.n	8000844 <__aeabi_fmul+0x8c>
 80007fc:	2aff      	cmp	r2, #255	; 0xff
 80007fe:	d04b      	beq.n	8000898 <__aeabi_fmul+0xe0>
 8000800:	00e3      	lsls	r3, r4, #3
 8000802:	2480      	movs	r4, #128	; 0x80
 8000804:	2000      	movs	r0, #0
 8000806:	04e4      	lsls	r4, r4, #19
 8000808:	3a7f      	subs	r2, #127	; 0x7f
 800080a:	431c      	orrs	r4, r3
 800080c:	18ad      	adds	r5, r5, r2
 800080e:	1c6b      	adds	r3, r5, #1
 8000810:	4647      	mov	r7, r8
 8000812:	9301      	str	r3, [sp, #4]
 8000814:	4653      	mov	r3, sl
 8000816:	4077      	eors	r7, r6
 8000818:	003a      	movs	r2, r7
 800081a:	2b0f      	cmp	r3, #15
 800081c:	d848      	bhi.n	80008b0 <__aeabi_fmul+0xf8>
 800081e:	497d      	ldr	r1, [pc, #500]	; (8000a14 <__aeabi_fmul+0x25c>)
 8000820:	009b      	lsls	r3, r3, #2
 8000822:	58cb      	ldr	r3, [r1, r3]
 8000824:	469f      	mov	pc, r3
 8000826:	2b00      	cmp	r3, #0
 8000828:	d000      	beq.n	800082c <__aeabi_fmul+0x74>
 800082a:	e085      	b.n	8000938 <__aeabi_fmul+0x180>
 800082c:	3308      	adds	r3, #8
 800082e:	469a      	mov	sl, r3
 8000830:	3b06      	subs	r3, #6
 8000832:	469b      	mov	fp, r3
 8000834:	027c      	lsls	r4, r7, #9
 8000836:	007a      	lsls	r2, r7, #1
 8000838:	0ffb      	lsrs	r3, r7, #31
 800083a:	25ff      	movs	r5, #255	; 0xff
 800083c:	0a64      	lsrs	r4, r4, #9
 800083e:	0e12      	lsrs	r2, r2, #24
 8000840:	4698      	mov	r8, r3
 8000842:	d1db      	bne.n	80007fc <__aeabi_fmul+0x44>
 8000844:	2c00      	cmp	r4, #0
 8000846:	d000      	beq.n	800084a <__aeabi_fmul+0x92>
 8000848:	e090      	b.n	800096c <__aeabi_fmul+0x1b4>
 800084a:	4652      	mov	r2, sl
 800084c:	2301      	movs	r3, #1
 800084e:	431a      	orrs	r2, r3
 8000850:	4692      	mov	sl, r2
 8000852:	2001      	movs	r0, #1
 8000854:	e7db      	b.n	800080e <__aeabi_fmul+0x56>
 8000856:	464c      	mov	r4, r9
 8000858:	4658      	mov	r0, fp
 800085a:	0017      	movs	r7, r2
 800085c:	2802      	cmp	r0, #2
 800085e:	d024      	beq.n	80008aa <__aeabi_fmul+0xf2>
 8000860:	2803      	cmp	r0, #3
 8000862:	d100      	bne.n	8000866 <__aeabi_fmul+0xae>
 8000864:	e0cf      	b.n	8000a06 <__aeabi_fmul+0x24e>
 8000866:	2200      	movs	r2, #0
 8000868:	2300      	movs	r3, #0
 800086a:	2801      	cmp	r0, #1
 800086c:	d14d      	bne.n	800090a <__aeabi_fmul+0x152>
 800086e:	0258      	lsls	r0, r3, #9
 8000870:	05d2      	lsls	r2, r2, #23
 8000872:	0a40      	lsrs	r0, r0, #9
 8000874:	07ff      	lsls	r7, r7, #31
 8000876:	4310      	orrs	r0, r2
 8000878:	4338      	orrs	r0, r7
 800087a:	b003      	add	sp, #12
 800087c:	bc3c      	pop	{r2, r3, r4, r5}
 800087e:	4690      	mov	r8, r2
 8000880:	4699      	mov	r9, r3
 8000882:	46a2      	mov	sl, r4
 8000884:	46ab      	mov	fp, r5
 8000886:	bdf0      	pop	{r4, r5, r6, r7, pc}
 8000888:	2b00      	cmp	r3, #0
 800088a:	d15b      	bne.n	8000944 <__aeabi_fmul+0x18c>
 800088c:	2304      	movs	r3, #4
 800088e:	469a      	mov	sl, r3
 8000890:	3b03      	subs	r3, #3
 8000892:	2500      	movs	r5, #0
 8000894:	469b      	mov	fp, r3
 8000896:	e7aa      	b.n	80007ee <__aeabi_fmul+0x36>
 8000898:	35ff      	adds	r5, #255	; 0xff
 800089a:	2c00      	cmp	r4, #0
 800089c:	d160      	bne.n	8000960 <__aeabi_fmul+0x1a8>
 800089e:	4652      	mov	r2, sl
 80008a0:	2302      	movs	r3, #2
 80008a2:	431a      	orrs	r2, r3
 80008a4:	4692      	mov	sl, r2
 80008a6:	2002      	movs	r0, #2
 80008a8:	e7b1      	b.n	800080e <__aeabi_fmul+0x56>
 80008aa:	22ff      	movs	r2, #255	; 0xff
 80008ac:	2300      	movs	r3, #0
 80008ae:	e7de      	b.n	800086e <__aeabi_fmul+0xb6>
 80008b0:	464b      	mov	r3, r9
 80008b2:	0c1b      	lsrs	r3, r3, #16
 80008b4:	469c      	mov	ip, r3
 80008b6:	464b      	mov	r3, r9
 80008b8:	0426      	lsls	r6, r4, #16
 80008ba:	0c36      	lsrs	r6, r6, #16
 80008bc:	0418      	lsls	r0, r3, #16
 80008be:	4661      	mov	r1, ip
 80008c0:	0033      	movs	r3, r6
 80008c2:	0c22      	lsrs	r2, r4, #16
 80008c4:	4664      	mov	r4, ip
 80008c6:	0c00      	lsrs	r0, r0, #16
 80008c8:	4343      	muls	r3, r0
 80008ca:	434e      	muls	r6, r1
 80008cc:	4350      	muls	r0, r2
 80008ce:	4354      	muls	r4, r2
 80008d0:	1980      	adds	r0, r0, r6
 80008d2:	0c1a      	lsrs	r2, r3, #16
 80008d4:	1812      	adds	r2, r2, r0
 80008d6:	4296      	cmp	r6, r2
 80008d8:	d903      	bls.n	80008e2 <__aeabi_fmul+0x12a>
 80008da:	2180      	movs	r1, #128	; 0x80
 80008dc:	0249      	lsls	r1, r1, #9
 80008de:	468c      	mov	ip, r1
 80008e0:	4464      	add	r4, ip
 80008e2:	041b      	lsls	r3, r3, #16
 80008e4:	0c1b      	lsrs	r3, r3, #16
 80008e6:	0410      	lsls	r0, r2, #16
 80008e8:	18c0      	adds	r0, r0, r3
 80008ea:	0183      	lsls	r3, r0, #6
 80008ec:	1e5e      	subs	r6, r3, #1
 80008ee:	41b3      	sbcs	r3, r6
 80008f0:	0e80      	lsrs	r0, r0, #26
 80008f2:	4318      	orrs	r0, r3
 80008f4:	0c13      	lsrs	r3, r2, #16
 80008f6:	191b      	adds	r3, r3, r4
 80008f8:	019b      	lsls	r3, r3, #6
 80008fa:	4303      	orrs	r3, r0
 80008fc:	001c      	movs	r4, r3
 80008fe:	0123      	lsls	r3, r4, #4
 8000900:	d579      	bpl.n	80009f6 <__aeabi_fmul+0x23e>
 8000902:	2301      	movs	r3, #1
 8000904:	0862      	lsrs	r2, r4, #1
 8000906:	401c      	ands	r4, r3
 8000908:	4314      	orrs	r4, r2
 800090a:	9a01      	ldr	r2, [sp, #4]
 800090c:	327f      	adds	r2, #127	; 0x7f
 800090e:	2a00      	cmp	r2, #0
 8000910:	dd4d      	ble.n	80009ae <__aeabi_fmul+0x1f6>
 8000912:	0763      	lsls	r3, r4, #29
 8000914:	d004      	beq.n	8000920 <__aeabi_fmul+0x168>
 8000916:	230f      	movs	r3, #15
 8000918:	4023      	ands	r3, r4
 800091a:	2b04      	cmp	r3, #4
 800091c:	d000      	beq.n	8000920 <__aeabi_fmul+0x168>
 800091e:	3404      	adds	r4, #4
 8000920:	0123      	lsls	r3, r4, #4
 8000922:	d503      	bpl.n	800092c <__aeabi_fmul+0x174>
 8000924:	4b3c      	ldr	r3, [pc, #240]	; (8000a18 <__aeabi_fmul+0x260>)
 8000926:	9a01      	ldr	r2, [sp, #4]
 8000928:	401c      	ands	r4, r3
 800092a:	3280      	adds	r2, #128	; 0x80
 800092c:	2afe      	cmp	r2, #254	; 0xfe
 800092e:	dcbc      	bgt.n	80008aa <__aeabi_fmul+0xf2>
 8000930:	01a3      	lsls	r3, r4, #6
 8000932:	0a5b      	lsrs	r3, r3, #9
 8000934:	b2d2      	uxtb	r2, r2
 8000936:	e79a      	b.n	800086e <__aeabi_fmul+0xb6>
 8000938:	230c      	movs	r3, #12
 800093a:	469a      	mov	sl, r3
 800093c:	3b09      	subs	r3, #9
 800093e:	25ff      	movs	r5, #255	; 0xff
 8000940:	469b      	mov	fp, r3
 8000942:	e754      	b.n	80007ee <__aeabi_fmul+0x36>
 8000944:	0018      	movs	r0, r3
 8000946:	f000 fb11 	bl	8000f6c <__clzsi2>
 800094a:	464a      	mov	r2, r9
 800094c:	1f43      	subs	r3, r0, #5
 800094e:	2576      	movs	r5, #118	; 0x76
 8000950:	409a      	lsls	r2, r3
 8000952:	2300      	movs	r3, #0
 8000954:	426d      	negs	r5, r5
 8000956:	4691      	mov	r9, r2
 8000958:	1a2d      	subs	r5, r5, r0
 800095a:	469a      	mov	sl, r3
 800095c:	469b      	mov	fp, r3
 800095e:	e746      	b.n	80007ee <__aeabi_fmul+0x36>
 8000960:	4652      	mov	r2, sl
 8000962:	2303      	movs	r3, #3
 8000964:	431a      	orrs	r2, r3
 8000966:	4692      	mov	sl, r2
 8000968:	2003      	movs	r0, #3
 800096a:	e750      	b.n	800080e <__aeabi_fmul+0x56>
 800096c:	0020      	movs	r0, r4
 800096e:	f000 fafd 	bl	8000f6c <__clzsi2>
 8000972:	1f43      	subs	r3, r0, #5
 8000974:	1a2d      	subs	r5, r5, r0
 8000976:	409c      	lsls	r4, r3
 8000978:	3d76      	subs	r5, #118	; 0x76
 800097a:	2000      	movs	r0, #0
 800097c:	e747      	b.n	800080e <__aeabi_fmul+0x56>
 800097e:	2380      	movs	r3, #128	; 0x80
 8000980:	2700      	movs	r7, #0
 8000982:	03db      	lsls	r3, r3, #15
 8000984:	22ff      	movs	r2, #255	; 0xff
 8000986:	e772      	b.n	800086e <__aeabi_fmul+0xb6>
 8000988:	4642      	mov	r2, r8
 800098a:	e766      	b.n	800085a <__aeabi_fmul+0xa2>
 800098c:	464c      	mov	r4, r9
 800098e:	0032      	movs	r2, r6
 8000990:	4658      	mov	r0, fp
 8000992:	e762      	b.n	800085a <__aeabi_fmul+0xa2>
 8000994:	2380      	movs	r3, #128	; 0x80
 8000996:	464a      	mov	r2, r9
 8000998:	03db      	lsls	r3, r3, #15
 800099a:	421a      	tst	r2, r3
 800099c:	d022      	beq.n	80009e4 <__aeabi_fmul+0x22c>
 800099e:	421c      	tst	r4, r3
 80009a0:	d120      	bne.n	80009e4 <__aeabi_fmul+0x22c>
 80009a2:	4323      	orrs	r3, r4
 80009a4:	025b      	lsls	r3, r3, #9
 80009a6:	0a5b      	lsrs	r3, r3, #9
 80009a8:	4647      	mov	r7, r8
 80009aa:	22ff      	movs	r2, #255	; 0xff
 80009ac:	e75f      	b.n	800086e <__aeabi_fmul+0xb6>
 80009ae:	2301      	movs	r3, #1
 80009b0:	1a9a      	subs	r2, r3, r2
 80009b2:	2a1b      	cmp	r2, #27
 80009b4:	dc21      	bgt.n	80009fa <__aeabi_fmul+0x242>
 80009b6:	0023      	movs	r3, r4
 80009b8:	9901      	ldr	r1, [sp, #4]
 80009ba:	40d3      	lsrs	r3, r2
 80009bc:	319e      	adds	r1, #158	; 0x9e
 80009be:	408c      	lsls	r4, r1
 80009c0:	001a      	movs	r2, r3
 80009c2:	0023      	movs	r3, r4
 80009c4:	1e5c      	subs	r4, r3, #1
 80009c6:	41a3      	sbcs	r3, r4
 80009c8:	4313      	orrs	r3, r2
 80009ca:	075a      	lsls	r2, r3, #29
 80009cc:	d004      	beq.n	80009d8 <__aeabi_fmul+0x220>
 80009ce:	220f      	movs	r2, #15
 80009d0:	401a      	ands	r2, r3
 80009d2:	2a04      	cmp	r2, #4
 80009d4:	d000      	beq.n	80009d8 <__aeabi_fmul+0x220>
 80009d6:	3304      	adds	r3, #4
 80009d8:	015a      	lsls	r2, r3, #5
 80009da:	d411      	bmi.n	8000a00 <__aeabi_fmul+0x248>
 80009dc:	019b      	lsls	r3, r3, #6
 80009de:	0a5b      	lsrs	r3, r3, #9
 80009e0:	2200      	movs	r2, #0
 80009e2:	e744      	b.n	800086e <__aeabi_fmul+0xb6>
 80009e4:	2380      	movs	r3, #128	; 0x80
 80009e6:	464a      	mov	r2, r9
 80009e8:	03db      	lsls	r3, r3, #15
 80009ea:	4313      	orrs	r3, r2
 80009ec:	025b      	lsls	r3, r3, #9
 80009ee:	0a5b      	lsrs	r3, r3, #9
 80009f0:	0037      	movs	r7, r6
 80009f2:	22ff      	movs	r2, #255	; 0xff
 80009f4:	e73b      	b.n	800086e <__aeabi_fmul+0xb6>
 80009f6:	9501      	str	r5, [sp, #4]
 80009f8:	e787      	b.n	800090a <__aeabi_fmul+0x152>
 80009fa:	2200      	movs	r2, #0
 80009fc:	2300      	movs	r3, #0
 80009fe:	e736      	b.n	800086e <__aeabi_fmul+0xb6>
 8000a00:	2201      	movs	r2, #1
 8000a02:	2300      	movs	r3, #0
 8000a04:	e733      	b.n	800086e <__aeabi_fmul+0xb6>
 8000a06:	2380      	movs	r3, #128	; 0x80
 8000a08:	03db      	lsls	r3, r3, #15
 8000a0a:	4323      	orrs	r3, r4
 8000a0c:	025b      	lsls	r3, r3, #9
 8000a0e:	0a5b      	lsrs	r3, r3, #9
 8000a10:	22ff      	movs	r2, #255	; 0xff
 8000a12:	e72c      	b.n	800086e <__aeabi_fmul+0xb6>
 8000a14:	08007704 	.word	0x08007704
 8000a18:	f7ffffff 	.word	0xf7ffffff

08000a1c <__aeabi_fsub>:
 8000a1c:	b5f8      	push	{r3, r4, r5, r6, r7, lr}
 8000a1e:	4647      	mov	r7, r8
 8000a20:	46ce      	mov	lr, r9
 8000a22:	0044      	lsls	r4, r0, #1
 8000a24:	0fc2      	lsrs	r2, r0, #31
 8000a26:	b580      	push	{r7, lr}
 8000a28:	0247      	lsls	r7, r0, #9
 8000a2a:	0248      	lsls	r0, r1, #9
 8000a2c:	0a40      	lsrs	r0, r0, #9
 8000a2e:	4684      	mov	ip, r0
 8000a30:	4666      	mov	r6, ip
 8000a32:	0048      	lsls	r0, r1, #1
 8000a34:	0a7f      	lsrs	r7, r7, #9
 8000a36:	0e24      	lsrs	r4, r4, #24
 8000a38:	00f6      	lsls	r6, r6, #3
 8000a3a:	0025      	movs	r5, r4
 8000a3c:	4690      	mov	r8, r2
 8000a3e:	00fb      	lsls	r3, r7, #3
 8000a40:	0e00      	lsrs	r0, r0, #24
 8000a42:	0fc9      	lsrs	r1, r1, #31
 8000a44:	46b1      	mov	r9, r6
 8000a46:	28ff      	cmp	r0, #255	; 0xff
 8000a48:	d100      	bne.n	8000a4c <__aeabi_fsub+0x30>
 8000a4a:	e085      	b.n	8000b58 <__aeabi_fsub+0x13c>
 8000a4c:	2601      	movs	r6, #1
 8000a4e:	4071      	eors	r1, r6
 8000a50:	1a26      	subs	r6, r4, r0
 8000a52:	4291      	cmp	r1, r2
 8000a54:	d057      	beq.n	8000b06 <__aeabi_fsub+0xea>
 8000a56:	2e00      	cmp	r6, #0
 8000a58:	dd43      	ble.n	8000ae2 <__aeabi_fsub+0xc6>
 8000a5a:	2800      	cmp	r0, #0
 8000a5c:	d000      	beq.n	8000a60 <__aeabi_fsub+0x44>
 8000a5e:	e07f      	b.n	8000b60 <__aeabi_fsub+0x144>
 8000a60:	4649      	mov	r1, r9
 8000a62:	2900      	cmp	r1, #0
 8000a64:	d100      	bne.n	8000a68 <__aeabi_fsub+0x4c>
 8000a66:	e0aa      	b.n	8000bbe <__aeabi_fsub+0x1a2>
 8000a68:	3e01      	subs	r6, #1
 8000a6a:	2e00      	cmp	r6, #0
 8000a6c:	d000      	beq.n	8000a70 <__aeabi_fsub+0x54>
 8000a6e:	e0f7      	b.n	8000c60 <__aeabi_fsub+0x244>
 8000a70:	1a5b      	subs	r3, r3, r1
 8000a72:	015a      	lsls	r2, r3, #5
 8000a74:	d400      	bmi.n	8000a78 <__aeabi_fsub+0x5c>
 8000a76:	e08b      	b.n	8000b90 <__aeabi_fsub+0x174>
 8000a78:	019b      	lsls	r3, r3, #6
 8000a7a:	099c      	lsrs	r4, r3, #6
 8000a7c:	0020      	movs	r0, r4
 8000a7e:	f000 fa75 	bl	8000f6c <__clzsi2>
 8000a82:	3805      	subs	r0, #5
 8000a84:	4084      	lsls	r4, r0
 8000a86:	4285      	cmp	r5, r0
 8000a88:	dd00      	ble.n	8000a8c <__aeabi_fsub+0x70>
 8000a8a:	e0d3      	b.n	8000c34 <__aeabi_fsub+0x218>
 8000a8c:	1b45      	subs	r5, r0, r5
 8000a8e:	0023      	movs	r3, r4
 8000a90:	2020      	movs	r0, #32
 8000a92:	3501      	adds	r5, #1
 8000a94:	40eb      	lsrs	r3, r5
 8000a96:	1b45      	subs	r5, r0, r5
 8000a98:	40ac      	lsls	r4, r5
 8000a9a:	1e62      	subs	r2, r4, #1
 8000a9c:	4194      	sbcs	r4, r2
 8000a9e:	4323      	orrs	r3, r4
 8000aa0:	2407      	movs	r4, #7
 8000aa2:	2500      	movs	r5, #0
 8000aa4:	401c      	ands	r4, r3
 8000aa6:	2201      	movs	r2, #1
 8000aa8:	4641      	mov	r1, r8
 8000aaa:	400a      	ands	r2, r1
 8000aac:	2c00      	cmp	r4, #0
 8000aae:	d004      	beq.n	8000aba <__aeabi_fsub+0x9e>
 8000ab0:	210f      	movs	r1, #15
 8000ab2:	4019      	ands	r1, r3
 8000ab4:	2904      	cmp	r1, #4
 8000ab6:	d000      	beq.n	8000aba <__aeabi_fsub+0x9e>
 8000ab8:	3304      	adds	r3, #4
 8000aba:	0159      	lsls	r1, r3, #5
 8000abc:	d400      	bmi.n	8000ac0 <__aeabi_fsub+0xa4>
 8000abe:	e080      	b.n	8000bc2 <__aeabi_fsub+0x1a6>
 8000ac0:	3501      	adds	r5, #1
 8000ac2:	b2ec      	uxtb	r4, r5
 8000ac4:	2dff      	cmp	r5, #255	; 0xff
 8000ac6:	d000      	beq.n	8000aca <__aeabi_fsub+0xae>
 8000ac8:	e0a3      	b.n	8000c12 <__aeabi_fsub+0x1f6>
 8000aca:	24ff      	movs	r4, #255	; 0xff
 8000acc:	2300      	movs	r3, #0
 8000ace:	025b      	lsls	r3, r3, #9
 8000ad0:	05e4      	lsls	r4, r4, #23
 8000ad2:	0a58      	lsrs	r0, r3, #9
 8000ad4:	07d2      	lsls	r2, r2, #31
 8000ad6:	4320      	orrs	r0, r4
 8000ad8:	4310      	orrs	r0, r2
 8000ada:	bc0c      	pop	{r2, r3}
 8000adc:	4690      	mov	r8, r2
 8000ade:	4699      	mov	r9, r3
 8000ae0:	bdf8      	pop	{r3, r4, r5, r6, r7, pc}
 8000ae2:	2e00      	cmp	r6, #0
 8000ae4:	d174      	bne.n	8000bd0 <__aeabi_fsub+0x1b4>
 8000ae6:	1c60      	adds	r0, r4, #1
 8000ae8:	b2c0      	uxtb	r0, r0
 8000aea:	2801      	cmp	r0, #1
 8000aec:	dc00      	bgt.n	8000af0 <__aeabi_fsub+0xd4>
 8000aee:	e0a7      	b.n	8000c40 <__aeabi_fsub+0x224>
 8000af0:	464a      	mov	r2, r9
 8000af2:	1a9c      	subs	r4, r3, r2
 8000af4:	0162      	lsls	r2, r4, #5
 8000af6:	d500      	bpl.n	8000afa <__aeabi_fsub+0xde>
 8000af8:	e0b6      	b.n	8000c68 <__aeabi_fsub+0x24c>
 8000afa:	2c00      	cmp	r4, #0
 8000afc:	d1be      	bne.n	8000a7c <__aeabi_fsub+0x60>
 8000afe:	2200      	movs	r2, #0
 8000b00:	2400      	movs	r4, #0
 8000b02:	2300      	movs	r3, #0
 8000b04:	e7e3      	b.n	8000ace <__aeabi_fsub+0xb2>
 8000b06:	2e00      	cmp	r6, #0
 8000b08:	dc00      	bgt.n	8000b0c <__aeabi_fsub+0xf0>
 8000b0a:	e085      	b.n	8000c18 <__aeabi_fsub+0x1fc>
 8000b0c:	2800      	cmp	r0, #0
 8000b0e:	d046      	beq.n	8000b9e <__aeabi_fsub+0x182>
 8000b10:	2cff      	cmp	r4, #255	; 0xff
 8000b12:	d049      	beq.n	8000ba8 <__aeabi_fsub+0x18c>
 8000b14:	2280      	movs	r2, #128	; 0x80
 8000b16:	4648      	mov	r0, r9
 8000b18:	04d2      	lsls	r2, r2, #19
 8000b1a:	4310      	orrs	r0, r2
 8000b1c:	4681      	mov	r9, r0
 8000b1e:	2201      	movs	r2, #1
 8000b20:	2e1b      	cmp	r6, #27
 8000b22:	dc09      	bgt.n	8000b38 <__aeabi_fsub+0x11c>
 8000b24:	2020      	movs	r0, #32
 8000b26:	464c      	mov	r4, r9
 8000b28:	1b80      	subs	r0, r0, r6
 8000b2a:	4084      	lsls	r4, r0
 8000b2c:	464a      	mov	r2, r9
 8000b2e:	0020      	movs	r0, r4
 8000b30:	40f2      	lsrs	r2, r6
 8000b32:	1e44      	subs	r4, r0, #1
 8000b34:	41a0      	sbcs	r0, r4
 8000b36:	4302      	orrs	r2, r0
 8000b38:	189b      	adds	r3, r3, r2
 8000b3a:	015a      	lsls	r2, r3, #5
 8000b3c:	d528      	bpl.n	8000b90 <__aeabi_fsub+0x174>
 8000b3e:	3501      	adds	r5, #1
 8000b40:	2dff      	cmp	r5, #255	; 0xff
 8000b42:	d100      	bne.n	8000b46 <__aeabi_fsub+0x12a>
 8000b44:	e0a8      	b.n	8000c98 <__aeabi_fsub+0x27c>
 8000b46:	2201      	movs	r2, #1
 8000b48:	2407      	movs	r4, #7
 8000b4a:	4994      	ldr	r1, [pc, #592]	; (8000d9c <__aeabi_fsub+0x380>)
 8000b4c:	401a      	ands	r2, r3
 8000b4e:	085b      	lsrs	r3, r3, #1
 8000b50:	400b      	ands	r3, r1
 8000b52:	4313      	orrs	r3, r2
 8000b54:	401c      	ands	r4, r3
 8000b56:	e7a6      	b.n	8000aa6 <__aeabi_fsub+0x8a>
 8000b58:	2e00      	cmp	r6, #0
 8000b5a:	d000      	beq.n	8000b5e <__aeabi_fsub+0x142>
 8000b5c:	e778      	b.n	8000a50 <__aeabi_fsub+0x34>
 8000b5e:	e775      	b.n	8000a4c <__aeabi_fsub+0x30>
 8000b60:	2cff      	cmp	r4, #255	; 0xff
 8000b62:	d054      	beq.n	8000c0e <__aeabi_fsub+0x1f2>
 8000b64:	2280      	movs	r2, #128	; 0x80
 8000b66:	4649      	mov	r1, r9
 8000b68:	04d2      	lsls	r2, r2, #19
 8000b6a:	4311      	orrs	r1, r2
 8000b6c:	4689      	mov	r9, r1
 8000b6e:	2201      	movs	r2, #1
 8000b70:	2e1b      	cmp	r6, #27
 8000b72:	dc09      	bgt.n	8000b88 <__aeabi_fsub+0x16c>
 8000b74:	2120      	movs	r1, #32
 8000b76:	4648      	mov	r0, r9
 8000b78:	1b89      	subs	r1, r1, r6
 8000b7a:	4088      	lsls	r0, r1
 8000b7c:	464a      	mov	r2, r9
 8000b7e:	0001      	movs	r1, r0
 8000b80:	40f2      	lsrs	r2, r6
 8000b82:	1e48      	subs	r0, r1, #1
 8000b84:	4181      	sbcs	r1, r0
 8000b86:	430a      	orrs	r2, r1
 8000b88:	1a9b      	subs	r3, r3, r2
 8000b8a:	015a      	lsls	r2, r3, #5
 8000b8c:	d500      	bpl.n	8000b90 <__aeabi_fsub+0x174>
 8000b8e:	e773      	b.n	8000a78 <__aeabi_fsub+0x5c>
 8000b90:	2201      	movs	r2, #1
 8000b92:	4641      	mov	r1, r8
 8000b94:	400a      	ands	r2, r1
 8000b96:	0759      	lsls	r1, r3, #29
 8000b98:	d000      	beq.n	8000b9c <__aeabi_fsub+0x180>
 8000b9a:	e789      	b.n	8000ab0 <__aeabi_fsub+0x94>
 8000b9c:	e011      	b.n	8000bc2 <__aeabi_fsub+0x1a6>
 8000b9e:	4648      	mov	r0, r9
 8000ba0:	2800      	cmp	r0, #0
 8000ba2:	d158      	bne.n	8000c56 <__aeabi_fsub+0x23a>
 8000ba4:	2cff      	cmp	r4, #255	; 0xff
 8000ba6:	d10c      	bne.n	8000bc2 <__aeabi_fsub+0x1a6>
 8000ba8:	08db      	lsrs	r3, r3, #3
 8000baa:	2b00      	cmp	r3, #0
 8000bac:	d100      	bne.n	8000bb0 <__aeabi_fsub+0x194>
 8000bae:	e78c      	b.n	8000aca <__aeabi_fsub+0xae>
 8000bb0:	2080      	movs	r0, #128	; 0x80
 8000bb2:	03c0      	lsls	r0, r0, #15
 8000bb4:	4303      	orrs	r3, r0
 8000bb6:	025b      	lsls	r3, r3, #9
 8000bb8:	0a5b      	lsrs	r3, r3, #9
 8000bba:	24ff      	movs	r4, #255	; 0xff
 8000bbc:	e787      	b.n	8000ace <__aeabi_fsub+0xb2>
 8000bbe:	2cff      	cmp	r4, #255	; 0xff
 8000bc0:	d025      	beq.n	8000c0e <__aeabi_fsub+0x1f2>
 8000bc2:	08db      	lsrs	r3, r3, #3
 8000bc4:	2dff      	cmp	r5, #255	; 0xff
 8000bc6:	d0f0      	beq.n	8000baa <__aeabi_fsub+0x18e>
 8000bc8:	025b      	lsls	r3, r3, #9
 8000bca:	0a5b      	lsrs	r3, r3, #9
 8000bcc:	b2ec      	uxtb	r4, r5
 8000bce:	e77e      	b.n	8000ace <__aeabi_fsub+0xb2>
 8000bd0:	2c00      	cmp	r4, #0
 8000bd2:	d04d      	beq.n	8000c70 <__aeabi_fsub+0x254>
 8000bd4:	28ff      	cmp	r0, #255	; 0xff
 8000bd6:	d018      	beq.n	8000c0a <__aeabi_fsub+0x1ee>
 8000bd8:	2480      	movs	r4, #128	; 0x80
 8000bda:	04e4      	lsls	r4, r4, #19
 8000bdc:	4272      	negs	r2, r6
 8000bde:	4323      	orrs	r3, r4
 8000be0:	2a1b      	cmp	r2, #27
 8000be2:	dd00      	ble.n	8000be6 <__aeabi_fsub+0x1ca>
 8000be4:	e0c4      	b.n	8000d70 <__aeabi_fsub+0x354>
 8000be6:	001c      	movs	r4, r3
 8000be8:	2520      	movs	r5, #32
 8000bea:	40d4      	lsrs	r4, r2
 8000bec:	1aaa      	subs	r2, r5, r2
 8000bee:	4093      	lsls	r3, r2
 8000bf0:	1e5a      	subs	r2, r3, #1
 8000bf2:	4193      	sbcs	r3, r2
 8000bf4:	4323      	orrs	r3, r4
 8000bf6:	464a      	mov	r2, r9
 8000bf8:	0005      	movs	r5, r0
 8000bfa:	1ad3      	subs	r3, r2, r3
 8000bfc:	4688      	mov	r8, r1
 8000bfe:	e738      	b.n	8000a72 <__aeabi_fsub+0x56>
 8000c00:	1c72      	adds	r2, r6, #1
 8000c02:	d0f8      	beq.n	8000bf6 <__aeabi_fsub+0x1da>
 8000c04:	43f2      	mvns	r2, r6
 8000c06:	28ff      	cmp	r0, #255	; 0xff
 8000c08:	d1ea      	bne.n	8000be0 <__aeabi_fsub+0x1c4>
 8000c0a:	000a      	movs	r2, r1
 8000c0c:	464b      	mov	r3, r9
 8000c0e:	25ff      	movs	r5, #255	; 0xff
 8000c10:	e7d7      	b.n	8000bc2 <__aeabi_fsub+0x1a6>
 8000c12:	019b      	lsls	r3, r3, #6
 8000c14:	0a5b      	lsrs	r3, r3, #9
 8000c16:	e75a      	b.n	8000ace <__aeabi_fsub+0xb2>
 8000c18:	2e00      	cmp	r6, #0
 8000c1a:	d141      	bne.n	8000ca0 <__aeabi_fsub+0x284>
 8000c1c:	1c65      	adds	r5, r4, #1
 8000c1e:	b2e9      	uxtb	r1, r5
 8000c20:	2901      	cmp	r1, #1
 8000c22:	dd45      	ble.n	8000cb0 <__aeabi_fsub+0x294>
 8000c24:	2dff      	cmp	r5, #255	; 0xff
 8000c26:	d100      	bne.n	8000c2a <__aeabi_fsub+0x20e>
 8000c28:	e74f      	b.n	8000aca <__aeabi_fsub+0xae>
 8000c2a:	2407      	movs	r4, #7
 8000c2c:	444b      	add	r3, r9
 8000c2e:	085b      	lsrs	r3, r3, #1
 8000c30:	401c      	ands	r4, r3
 8000c32:	e738      	b.n	8000aa6 <__aeabi_fsub+0x8a>
 8000c34:	2207      	movs	r2, #7
 8000c36:	4b5a      	ldr	r3, [pc, #360]	; (8000da0 <__aeabi_fsub+0x384>)
 8000c38:	1a2d      	subs	r5, r5, r0
 8000c3a:	4023      	ands	r3, r4
 8000c3c:	4014      	ands	r4, r2
 8000c3e:	e732      	b.n	8000aa6 <__aeabi_fsub+0x8a>
 8000c40:	2c00      	cmp	r4, #0
 8000c42:	d11d      	bne.n	8000c80 <__aeabi_fsub+0x264>
 8000c44:	2b00      	cmp	r3, #0
 8000c46:	d17a      	bne.n	8000d3e <__aeabi_fsub+0x322>
 8000c48:	464b      	mov	r3, r9
 8000c4a:	2b00      	cmp	r3, #0
 8000c4c:	d100      	bne.n	8000c50 <__aeabi_fsub+0x234>
 8000c4e:	e091      	b.n	8000d74 <__aeabi_fsub+0x358>
 8000c50:	000a      	movs	r2, r1
 8000c52:	2500      	movs	r5, #0
 8000c54:	e7b5      	b.n	8000bc2 <__aeabi_fsub+0x1a6>
 8000c56:	3e01      	subs	r6, #1
 8000c58:	2e00      	cmp	r6, #0
 8000c5a:	d119      	bne.n	8000c90 <__aeabi_fsub+0x274>
 8000c5c:	444b      	add	r3, r9
 8000c5e:	e76c      	b.n	8000b3a <__aeabi_fsub+0x11e>
 8000c60:	2cff      	cmp	r4, #255	; 0xff
 8000c62:	d184      	bne.n	8000b6e <__aeabi_fsub+0x152>
 8000c64:	25ff      	movs	r5, #255	; 0xff
 8000c66:	e7ac      	b.n	8000bc2 <__aeabi_fsub+0x1a6>
 8000c68:	464a      	mov	r2, r9
 8000c6a:	4688      	mov	r8, r1
 8000c6c:	1ad4      	subs	r4, r2, r3
 8000c6e:	e705      	b.n	8000a7c <__aeabi_fsub+0x60>
 8000c70:	2b00      	cmp	r3, #0
 8000c72:	d1c5      	bne.n	8000c00 <__aeabi_fsub+0x1e4>
 8000c74:	000a      	movs	r2, r1
 8000c76:	28ff      	cmp	r0, #255	; 0xff
 8000c78:	d0c8      	beq.n	8000c0c <__aeabi_fsub+0x1f0>
 8000c7a:	0005      	movs	r5, r0
 8000c7c:	464b      	mov	r3, r9
 8000c7e:	e7a0      	b.n	8000bc2 <__aeabi_fsub+0x1a6>
 8000c80:	2b00      	cmp	r3, #0
 8000c82:	d149      	bne.n	8000d18 <__aeabi_fsub+0x2fc>
 8000c84:	464b      	mov	r3, r9
 8000c86:	2b00      	cmp	r3, #0
 8000c88:	d077      	beq.n	8000d7a <__aeabi_fsub+0x35e>
 8000c8a:	000a      	movs	r2, r1
 8000c8c:	25ff      	movs	r5, #255	; 0xff
 8000c8e:	e798      	b.n	8000bc2 <__aeabi_fsub+0x1a6>
 8000c90:	2cff      	cmp	r4, #255	; 0xff
 8000c92:	d000      	beq.n	8000c96 <__aeabi_fsub+0x27a>
 8000c94:	e743      	b.n	8000b1e <__aeabi_fsub+0x102>
 8000c96:	e787      	b.n	8000ba8 <__aeabi_fsub+0x18c>
 8000c98:	000a      	movs	r2, r1
 8000c9a:	24ff      	movs	r4, #255	; 0xff
 8000c9c:	2300      	movs	r3, #0
 8000c9e:	e716      	b.n	8000ace <__aeabi_fsub+0xb2>
 8000ca0:	2c00      	cmp	r4, #0
 8000ca2:	d115      	bne.n	8000cd0 <__aeabi_fsub+0x2b4>
 8000ca4:	2b00      	cmp	r3, #0
 8000ca6:	d157      	bne.n	8000d58 <__aeabi_fsub+0x33c>
 8000ca8:	28ff      	cmp	r0, #255	; 0xff
 8000caa:	d1e6      	bne.n	8000c7a <__aeabi_fsub+0x25e>
 8000cac:	464b      	mov	r3, r9
 8000cae:	e77b      	b.n	8000ba8 <__aeabi_fsub+0x18c>
 8000cb0:	2c00      	cmp	r4, #0
 8000cb2:	d120      	bne.n	8000cf6 <__aeabi_fsub+0x2da>
 8000cb4:	2b00      	cmp	r3, #0
 8000cb6:	d057      	beq.n	8000d68 <__aeabi_fsub+0x34c>
 8000cb8:	4649      	mov	r1, r9
 8000cba:	2900      	cmp	r1, #0
 8000cbc:	d053      	beq.n	8000d66 <__aeabi_fsub+0x34a>
 8000cbe:	444b      	add	r3, r9
 8000cc0:	015a      	lsls	r2, r3, #5
 8000cc2:	d568      	bpl.n	8000d96 <__aeabi_fsub+0x37a>
 8000cc4:	2407      	movs	r4, #7
 8000cc6:	4a36      	ldr	r2, [pc, #216]	; (8000da0 <__aeabi_fsub+0x384>)
 8000cc8:	401c      	ands	r4, r3
 8000cca:	2501      	movs	r5, #1
 8000ccc:	4013      	ands	r3, r2
 8000cce:	e6ea      	b.n	8000aa6 <__aeabi_fsub+0x8a>
 8000cd0:	28ff      	cmp	r0, #255	; 0xff
 8000cd2:	d0eb      	beq.n	8000cac <__aeabi_fsub+0x290>
 8000cd4:	2280      	movs	r2, #128	; 0x80
 8000cd6:	04d2      	lsls	r2, r2, #19
 8000cd8:	4276      	negs	r6, r6
 8000cda:	4313      	orrs	r3, r2
 8000cdc:	2e1b      	cmp	r6, #27
 8000cde:	dc53      	bgt.n	8000d88 <__aeabi_fsub+0x36c>
 8000ce0:	2520      	movs	r5, #32
 8000ce2:	1bad      	subs	r5, r5, r6
 8000ce4:	001a      	movs	r2, r3
 8000ce6:	40ab      	lsls	r3, r5
 8000ce8:	40f2      	lsrs	r2, r6
 8000cea:	1e5c      	subs	r4, r3, #1
 8000cec:	41a3      	sbcs	r3, r4
 8000cee:	4313      	orrs	r3, r2
 8000cf0:	444b      	add	r3, r9
 8000cf2:	0005      	movs	r5, r0
 8000cf4:	e721      	b.n	8000b3a <__aeabi_fsub+0x11e>
 8000cf6:	2b00      	cmp	r3, #0
 8000cf8:	d0d8      	beq.n	8000cac <__aeabi_fsub+0x290>
 8000cfa:	4649      	mov	r1, r9
 8000cfc:	2900      	cmp	r1, #0
 8000cfe:	d100      	bne.n	8000d02 <__aeabi_fsub+0x2e6>
 8000d00:	e752      	b.n	8000ba8 <__aeabi_fsub+0x18c>
 8000d02:	2180      	movs	r1, #128	; 0x80
 8000d04:	03c9      	lsls	r1, r1, #15
 8000d06:	420f      	tst	r7, r1
 8000d08:	d100      	bne.n	8000d0c <__aeabi_fsub+0x2f0>
 8000d0a:	e74d      	b.n	8000ba8 <__aeabi_fsub+0x18c>
 8000d0c:	4660      	mov	r0, ip
 8000d0e:	4208      	tst	r0, r1
 8000d10:	d000      	beq.n	8000d14 <__aeabi_fsub+0x2f8>
 8000d12:	e749      	b.n	8000ba8 <__aeabi_fsub+0x18c>
 8000d14:	464b      	mov	r3, r9
 8000d16:	e747      	b.n	8000ba8 <__aeabi_fsub+0x18c>
 8000d18:	4648      	mov	r0, r9
 8000d1a:	25ff      	movs	r5, #255	; 0xff
 8000d1c:	2800      	cmp	r0, #0
 8000d1e:	d100      	bne.n	8000d22 <__aeabi_fsub+0x306>
 8000d20:	e74f      	b.n	8000bc2 <__aeabi_fsub+0x1a6>
 8000d22:	2280      	movs	r2, #128	; 0x80
 8000d24:	03d2      	lsls	r2, r2, #15
 8000d26:	4217      	tst	r7, r2
 8000d28:	d004      	beq.n	8000d34 <__aeabi_fsub+0x318>
 8000d2a:	4660      	mov	r0, ip
 8000d2c:	4210      	tst	r0, r2
 8000d2e:	d101      	bne.n	8000d34 <__aeabi_fsub+0x318>
 8000d30:	464b      	mov	r3, r9
 8000d32:	4688      	mov	r8, r1
 8000d34:	2201      	movs	r2, #1
 8000d36:	4641      	mov	r1, r8
 8000d38:	25ff      	movs	r5, #255	; 0xff
 8000d3a:	400a      	ands	r2, r1
 8000d3c:	e741      	b.n	8000bc2 <__aeabi_fsub+0x1a6>
 8000d3e:	4648      	mov	r0, r9
 8000d40:	2800      	cmp	r0, #0
 8000d42:	d01f      	beq.n	8000d84 <__aeabi_fsub+0x368>
 8000d44:	1a1a      	subs	r2, r3, r0
 8000d46:	0150      	lsls	r0, r2, #5
 8000d48:	d520      	bpl.n	8000d8c <__aeabi_fsub+0x370>
 8000d4a:	464a      	mov	r2, r9
 8000d4c:	2407      	movs	r4, #7
 8000d4e:	1ad3      	subs	r3, r2, r3
 8000d50:	401c      	ands	r4, r3
 8000d52:	4688      	mov	r8, r1
 8000d54:	2500      	movs	r5, #0
 8000d56:	e6a6      	b.n	8000aa6 <__aeabi_fsub+0x8a>
 8000d58:	1c74      	adds	r4, r6, #1
 8000d5a:	d0c9      	beq.n	8000cf0 <__aeabi_fsub+0x2d4>
 8000d5c:	43f6      	mvns	r6, r6
 8000d5e:	28ff      	cmp	r0, #255	; 0xff
 8000d60:	d1bc      	bne.n	8000cdc <__aeabi_fsub+0x2c0>
 8000d62:	464b      	mov	r3, r9
 8000d64:	e720      	b.n	8000ba8 <__aeabi_fsub+0x18c>
 8000d66:	4699      	mov	r9, r3
 8000d68:	464b      	mov	r3, r9
 8000d6a:	2500      	movs	r5, #0
 8000d6c:	08db      	lsrs	r3, r3, #3
 8000d6e:	e72b      	b.n	8000bc8 <__aeabi_fsub+0x1ac>
 8000d70:	2301      	movs	r3, #1
 8000d72:	e740      	b.n	8000bf6 <__aeabi_fsub+0x1da>
 8000d74:	2200      	movs	r2, #0
 8000d76:	2300      	movs	r3, #0
 8000d78:	e6a9      	b.n	8000ace <__aeabi_fsub+0xb2>
 8000d7a:	2380      	movs	r3, #128	; 0x80
 8000d7c:	2200      	movs	r2, #0
 8000d7e:	03db      	lsls	r3, r3, #15
 8000d80:	24ff      	movs	r4, #255	; 0xff
 8000d82:	e6a4      	b.n	8000ace <__aeabi_fsub+0xb2>
 8000d84:	2500      	movs	r5, #0
 8000d86:	e71c      	b.n	8000bc2 <__aeabi_fsub+0x1a6>
 8000d88:	2301      	movs	r3, #1
 8000d8a:	e7b1      	b.n	8000cf0 <__aeabi_fsub+0x2d4>
 8000d8c:	2a00      	cmp	r2, #0
 8000d8e:	d0f1      	beq.n	8000d74 <__aeabi_fsub+0x358>
 8000d90:	0013      	movs	r3, r2
 8000d92:	2500      	movs	r5, #0
 8000d94:	e6fc      	b.n	8000b90 <__aeabi_fsub+0x174>
 8000d96:	2500      	movs	r5, #0
 8000d98:	e6fa      	b.n	8000b90 <__aeabi_fsub+0x174>
 8000d9a:	46c0      	nop			; (mov r8, r8)
 8000d9c:	7dffffff 	.word	0x7dffffff
 8000da0:	fbffffff 	.word	0xfbffffff

08000da4 <__aeabi_f2iz>:
 8000da4:	0241      	lsls	r1, r0, #9
 8000da6:	0042      	lsls	r2, r0, #1
 8000da8:	0fc3      	lsrs	r3, r0, #31
 8000daa:	0a49      	lsrs	r1, r1, #9
 8000dac:	0e12      	lsrs	r2, r2, #24
 8000dae:	2000      	movs	r0, #0
 8000db0:	2a7e      	cmp	r2, #126	; 0x7e
 8000db2:	d90d      	bls.n	8000dd0 <__aeabi_f2iz+0x2c>
 8000db4:	2a9d      	cmp	r2, #157	; 0x9d
 8000db6:	d80c      	bhi.n	8000dd2 <__aeabi_f2iz+0x2e>
 8000db8:	2080      	movs	r0, #128	; 0x80
 8000dba:	0400      	lsls	r0, r0, #16
 8000dbc:	4301      	orrs	r1, r0
 8000dbe:	2a95      	cmp	r2, #149	; 0x95
 8000dc0:	dc0a      	bgt.n	8000dd8 <__aeabi_f2iz+0x34>
 8000dc2:	2096      	movs	r0, #150	; 0x96
 8000dc4:	1a82      	subs	r2, r0, r2
 8000dc6:	40d1      	lsrs	r1, r2
 8000dc8:	4248      	negs	r0, r1
 8000dca:	2b00      	cmp	r3, #0
 8000dcc:	d100      	bne.n	8000dd0 <__aeabi_f2iz+0x2c>
 8000dce:	0008      	movs	r0, r1
 8000dd0:	4770      	bx	lr
 8000dd2:	4a03      	ldr	r2, [pc, #12]	; (8000de0 <__aeabi_f2iz+0x3c>)
 8000dd4:	1898      	adds	r0, r3, r2
 8000dd6:	e7fb      	b.n	8000dd0 <__aeabi_f2iz+0x2c>
 8000dd8:	3a96      	subs	r2, #150	; 0x96
 8000dda:	4091      	lsls	r1, r2
 8000ddc:	e7f4      	b.n	8000dc8 <__aeabi_f2iz+0x24>
 8000dde:	46c0      	nop			; (mov r8, r8)
 8000de0:	7fffffff 	.word	0x7fffffff

08000de4 <__aeabi_i2f>:
 8000de4:	b570      	push	{r4, r5, r6, lr}
 8000de6:	2800      	cmp	r0, #0
 8000de8:	d03d      	beq.n	8000e66 <__aeabi_i2f+0x82>
 8000dea:	17c3      	asrs	r3, r0, #31
 8000dec:	18c5      	adds	r5, r0, r3
 8000dee:	405d      	eors	r5, r3
 8000df0:	0fc4      	lsrs	r4, r0, #31
 8000df2:	0028      	movs	r0, r5
 8000df4:	f000 f8ba 	bl	8000f6c <__clzsi2>
 8000df8:	229e      	movs	r2, #158	; 0x9e
 8000dfa:	1a12      	subs	r2, r2, r0
 8000dfc:	2a96      	cmp	r2, #150	; 0x96
 8000dfe:	dc07      	bgt.n	8000e10 <__aeabi_i2f+0x2c>
 8000e00:	b2d2      	uxtb	r2, r2
 8000e02:	2808      	cmp	r0, #8
 8000e04:	dd33      	ble.n	8000e6e <__aeabi_i2f+0x8a>
 8000e06:	3808      	subs	r0, #8
 8000e08:	4085      	lsls	r5, r0
 8000e0a:	0268      	lsls	r0, r5, #9
 8000e0c:	0a40      	lsrs	r0, r0, #9
 8000e0e:	e023      	b.n	8000e58 <__aeabi_i2f+0x74>
 8000e10:	2a99      	cmp	r2, #153	; 0x99
 8000e12:	dd0b      	ble.n	8000e2c <__aeabi_i2f+0x48>
 8000e14:	2305      	movs	r3, #5
 8000e16:	0029      	movs	r1, r5
 8000e18:	1a1b      	subs	r3, r3, r0
 8000e1a:	40d9      	lsrs	r1, r3
 8000e1c:	0003      	movs	r3, r0
 8000e1e:	331b      	adds	r3, #27
 8000e20:	409d      	lsls	r5, r3
 8000e22:	002b      	movs	r3, r5
 8000e24:	1e5d      	subs	r5, r3, #1
 8000e26:	41ab      	sbcs	r3, r5
 8000e28:	4319      	orrs	r1, r3
 8000e2a:	000d      	movs	r5, r1
 8000e2c:	2805      	cmp	r0, #5
 8000e2e:	dd01      	ble.n	8000e34 <__aeabi_i2f+0x50>
 8000e30:	1f43      	subs	r3, r0, #5
 8000e32:	409d      	lsls	r5, r3
 8000e34:	002b      	movs	r3, r5
 8000e36:	490f      	ldr	r1, [pc, #60]	; (8000e74 <__aeabi_i2f+0x90>)
 8000e38:	400b      	ands	r3, r1
 8000e3a:	076e      	lsls	r6, r5, #29
 8000e3c:	d009      	beq.n	8000e52 <__aeabi_i2f+0x6e>
 8000e3e:	260f      	movs	r6, #15
 8000e40:	4035      	ands	r5, r6
 8000e42:	2d04      	cmp	r5, #4
 8000e44:	d005      	beq.n	8000e52 <__aeabi_i2f+0x6e>
 8000e46:	3304      	adds	r3, #4
 8000e48:	015d      	lsls	r5, r3, #5
 8000e4a:	d502      	bpl.n	8000e52 <__aeabi_i2f+0x6e>
 8000e4c:	229f      	movs	r2, #159	; 0x9f
 8000e4e:	400b      	ands	r3, r1
 8000e50:	1a12      	subs	r2, r2, r0
 8000e52:	019b      	lsls	r3, r3, #6
 8000e54:	0a58      	lsrs	r0, r3, #9
 8000e56:	b2d2      	uxtb	r2, r2
 8000e58:	0240      	lsls	r0, r0, #9
 8000e5a:	05d2      	lsls	r2, r2, #23
 8000e5c:	0a40      	lsrs	r0, r0, #9
 8000e5e:	07e4      	lsls	r4, r4, #31
 8000e60:	4310      	orrs	r0, r2
 8000e62:	4320      	orrs	r0, r4
 8000e64:	bd70      	pop	{r4, r5, r6, pc}
 8000e66:	2400      	movs	r4, #0
 8000e68:	2200      	movs	r2, #0
 8000e6a:	2000      	movs	r0, #0
 8000e6c:	e7f4      	b.n	8000e58 <__aeabi_i2f+0x74>
 8000e6e:	0268      	lsls	r0, r5, #9
 8000e70:	0a40      	lsrs	r0, r0, #9
 8000e72:	e7f1      	b.n	8000e58 <__aeabi_i2f+0x74>
 8000e74:	fbffffff 	.word	0xfbffffff

08000e78 <__aeabi_ui2f>:
 8000e78:	b570      	push	{r4, r5, r6, lr}
 8000e7a:	1e04      	subs	r4, r0, #0
 8000e7c:	d034      	beq.n	8000ee8 <__aeabi_ui2f+0x70>
 8000e7e:	f000 f875 	bl	8000f6c <__clzsi2>
 8000e82:	229e      	movs	r2, #158	; 0x9e
 8000e84:	1a12      	subs	r2, r2, r0
 8000e86:	2a96      	cmp	r2, #150	; 0x96
 8000e88:	dc07      	bgt.n	8000e9a <__aeabi_ui2f+0x22>
 8000e8a:	b2d2      	uxtb	r2, r2
 8000e8c:	2808      	cmp	r0, #8
 8000e8e:	dd2e      	ble.n	8000eee <__aeabi_ui2f+0x76>
 8000e90:	3808      	subs	r0, #8
 8000e92:	4084      	lsls	r4, r0
 8000e94:	0260      	lsls	r0, r4, #9
 8000e96:	0a40      	lsrs	r0, r0, #9
 8000e98:	e021      	b.n	8000ede <__aeabi_ui2f+0x66>
 8000e9a:	2a99      	cmp	r2, #153	; 0x99
 8000e9c:	dd09      	ble.n	8000eb2 <__aeabi_ui2f+0x3a>
 8000e9e:	0003      	movs	r3, r0
 8000ea0:	0021      	movs	r1, r4
 8000ea2:	331b      	adds	r3, #27
 8000ea4:	4099      	lsls	r1, r3
 8000ea6:	1e4b      	subs	r3, r1, #1
 8000ea8:	4199      	sbcs	r1, r3
 8000eaa:	2305      	movs	r3, #5
 8000eac:	1a1b      	subs	r3, r3, r0
 8000eae:	40dc      	lsrs	r4, r3
 8000eb0:	430c      	orrs	r4, r1
 8000eb2:	2805      	cmp	r0, #5
 8000eb4:	dd01      	ble.n	8000eba <__aeabi_ui2f+0x42>
 8000eb6:	1f43      	subs	r3, r0, #5
 8000eb8:	409c      	lsls	r4, r3
 8000eba:	0023      	movs	r3, r4
 8000ebc:	490d      	ldr	r1, [pc, #52]	; (8000ef4 <__aeabi_ui2f+0x7c>)
 8000ebe:	400b      	ands	r3, r1
 8000ec0:	0765      	lsls	r5, r4, #29
 8000ec2:	d009      	beq.n	8000ed8 <__aeabi_ui2f+0x60>
 8000ec4:	250f      	movs	r5, #15
 8000ec6:	402c      	ands	r4, r5
 8000ec8:	2c04      	cmp	r4, #4
 8000eca:	d005      	beq.n	8000ed8 <__aeabi_ui2f+0x60>
 8000ecc:	3304      	adds	r3, #4
 8000ece:	015c      	lsls	r4, r3, #5
 8000ed0:	d502      	bpl.n	8000ed8 <__aeabi_ui2f+0x60>
 8000ed2:	229f      	movs	r2, #159	; 0x9f
 8000ed4:	400b      	ands	r3, r1
 8000ed6:	1a12      	subs	r2, r2, r0
 8000ed8:	019b      	lsls	r3, r3, #6
 8000eda:	0a58      	lsrs	r0, r3, #9
 8000edc:	b2d2      	uxtb	r2, r2
 8000ede:	0240      	lsls	r0, r0, #9
 8000ee0:	05d2      	lsls	r2, r2, #23
 8000ee2:	0a40      	lsrs	r0, r0, #9
 8000ee4:	4310      	orrs	r0, r2
 8000ee6:	bd70      	pop	{r4, r5, r6, pc}
 8000ee8:	2200      	movs	r2, #0
 8000eea:	2000      	movs	r0, #0
 8000eec:	e7f7      	b.n	8000ede <__aeabi_ui2f+0x66>
 8000eee:	0260      	lsls	r0, r4, #9
 8000ef0:	0a40      	lsrs	r0, r0, #9
 8000ef2:	e7f4      	b.n	8000ede <__aeabi_ui2f+0x66>
 8000ef4:	fbffffff 	.word	0xfbffffff

08000ef8 <__aeabi_cfrcmple>:
 8000ef8:	4684      	mov	ip, r0
 8000efa:	1c08      	adds	r0, r1, #0
 8000efc:	4661      	mov	r1, ip
 8000efe:	e7ff      	b.n	8000f00 <__aeabi_cfcmpeq>

08000f00 <__aeabi_cfcmpeq>:
 8000f00:	b51f      	push	{r0, r1, r2, r3, r4, lr}
 8000f02:	f000 f8c7 	bl	8001094 <__lesf2>
 8000f06:	2800      	cmp	r0, #0
 8000f08:	d401      	bmi.n	8000f0e <__aeabi_cfcmpeq+0xe>
 8000f0a:	2100      	movs	r1, #0
 8000f0c:	42c8      	cmn	r0, r1
 8000f0e:	bd1f      	pop	{r0, r1, r2, r3, r4, pc}

08000f10 <__aeabi_fcmpeq>:
 8000f10:	b510      	push	{r4, lr}
 8000f12:	f000 f849 	bl	8000fa8 <__eqsf2>
 8000f16:	4240      	negs	r0, r0
 8000f18:	3001      	adds	r0, #1
 8000f1a:	bd10      	pop	{r4, pc}

08000f1c <__aeabi_fcmplt>:
 8000f1c:	b510      	push	{r4, lr}
 8000f1e:	f000 f8b9 	bl	8001094 <__lesf2>
 8000f22:	2800      	cmp	r0, #0
 8000f24:	db01      	blt.n	8000f2a <__aeabi_fcmplt+0xe>
 8000f26:	2000      	movs	r0, #0
 8000f28:	bd10      	pop	{r4, pc}
 8000f2a:	2001      	movs	r0, #1
 8000f2c:	bd10      	pop	{r4, pc}
 8000f2e:	46c0      	nop			; (mov r8, r8)

08000f30 <__aeabi_fcmple>:
 8000f30:	b510      	push	{r4, lr}
 8000f32:	f000 f8af 	bl	8001094 <__lesf2>
 8000f36:	2800      	cmp	r0, #0
 8000f38:	dd01      	ble.n	8000f3e <__aeabi_fcmple+0xe>
 8000f3a:	2000      	movs	r0, #0
 8000f3c:	bd10      	pop	{r4, pc}
 8000f3e:	2001      	movs	r0, #1
 8000f40:	bd10      	pop	{r4, pc}
 8000f42:	46c0      	nop			; (mov r8, r8)

08000f44 <__aeabi_fcmpgt>:
 8000f44:	b510      	push	{r4, lr}
 8000f46:	f000 f857 	bl	8000ff8 <__gesf2>
 8000f4a:	2800      	cmp	r0, #0
 8000f4c:	dc01      	bgt.n	8000f52 <__aeabi_fcmpgt+0xe>
 8000f4e:	2000      	movs	r0, #0
 8000f50:	bd10      	pop	{r4, pc}
 8000f52:	2001      	movs	r0, #1
 8000f54:	bd10      	pop	{r4, pc}
 8000f56:	46c0      	nop			; (mov r8, r8)

08000f58 <__aeabi_fcmpge>:
 8000f58:	b510      	push	{r4, lr}
 8000f5a:	f000 f84d 	bl	8000ff8 <__gesf2>
 8000f5e:	2800      	cmp	r0, #0
 8000f60:	da01      	bge.n	8000f66 <__aeabi_fcmpge+0xe>
 8000f62:	2000      	movs	r0, #0
 8000f64:	bd10      	pop	{r4, pc}
 8000f66:	2001      	movs	r0, #1
 8000f68:	bd10      	pop	{r4, pc}
 8000f6a:	46c0      	nop			; (mov r8, r8)

08000f6c <__clzsi2>:
 8000f6c:	211c      	movs	r1, #28
 8000f6e:	2301      	movs	r3, #1
 8000f70:	041b      	lsls	r3, r3, #16
 8000f72:	4298      	cmp	r0, r3
 8000f74:	d301      	bcc.n	8000f7a <__clzsi2+0xe>
 8000f76:	0c00      	lsrs	r0, r0, #16
 8000f78:	3910      	subs	r1, #16
 8000f7a:	0a1b      	lsrs	r3, r3, #8
 8000f7c:	4298      	cmp	r0, r3
 8000f7e:	d301      	bcc.n	8000f84 <__clzsi2+0x18>
 8000f80:	0a00      	lsrs	r0, r0, #8
 8000f82:	3908      	subs	r1, #8
 8000f84:	091b      	lsrs	r3, r3, #4
 8000f86:	4298      	cmp	r0, r3
 8000f88:	d301      	bcc.n	8000f8e <__clzsi2+0x22>
 8000f8a:	0900      	lsrs	r0, r0, #4
 8000f8c:	3904      	subs	r1, #4
 8000f8e:	a202      	add	r2, pc, #8	; (adr r2, 8000f98 <__clzsi2+0x2c>)
 8000f90:	5c10      	ldrb	r0, [r2, r0]
 8000f92:	1840      	adds	r0, r0, r1
 8000f94:	4770      	bx	lr
 8000f96:	46c0      	nop			; (mov r8, r8)
 8000f98:	02020304 	.word	0x02020304
 8000f9c:	01010101 	.word	0x01010101
	...

08000fa8 <__eqsf2>:
 8000fa8:	b570      	push	{r4, r5, r6, lr}
 8000faa:	0042      	lsls	r2, r0, #1
 8000fac:	024e      	lsls	r6, r1, #9
 8000fae:	004c      	lsls	r4, r1, #1
 8000fb0:	0245      	lsls	r5, r0, #9
 8000fb2:	0a6d      	lsrs	r5, r5, #9
 8000fb4:	0e12      	lsrs	r2, r2, #24
 8000fb6:	0fc3      	lsrs	r3, r0, #31
 8000fb8:	0a76      	lsrs	r6, r6, #9
 8000fba:	0e24      	lsrs	r4, r4, #24
 8000fbc:	0fc9      	lsrs	r1, r1, #31
 8000fbe:	2aff      	cmp	r2, #255	; 0xff
 8000fc0:	d00f      	beq.n	8000fe2 <__eqsf2+0x3a>
 8000fc2:	2cff      	cmp	r4, #255	; 0xff
 8000fc4:	d011      	beq.n	8000fea <__eqsf2+0x42>
 8000fc6:	2001      	movs	r0, #1
 8000fc8:	42a2      	cmp	r2, r4
 8000fca:	d000      	beq.n	8000fce <__eqsf2+0x26>
 8000fcc:	bd70      	pop	{r4, r5, r6, pc}
 8000fce:	42b5      	cmp	r5, r6
 8000fd0:	d1fc      	bne.n	8000fcc <__eqsf2+0x24>
 8000fd2:	428b      	cmp	r3, r1
 8000fd4:	d00d      	beq.n	8000ff2 <__eqsf2+0x4a>
 8000fd6:	2a00      	cmp	r2, #0
 8000fd8:	d1f8      	bne.n	8000fcc <__eqsf2+0x24>
 8000fda:	0028      	movs	r0, r5
 8000fdc:	1e45      	subs	r5, r0, #1
 8000fde:	41a8      	sbcs	r0, r5
 8000fe0:	e7f4      	b.n	8000fcc <__eqsf2+0x24>
 8000fe2:	2001      	movs	r0, #1
 8000fe4:	2d00      	cmp	r5, #0
 8000fe6:	d1f1      	bne.n	8000fcc <__eqsf2+0x24>
 8000fe8:	e7eb      	b.n	8000fc2 <__eqsf2+0x1a>
 8000fea:	2001      	movs	r0, #1
 8000fec:	2e00      	cmp	r6, #0
 8000fee:	d1ed      	bne.n	8000fcc <__eqsf2+0x24>
 8000ff0:	e7e9      	b.n	8000fc6 <__eqsf2+0x1e>
 8000ff2:	2000      	movs	r0, #0
 8000ff4:	e7ea      	b.n	8000fcc <__eqsf2+0x24>
 8000ff6:	46c0      	nop			; (mov r8, r8)

08000ff8 <__gesf2>:
 8000ff8:	b570      	push	{r4, r5, r6, lr}
 8000ffa:	004a      	lsls	r2, r1, #1
 8000ffc:	024e      	lsls	r6, r1, #9
 8000ffe:	0245      	lsls	r5, r0, #9
 8001000:	0044      	lsls	r4, r0, #1
 8001002:	0a6d      	lsrs	r5, r5, #9
 8001004:	0e24      	lsrs	r4, r4, #24
 8001006:	0fc3      	lsrs	r3, r0, #31
 8001008:	0a76      	lsrs	r6, r6, #9
 800100a:	0e12      	lsrs	r2, r2, #24
 800100c:	0fc9      	lsrs	r1, r1, #31
 800100e:	2cff      	cmp	r4, #255	; 0xff
 8001010:	d015      	beq.n	800103e <__gesf2+0x46>
 8001012:	2aff      	cmp	r2, #255	; 0xff
 8001014:	d00e      	beq.n	8001034 <__gesf2+0x3c>
 8001016:	2c00      	cmp	r4, #0
 8001018:	d115      	bne.n	8001046 <__gesf2+0x4e>
 800101a:	2a00      	cmp	r2, #0
 800101c:	d101      	bne.n	8001022 <__gesf2+0x2a>
 800101e:	2e00      	cmp	r6, #0
 8001020:	d01c      	beq.n	800105c <__gesf2+0x64>
 8001022:	2d00      	cmp	r5, #0
 8001024:	d014      	beq.n	8001050 <__gesf2+0x58>
 8001026:	428b      	cmp	r3, r1
 8001028:	d027      	beq.n	800107a <__gesf2+0x82>
 800102a:	2002      	movs	r0, #2
 800102c:	3b01      	subs	r3, #1
 800102e:	4018      	ands	r0, r3
 8001030:	3801      	subs	r0, #1
 8001032:	bd70      	pop	{r4, r5, r6, pc}
 8001034:	2e00      	cmp	r6, #0
 8001036:	d0ee      	beq.n	8001016 <__gesf2+0x1e>
 8001038:	2002      	movs	r0, #2
 800103a:	4240      	negs	r0, r0
 800103c:	e7f9      	b.n	8001032 <__gesf2+0x3a>
 800103e:	2d00      	cmp	r5, #0
 8001040:	d1fa      	bne.n	8001038 <__gesf2+0x40>
 8001042:	2aff      	cmp	r2, #255	; 0xff
 8001044:	d00e      	beq.n	8001064 <__gesf2+0x6c>
 8001046:	2a00      	cmp	r2, #0
 8001048:	d10e      	bne.n	8001068 <__gesf2+0x70>
 800104a:	2e00      	cmp	r6, #0
 800104c:	d0ed      	beq.n	800102a <__gesf2+0x32>
 800104e:	e00b      	b.n	8001068 <__gesf2+0x70>
 8001050:	2301      	movs	r3, #1
 8001052:	3901      	subs	r1, #1
 8001054:	4399      	bics	r1, r3
 8001056:	0008      	movs	r0, r1
 8001058:	3001      	adds	r0, #1
 800105a:	e7ea      	b.n	8001032 <__gesf2+0x3a>
 800105c:	2000      	movs	r0, #0
 800105e:	2d00      	cmp	r5, #0
 8001060:	d0e7      	beq.n	8001032 <__gesf2+0x3a>
 8001062:	e7e2      	b.n	800102a <__gesf2+0x32>
 8001064:	2e00      	cmp	r6, #0
 8001066:	d1e7      	bne.n	8001038 <__gesf2+0x40>
 8001068:	428b      	cmp	r3, r1
 800106a:	d1de      	bne.n	800102a <__gesf2+0x32>
 800106c:	4294      	cmp	r4, r2
 800106e:	dd05      	ble.n	800107c <__gesf2+0x84>
 8001070:	2102      	movs	r1, #2
 8001072:	1e58      	subs	r0, r3, #1
 8001074:	4008      	ands	r0, r1
 8001076:	3801      	subs	r0, #1
 8001078:	e7db      	b.n	8001032 <__gesf2+0x3a>
 800107a:	2400      	movs	r4, #0
 800107c:	42a2      	cmp	r2, r4
 800107e:	dc04      	bgt.n	800108a <__gesf2+0x92>
 8001080:	42b5      	cmp	r5, r6
 8001082:	d8d2      	bhi.n	800102a <__gesf2+0x32>
 8001084:	2000      	movs	r0, #0
 8001086:	42b5      	cmp	r5, r6
 8001088:	d2d3      	bcs.n	8001032 <__gesf2+0x3a>
 800108a:	1e58      	subs	r0, r3, #1
 800108c:	2301      	movs	r3, #1
 800108e:	4398      	bics	r0, r3
 8001090:	3001      	adds	r0, #1
 8001092:	e7ce      	b.n	8001032 <__gesf2+0x3a>

08001094 <__lesf2>:
 8001094:	b530      	push	{r4, r5, lr}
 8001096:	0042      	lsls	r2, r0, #1
 8001098:	0244      	lsls	r4, r0, #9
 800109a:	024d      	lsls	r5, r1, #9
 800109c:	0fc3      	lsrs	r3, r0, #31
 800109e:	0048      	lsls	r0, r1, #1
 80010a0:	0a64      	lsrs	r4, r4, #9
 80010a2:	0e12      	lsrs	r2, r2, #24
 80010a4:	0a6d      	lsrs	r5, r5, #9
 80010a6:	0e00      	lsrs	r0, r0, #24
 80010a8:	0fc9      	lsrs	r1, r1, #31
 80010aa:	2aff      	cmp	r2, #255	; 0xff
 80010ac:	d012      	beq.n	80010d4 <__lesf2+0x40>
 80010ae:	28ff      	cmp	r0, #255	; 0xff
 80010b0:	d00c      	beq.n	80010cc <__lesf2+0x38>
 80010b2:	2a00      	cmp	r2, #0
 80010b4:	d112      	bne.n	80010dc <__lesf2+0x48>
 80010b6:	2800      	cmp	r0, #0
 80010b8:	d119      	bne.n	80010ee <__lesf2+0x5a>
 80010ba:	2d00      	cmp	r5, #0
 80010bc:	d117      	bne.n	80010ee <__lesf2+0x5a>
 80010be:	2c00      	cmp	r4, #0
 80010c0:	d02b      	beq.n	800111a <__lesf2+0x86>
 80010c2:	2002      	movs	r0, #2
 80010c4:	3b01      	subs	r3, #1
 80010c6:	4018      	ands	r0, r3
 80010c8:	3801      	subs	r0, #1
 80010ca:	e026      	b.n	800111a <__lesf2+0x86>
 80010cc:	2d00      	cmp	r5, #0
 80010ce:	d0f0      	beq.n	80010b2 <__lesf2+0x1e>
 80010d0:	2002      	movs	r0, #2
 80010d2:	e022      	b.n	800111a <__lesf2+0x86>
 80010d4:	2c00      	cmp	r4, #0
 80010d6:	d1fb      	bne.n	80010d0 <__lesf2+0x3c>
 80010d8:	28ff      	cmp	r0, #255	; 0xff
 80010da:	d01f      	beq.n	800111c <__lesf2+0x88>
 80010dc:	2800      	cmp	r0, #0
 80010de:	d11f      	bne.n	8001120 <__lesf2+0x8c>
 80010e0:	2d00      	cmp	r5, #0
 80010e2:	d11d      	bne.n	8001120 <__lesf2+0x8c>
 80010e4:	2002      	movs	r0, #2
 80010e6:	3b01      	subs	r3, #1
 80010e8:	4018      	ands	r0, r3
 80010ea:	3801      	subs	r0, #1
 80010ec:	e015      	b.n	800111a <__lesf2+0x86>
 80010ee:	2c00      	cmp	r4, #0
 80010f0:	d00e      	beq.n	8001110 <__lesf2+0x7c>
 80010f2:	428b      	cmp	r3, r1
 80010f4:	d1e5      	bne.n	80010c2 <__lesf2+0x2e>
 80010f6:	2200      	movs	r2, #0
 80010f8:	4290      	cmp	r0, r2
 80010fa:	dc04      	bgt.n	8001106 <__lesf2+0x72>
 80010fc:	42ac      	cmp	r4, r5
 80010fe:	d8e0      	bhi.n	80010c2 <__lesf2+0x2e>
 8001100:	2000      	movs	r0, #0
 8001102:	42ac      	cmp	r4, r5
 8001104:	d209      	bcs.n	800111a <__lesf2+0x86>
 8001106:	1e58      	subs	r0, r3, #1
 8001108:	2301      	movs	r3, #1
 800110a:	4398      	bics	r0, r3
 800110c:	3001      	adds	r0, #1
 800110e:	e004      	b.n	800111a <__lesf2+0x86>
 8001110:	2301      	movs	r3, #1
 8001112:	3901      	subs	r1, #1
 8001114:	4399      	bics	r1, r3
 8001116:	0008      	movs	r0, r1
 8001118:	3001      	adds	r0, #1
 800111a:	bd30      	pop	{r4, r5, pc}
 800111c:	2d00      	cmp	r5, #0
 800111e:	d1d7      	bne.n	80010d0 <__lesf2+0x3c>
 8001120:	428b      	cmp	r3, r1
 8001122:	d1ce      	bne.n	80010c2 <__lesf2+0x2e>
 8001124:	4282      	cmp	r2, r0
 8001126:	dde7      	ble.n	80010f8 <__lesf2+0x64>
 8001128:	2102      	movs	r1, #2
 800112a:	1e58      	subs	r0, r3, #1
 800112c:	4008      	ands	r0, r1
 800112e:	3801      	subs	r0, #1
 8001130:	e7f3      	b.n	800111a <__lesf2+0x86>
 8001132:	46c0      	nop			; (mov r8, r8)

08001134 <HAL_Init>:
 8001134:	2110      	movs	r1, #16
 8001136:	4a06      	ldr	r2, [pc, #24]	; (8001150 <HAL_Init+0x1c>)
 8001138:	b510      	push	{r4, lr}
 800113a:	6813      	ldr	r3, [r2, #0]
 800113c:	2000      	movs	r0, #0
 800113e:	430b      	orrs	r3, r1
 8001140:	6013      	str	r3, [r2, #0]
 8001142:	f004 ffcd 	bl	80060e0 <HAL_InitTick>
 8001146:	f004 fec5 	bl	8005ed4 <HAL_MspInit>
 800114a:	2000      	movs	r0, #0
 800114c:	bd10      	pop	{r4, pc}
 800114e:	46c0      	nop			; (mov r8, r8)
 8001150:	40022000 	.word	0x40022000

08001154 <HAL_IncTick>:
 8001154:	4a03      	ldr	r2, [pc, #12]	; (8001164 <HAL_IncTick+0x10>)
 8001156:	4b04      	ldr	r3, [pc, #16]	; (8001168 <HAL_IncTick+0x14>)
 8001158:	6811      	ldr	r1, [r2, #0]
 800115a:	781b      	ldrb	r3, [r3, #0]
 800115c:	185b      	adds	r3, r3, r1
 800115e:	6013      	str	r3, [r2, #0]
 8001160:	4770      	bx	lr
 8001162:	46c0      	nop			; (mov r8, r8)
 8001164:	20000d6c 	.word	0x20000d6c
 8001168:	20000000 	.word	0x20000000

0800116c <HAL_GetTick>:
 800116c:	4b01      	ldr	r3, [pc, #4]	; (8001174 <HAL_GetTick+0x8>)
 800116e:	6818      	ldr	r0, [r3, #0]
 8001170:	4770      	bx	lr
 8001172:	46c0      	nop			; (mov r8, r8)
 8001174:	20000d6c 	.word	0x20000d6c

08001178 <HAL_Delay>:
 8001178:	b570      	push	{r4, r5, r6, lr}
 800117a:	0004      	movs	r4, r0
 800117c:	f7ff fff6 	bl	800116c <HAL_GetTick>
 8001180:	0005      	movs	r5, r0
 8001182:	1c63      	adds	r3, r4, #1
 8001184:	d002      	beq.n	800118c <HAL_Delay+0x14>
 8001186:	4b04      	ldr	r3, [pc, #16]	; (8001198 <HAL_Delay+0x20>)
 8001188:	781b      	ldrb	r3, [r3, #0]
 800118a:	18e4      	adds	r4, r4, r3
 800118c:	f7ff ffee 	bl	800116c <HAL_GetTick>
 8001190:	1b40      	subs	r0, r0, r5
 8001192:	42a0      	cmp	r0, r4
 8001194:	d3fa      	bcc.n	800118c <HAL_Delay+0x14>
 8001196:	bd70      	pop	{r4, r5, r6, pc}
 8001198:	20000000 	.word	0x20000000

0800119c <HAL_NVIC_SetPriority>:
 800119c:	22ff      	movs	r2, #255	; 0xff
 800119e:	2303      	movs	r3, #3
 80011a0:	b530      	push	{r4, r5, lr}
 80011a2:	0014      	movs	r4, r2
 80011a4:	b2c5      	uxtb	r5, r0
 80011a6:	402b      	ands	r3, r5
 80011a8:	00db      	lsls	r3, r3, #3
 80011aa:	409c      	lsls	r4, r3
 80011ac:	0189      	lsls	r1, r1, #6
 80011ae:	400a      	ands	r2, r1
 80011b0:	43e4      	mvns	r4, r4
 80011b2:	409a      	lsls	r2, r3
 80011b4:	2800      	cmp	r0, #0
 80011b6:	db0b      	blt.n	80011d0 <HAL_NVIC_SetPriority+0x34>
 80011b8:	4b0c      	ldr	r3, [pc, #48]	; (80011ec <HAL_NVIC_SetPriority+0x50>)
 80011ba:	0880      	lsrs	r0, r0, #2
 80011bc:	469c      	mov	ip, r3
 80011be:	23c0      	movs	r3, #192	; 0xc0
 80011c0:	0080      	lsls	r0, r0, #2
 80011c2:	4460      	add	r0, ip
 80011c4:	009b      	lsls	r3, r3, #2
 80011c6:	58c1      	ldr	r1, [r0, r3]
 80011c8:	400c      	ands	r4, r1
 80011ca:	4322      	orrs	r2, r4
 80011cc:	50c2      	str	r2, [r0, r3]
 80011ce:	bd30      	pop	{r4, r5, pc}
 80011d0:	230f      	movs	r3, #15
 80011d2:	4907      	ldr	r1, [pc, #28]	; (80011f0 <HAL_NVIC_SetPriority+0x54>)
 80011d4:	402b      	ands	r3, r5
 80011d6:	468c      	mov	ip, r1
 80011d8:	3b08      	subs	r3, #8
 80011da:	089b      	lsrs	r3, r3, #2
 80011dc:	009b      	lsls	r3, r3, #2
 80011de:	4463      	add	r3, ip
 80011e0:	69d9      	ldr	r1, [r3, #28]
 80011e2:	400c      	ands	r4, r1
 80011e4:	4322      	orrs	r2, r4
 80011e6:	61da      	str	r2, [r3, #28]
 80011e8:	e7f1      	b.n	80011ce <HAL_NVIC_SetPriority+0x32>
 80011ea:	46c0      	nop			; (mov r8, r8)
 80011ec:	e000e100 	.word	0xe000e100
 80011f0:	e000ed00 	.word	0xe000ed00

080011f4 <HAL_NVIC_EnableIRQ>:
 80011f4:	2800      	cmp	r0, #0
 80011f6:	db05      	blt.n	8001204 <HAL_NVIC_EnableIRQ+0x10>
 80011f8:	231f      	movs	r3, #31
 80011fa:	4018      	ands	r0, r3
 80011fc:	3b1e      	subs	r3, #30
 80011fe:	4083      	lsls	r3, r0
 8001200:	4a01      	ldr	r2, [pc, #4]	; (8001208 <HAL_NVIC_EnableIRQ+0x14>)
 8001202:	6013      	str	r3, [r2, #0]
 8001204:	4770      	bx	lr
 8001206:	46c0      	nop			; (mov r8, r8)
 8001208:	e000e100 	.word	0xe000e100

0800120c <HAL_DMA_Init>:
 800120c:	b570      	push	{r4, r5, r6, lr}
 800120e:	1e04      	subs	r4, r0, #0
 8001210:	d027      	beq.n	8001262 <HAL_DMA_Init+0x56>
 8001212:	2521      	movs	r5, #33	; 0x21
 8001214:	2302      	movs	r3, #2
 8001216:	5543      	strb	r3, [r0, r5]
 8001218:	6800      	ldr	r0, [r0, #0]
 800121a:	4a13      	ldr	r2, [pc, #76]	; (8001268 <HAL_DMA_Init+0x5c>)
 800121c:	6803      	ldr	r3, [r0, #0]
 800121e:	68a1      	ldr	r1, [r4, #8]
 8001220:	401a      	ands	r2, r3
 8001222:	6863      	ldr	r3, [r4, #4]
 8001224:	430b      	orrs	r3, r1
 8001226:	68e1      	ldr	r1, [r4, #12]
 8001228:	430b      	orrs	r3, r1
 800122a:	6921      	ldr	r1, [r4, #16]
 800122c:	430b      	orrs	r3, r1
 800122e:	6961      	ldr	r1, [r4, #20]
 8001230:	430b      	orrs	r3, r1
 8001232:	69a1      	ldr	r1, [r4, #24]
 8001234:	430b      	orrs	r3, r1
 8001236:	69e1      	ldr	r1, [r4, #28]
 8001238:	430b      	orrs	r3, r1
 800123a:	4313      	orrs	r3, r2
 800123c:	6003      	str	r3, [r0, #0]
 800123e:	4b0b      	ldr	r3, [pc, #44]	; (800126c <HAL_DMA_Init+0x60>)
 8001240:	2114      	movs	r1, #20
 8001242:	469c      	mov	ip, r3
 8001244:	4460      	add	r0, ip
 8001246:	f7fe ff67 	bl	8000118 <__udivsi3>
 800124a:	4b09      	ldr	r3, [pc, #36]	; (8001270 <HAL_DMA_Init+0x64>)
 800124c:	2201      	movs	r2, #1
 800124e:	63e3      	str	r3, [r4, #60]	; 0x3c
 8001250:	2300      	movs	r3, #0
 8001252:	0080      	lsls	r0, r0, #2
 8001254:	6420      	str	r0, [r4, #64]	; 0x40
 8001256:	2000      	movs	r0, #0
 8001258:	63a3      	str	r3, [r4, #56]	; 0x38
 800125a:	5562      	strb	r2, [r4, r5]
 800125c:	321f      	adds	r2, #31
 800125e:	54a3      	strb	r3, [r4, r2]
 8001260:	bd70      	pop	{r4, r5, r6, pc}
 8001262:	2001      	movs	r0, #1
 8001264:	e7fc      	b.n	8001260 <HAL_DMA_Init+0x54>
 8001266:	46c0      	nop			; (mov r8, r8)
 8001268:	ffffc00f 	.word	0xffffc00f
 800126c:	bffdfff8 	.word	0xbffdfff8
 8001270:	40020000 	.word	0x40020000

08001274 <HAL_DMA_Start_IT>:
 8001274:	b5f0      	push	{r4, r5, r6, r7, lr}
 8001276:	2520      	movs	r5, #32
 8001278:	5d44      	ldrb	r4, [r0, r5]
 800127a:	2c01      	cmp	r4, #1
 800127c:	d029      	beq.n	80012d2 <HAL_DMA_Start_IT+0x5e>
 800127e:	2401      	movs	r4, #1
 8001280:	2621      	movs	r6, #33	; 0x21
 8001282:	5544      	strb	r4, [r0, r5]
 8001284:	5d84      	ldrb	r4, [r0, r6]
 8001286:	b2e4      	uxtb	r4, r4
 8001288:	2c01      	cmp	r4, #1
 800128a:	d11e      	bne.n	80012ca <HAL_DMA_Start_IT+0x56>
 800128c:	3d1e      	subs	r5, #30
 800128e:	5585      	strb	r5, [r0, r6]
 8001290:	2500      	movs	r5, #0
 8001292:	6385      	str	r5, [r0, #56]	; 0x38
 8001294:	6805      	ldr	r5, [r0, #0]
 8001296:	6c07      	ldr	r7, [r0, #64]	; 0x40
 8001298:	682e      	ldr	r6, [r5, #0]
 800129a:	43a6      	bics	r6, r4
 800129c:	40bc      	lsls	r4, r7
 800129e:	602e      	str	r6, [r5, #0]
 80012a0:	6bc6      	ldr	r6, [r0, #60]	; 0x3c
 80012a2:	6074      	str	r4, [r6, #4]
 80012a4:	606b      	str	r3, [r5, #4]
 80012a6:	6843      	ldr	r3, [r0, #4]
 80012a8:	2b10      	cmp	r3, #16
 80012aa:	d014      	beq.n	80012d6 <HAL_DMA_Start_IT+0x62>
 80012ac:	6ac3      	ldr	r3, [r0, #44]	; 0x2c
 80012ae:	60a9      	str	r1, [r5, #8]
 80012b0:	60ea      	str	r2, [r5, #12]
 80012b2:	2b00      	cmp	r3, #0
 80012b4:	d014      	beq.n	80012e0 <HAL_DMA_Start_IT+0x6c>
 80012b6:	220e      	movs	r2, #14
 80012b8:	682b      	ldr	r3, [r5, #0]
 80012ba:	4313      	orrs	r3, r2
 80012bc:	602b      	str	r3, [r5, #0]
 80012be:	2201      	movs	r2, #1
 80012c0:	2000      	movs	r0, #0
 80012c2:	682b      	ldr	r3, [r5, #0]
 80012c4:	4313      	orrs	r3, r2
 80012c6:	602b      	str	r3, [r5, #0]
 80012c8:	bdf0      	pop	{r4, r5, r6, r7, pc}
 80012ca:	2300      	movs	r3, #0
 80012cc:	5543      	strb	r3, [r0, r5]
 80012ce:	2002      	movs	r0, #2
 80012d0:	e7fa      	b.n	80012c8 <HAL_DMA_Start_IT+0x54>
 80012d2:	2002      	movs	r0, #2
 80012d4:	e7f8      	b.n	80012c8 <HAL_DMA_Start_IT+0x54>
 80012d6:	6ac3      	ldr	r3, [r0, #44]	; 0x2c
 80012d8:	60aa      	str	r2, [r5, #8]
 80012da:	60e9      	str	r1, [r5, #12]
 80012dc:	2b00      	cmp	r3, #0
 80012de:	d1ea      	bne.n	80012b6 <HAL_DMA_Start_IT+0x42>
 80012e0:	220a      	movs	r2, #10
 80012e2:	682b      	ldr	r3, [r5, #0]
 80012e4:	4313      	orrs	r3, r2
 80012e6:	602b      	str	r3, [r5, #0]
 80012e8:	682b      	ldr	r3, [r5, #0]
 80012ea:	3a06      	subs	r2, #6
 80012ec:	4393      	bics	r3, r2
 80012ee:	602b      	str	r3, [r5, #0]
 80012f0:	e7e5      	b.n	80012be <HAL_DMA_Start_IT+0x4a>
 80012f2:	46c0      	nop			; (mov r8, r8)

080012f4 <HAL_DMA_Abort_IT>:
 80012f4:	2321      	movs	r3, #33	; 0x21
 80012f6:	b570      	push	{r4, r5, r6, lr}
 80012f8:	5cc2      	ldrb	r2, [r0, r3]
 80012fa:	2a02      	cmp	r2, #2
 80012fc:	d003      	beq.n	8001306 <HAL_DMA_Abort_IT+0x12>
 80012fe:	3b1d      	subs	r3, #29
 8001300:	6383      	str	r3, [r0, #56]	; 0x38
 8001302:	2001      	movs	r0, #1
 8001304:	bd70      	pop	{r4, r5, r6, pc}
 8001306:	240e      	movs	r4, #14
 8001308:	6802      	ldr	r2, [r0, #0]
 800130a:	6c05      	ldr	r5, [r0, #64]	; 0x40
 800130c:	6811      	ldr	r1, [r2, #0]
 800130e:	43a1      	bics	r1, r4
 8001310:	6011      	str	r1, [r2, #0]
 8001312:	2101      	movs	r1, #1
 8001314:	6814      	ldr	r4, [r2, #0]
 8001316:	438c      	bics	r4, r1
 8001318:	6014      	str	r4, [r2, #0]
 800131a:	000c      	movs	r4, r1
 800131c:	40ac      	lsls	r4, r5
 800131e:	6bc2      	ldr	r2, [r0, #60]	; 0x3c
 8001320:	6054      	str	r4, [r2, #4]
 8001322:	54c1      	strb	r1, [r0, r3]
 8001324:	2200      	movs	r2, #0
 8001326:	2320      	movs	r3, #32
 8001328:	54c2      	strb	r2, [r0, r3]
 800132a:	6b43      	ldr	r3, [r0, #52]	; 0x34
 800132c:	2b00      	cmp	r3, #0
 800132e:	d002      	beq.n	8001336 <HAL_DMA_Abort_IT+0x42>
 8001330:	4798      	blx	r3
 8001332:	2000      	movs	r0, #0
 8001334:	e7e6      	b.n	8001304 <HAL_DMA_Abort_IT+0x10>
 8001336:	2000      	movs	r0, #0
 8001338:	e7e4      	b.n	8001304 <HAL_DMA_Abort_IT+0x10>
 800133a:	46c0      	nop			; (mov r8, r8)

0800133c <HAL_DMA_IRQHandler>:
 800133c:	b5f8      	push	{r3, r4, r5, r6, r7, lr}
 800133e:	2404      	movs	r4, #4
 8001340:	0026      	movs	r6, r4
 8001342:	6c03      	ldr	r3, [r0, #64]	; 0x40
 8001344:	6bc5      	ldr	r5, [r0, #60]	; 0x3c
 8001346:	409e      	lsls	r6, r3
 8001348:	682a      	ldr	r2, [r5, #0]
 800134a:	6801      	ldr	r1, [r0, #0]
 800134c:	680f      	ldr	r7, [r1, #0]
 800134e:	4232      	tst	r2, r6
 8001350:	d00d      	beq.n	800136e <HAL_DMA_IRQHandler+0x32>
 8001352:	423c      	tst	r4, r7
 8001354:	d00b      	beq.n	800136e <HAL_DMA_IRQHandler+0x32>
 8001356:	680b      	ldr	r3, [r1, #0]
 8001358:	069b      	lsls	r3, r3, #26
 800135a:	d402      	bmi.n	8001362 <HAL_DMA_IRQHandler+0x26>
 800135c:	680b      	ldr	r3, [r1, #0]
 800135e:	43a3      	bics	r3, r4
 8001360:	600b      	str	r3, [r1, #0]
 8001362:	6ac3      	ldr	r3, [r0, #44]	; 0x2c
 8001364:	606e      	str	r6, [r5, #4]
 8001366:	2b00      	cmp	r3, #0
 8001368:	d000      	beq.n	800136c <HAL_DMA_IRQHandler+0x30>
 800136a:	4798      	blx	r3
 800136c:	bdf8      	pop	{r3, r4, r5, r6, r7, pc}
 800136e:	2402      	movs	r4, #2
 8001370:	0026      	movs	r6, r4
 8001372:	409e      	lsls	r6, r3
 8001374:	4232      	tst	r2, r6
 8001376:	d014      	beq.n	80013a2 <HAL_DMA_IRQHandler+0x66>
 8001378:	423c      	tst	r4, r7
 800137a:	d012      	beq.n	80013a2 <HAL_DMA_IRQHandler+0x66>
 800137c:	680b      	ldr	r3, [r1, #0]
 800137e:	069b      	lsls	r3, r3, #26
 8001380:	d406      	bmi.n	8001390 <HAL_DMA_IRQHandler+0x54>
 8001382:	220a      	movs	r2, #10
 8001384:	680b      	ldr	r3, [r1, #0]
 8001386:	4393      	bics	r3, r2
 8001388:	600b      	str	r3, [r1, #0]
 800138a:	2321      	movs	r3, #33	; 0x21
 800138c:	3a09      	subs	r2, #9
 800138e:	54c2      	strb	r2, [r0, r3]
 8001390:	2320      	movs	r3, #32
 8001392:	2200      	movs	r2, #0
 8001394:	606e      	str	r6, [r5, #4]
 8001396:	54c2      	strb	r2, [r0, r3]
 8001398:	6a83      	ldr	r3, [r0, #40]	; 0x28
 800139a:	2b00      	cmp	r3, #0
 800139c:	d0e6      	beq.n	800136c <HAL_DMA_IRQHandler+0x30>
 800139e:	4798      	blx	r3
 80013a0:	e7e4      	b.n	800136c <HAL_DMA_IRQHandler+0x30>
 80013a2:	2408      	movs	r4, #8
 80013a4:	0026      	movs	r6, r4
 80013a6:	409e      	lsls	r6, r3
 80013a8:	4232      	tst	r2, r6
 80013aa:	d0df      	beq.n	800136c <HAL_DMA_IRQHandler+0x30>
 80013ac:	423c      	tst	r4, r7
 80013ae:	d0dd      	beq.n	800136c <HAL_DMA_IRQHandler+0x30>
 80013b0:	680a      	ldr	r2, [r1, #0]
 80013b2:	3406      	adds	r4, #6
 80013b4:	43a2      	bics	r2, r4
 80013b6:	600a      	str	r2, [r1, #0]
 80013b8:	2201      	movs	r2, #1
 80013ba:	0011      	movs	r1, r2
 80013bc:	4099      	lsls	r1, r3
 80013be:	2321      	movs	r3, #33	; 0x21
 80013c0:	6069      	str	r1, [r5, #4]
 80013c2:	6382      	str	r2, [r0, #56]	; 0x38
 80013c4:	54c2      	strb	r2, [r0, r3]
 80013c6:	2200      	movs	r2, #0
 80013c8:	3b01      	subs	r3, #1
 80013ca:	54c2      	strb	r2, [r0, r3]
 80013cc:	6b03      	ldr	r3, [r0, #48]	; 0x30
 80013ce:	2b00      	cmp	r3, #0
 80013d0:	d0cc      	beq.n	800136c <HAL_DMA_IRQHandler+0x30>
 80013d2:	4798      	blx	r3
 80013d4:	e7ca      	b.n	800136c <HAL_DMA_IRQHandler+0x30>
 80013d6:	46c0      	nop			; (mov r8, r8)

080013d8 <HAL_GPIO_Init>:
 80013d8:	b5f0      	push	{r4, r5, r6, r7, lr}
 80013da:	4657      	mov	r7, sl
 80013dc:	46de      	mov	lr, fp
 80013de:	464e      	mov	r6, r9
 80013e0:	4645      	mov	r5, r8
 80013e2:	b5e0      	push	{r5, r6, r7, lr}
 80013e4:	680b      	ldr	r3, [r1, #0]
 80013e6:	b085      	sub	sp, #20
 80013e8:	468a      	mov	sl, r1
 80013ea:	2b00      	cmp	r3, #0
 80013ec:	d075      	beq.n	80014da <HAL_GPIO_Init+0x102>
 80013ee:	4a65      	ldr	r2, [pc, #404]	; (8001584 <HAL_GPIO_Init+0x1ac>)
 80013f0:	2400      	movs	r4, #0
 80013f2:	9201      	str	r2, [sp, #4]
 80013f4:	4a64      	ldr	r2, [pc, #400]	; (8001588 <HAL_GPIO_Init+0x1b0>)
 80013f6:	469c      	mov	ip, r3
 80013f8:	4691      	mov	r9, r2
 80013fa:	2501      	movs	r5, #1
 80013fc:	4663      	mov	r3, ip
 80013fe:	40a5      	lsls	r5, r4
 8001400:	402b      	ands	r3, r5
 8001402:	4698      	mov	r8, r3
 8001404:	d065      	beq.n	80014d2 <HAL_GPIO_Init+0xfa>
 8001406:	4653      	mov	r3, sl
 8001408:	685a      	ldr	r2, [r3, #4]
 800140a:	2310      	movs	r3, #16
 800140c:	0017      	movs	r7, r2
 800140e:	0061      	lsls	r1, r4, #1
 8001410:	439f      	bics	r7, r3
 8001412:	3b0d      	subs	r3, #13
 8001414:	408b      	lsls	r3, r1
 8001416:	43db      	mvns	r3, r3
 8001418:	469b      	mov	fp, r3
 800141a:	4653      	mov	r3, sl
 800141c:	689e      	ldr	r6, [r3, #8]
 800141e:	9700      	str	r7, [sp, #0]
 8001420:	3f01      	subs	r7, #1
 8001422:	408e      	lsls	r6, r1
 8001424:	2f01      	cmp	r7, #1
 8001426:	d95f      	bls.n	80014e8 <HAL_GPIO_Init+0x110>
 8001428:	465b      	mov	r3, fp
 800142a:	68c5      	ldr	r5, [r0, #12]
 800142c:	401d      	ands	r5, r3
 800142e:	432e      	orrs	r6, r5
 8001430:	60c6      	str	r6, [r0, #12]
 8001432:	465b      	mov	r3, fp
 8001434:	6805      	ldr	r5, [r0, #0]
 8001436:	402b      	ands	r3, r5
 8001438:	2503      	movs	r5, #3
 800143a:	4015      	ands	r5, r2
 800143c:	408d      	lsls	r5, r1
 800143e:	432b      	orrs	r3, r5
 8001440:	6003      	str	r3, [r0, #0]
 8001442:	2380      	movs	r3, #128	; 0x80
 8001444:	055b      	lsls	r3, r3, #21
 8001446:	421a      	tst	r2, r3
 8001448:	d043      	beq.n	80014d2 <HAL_GPIO_Init+0xfa>
 800144a:	2101      	movs	r1, #1
 800144c:	9d01      	ldr	r5, [sp, #4]
 800144e:	260f      	movs	r6, #15
 8001450:	69ab      	ldr	r3, [r5, #24]
 8001452:	430b      	orrs	r3, r1
 8001454:	61ab      	str	r3, [r5, #24]
 8001456:	69ab      	ldr	r3, [r5, #24]
 8001458:	2503      	movs	r5, #3
 800145a:	400b      	ands	r3, r1
 800145c:	494b      	ldr	r1, [pc, #300]	; (800158c <HAL_GPIO_Init+0x1b4>)
 800145e:	4025      	ands	r5, r4
 8001460:	468b      	mov	fp, r1
 8001462:	00ad      	lsls	r5, r5, #2
 8001464:	40ae      	lsls	r6, r5
 8001466:	9303      	str	r3, [sp, #12]
 8001468:	9b03      	ldr	r3, [sp, #12]
 800146a:	08a3      	lsrs	r3, r4, #2
 800146c:	009b      	lsls	r3, r3, #2
 800146e:	445b      	add	r3, fp
 8001470:	6899      	ldr	r1, [r3, #8]
 8001472:	43b1      	bics	r1, r6
 8001474:	2690      	movs	r6, #144	; 0x90
 8001476:	05f6      	lsls	r6, r6, #23
 8001478:	42b0      	cmp	r0, r6
 800147a:	d00e      	beq.n	800149a <HAL_GPIO_Init+0xc2>
 800147c:	4e44      	ldr	r6, [pc, #272]	; (8001590 <HAL_GPIO_Init+0x1b8>)
 800147e:	42b0      	cmp	r0, r6
 8001480:	d100      	bne.n	8001484 <HAL_GPIO_Init+0xac>
 8001482:	e077      	b.n	8001574 <HAL_GPIO_Init+0x19c>
 8001484:	4e43      	ldr	r6, [pc, #268]	; (8001594 <HAL_GPIO_Init+0x1bc>)
 8001486:	42b0      	cmp	r0, r6
 8001488:	d100      	bne.n	800148c <HAL_GPIO_Init+0xb4>
 800148a:	e06f      	b.n	800156c <HAL_GPIO_Init+0x194>
 800148c:	4e42      	ldr	r6, [pc, #264]	; (8001598 <HAL_GPIO_Init+0x1c0>)
 800148e:	42b0      	cmp	r0, r6
 8001490:	d100      	bne.n	8001494 <HAL_GPIO_Init+0xbc>
 8001492:	e073      	b.n	800157c <HAL_GPIO_Init+0x1a4>
 8001494:	2605      	movs	r6, #5
 8001496:	40ae      	lsls	r6, r5
 8001498:	4331      	orrs	r1, r6
 800149a:	6099      	str	r1, [r3, #8]
 800149c:	464b      	mov	r3, r9
 800149e:	4641      	mov	r1, r8
 80014a0:	681b      	ldr	r3, [r3, #0]
 80014a2:	43cd      	mvns	r5, r1
 80014a4:	03d1      	lsls	r1, r2, #15
 80014a6:	d448      	bmi.n	800153a <HAL_GPIO_Init+0x162>
 80014a8:	4649      	mov	r1, r9
 80014aa:	402b      	ands	r3, r5
 80014ac:	600b      	str	r3, [r1, #0]
 80014ae:	6849      	ldr	r1, [r1, #4]
 80014b0:	0393      	lsls	r3, r2, #14
 80014b2:	d449      	bmi.n	8001548 <HAL_GPIO_Init+0x170>
 80014b4:	464b      	mov	r3, r9
 80014b6:	4029      	ands	r1, r5
 80014b8:	6059      	str	r1, [r3, #4]
 80014ba:	6899      	ldr	r1, [r3, #8]
 80014bc:	02d3      	lsls	r3, r2, #11
 80014be:	d44a      	bmi.n	8001556 <HAL_GPIO_Init+0x17e>
 80014c0:	464b      	mov	r3, r9
 80014c2:	4029      	ands	r1, r5
 80014c4:	6099      	str	r1, [r3, #8]
 80014c6:	68db      	ldr	r3, [r3, #12]
 80014c8:	0292      	lsls	r2, r2, #10
 80014ca:	d44b      	bmi.n	8001564 <HAL_GPIO_Init+0x18c>
 80014cc:	402b      	ands	r3, r5
 80014ce:	464a      	mov	r2, r9
 80014d0:	60d3      	str	r3, [r2, #12]
 80014d2:	4663      	mov	r3, ip
 80014d4:	3401      	adds	r4, #1
 80014d6:	40e3      	lsrs	r3, r4
 80014d8:	d18f      	bne.n	80013fa <HAL_GPIO_Init+0x22>
 80014da:	b005      	add	sp, #20
 80014dc:	bc3c      	pop	{r2, r3, r4, r5}
 80014de:	4690      	mov	r8, r2
 80014e0:	4699      	mov	r9, r3
 80014e2:	46a2      	mov	sl, r4
 80014e4:	46ab      	mov	fp, r5
 80014e6:	bdf0      	pop	{r4, r5, r6, r7, pc}
 80014e8:	465b      	mov	r3, fp
 80014ea:	6887      	ldr	r7, [r0, #8]
 80014ec:	401f      	ands	r7, r3
 80014ee:	4653      	mov	r3, sl
 80014f0:	68db      	ldr	r3, [r3, #12]
 80014f2:	408b      	lsls	r3, r1
 80014f4:	431f      	orrs	r7, r3
 80014f6:	2301      	movs	r3, #1
 80014f8:	6087      	str	r7, [r0, #8]
 80014fa:	6847      	ldr	r7, [r0, #4]
 80014fc:	43af      	bics	r7, r5
 80014fe:	0915      	lsrs	r5, r2, #4
 8001500:	401d      	ands	r5, r3
 8001502:	40a5      	lsls	r5, r4
 8001504:	465b      	mov	r3, fp
 8001506:	433d      	orrs	r5, r7
 8001508:	6045      	str	r5, [r0, #4]
 800150a:	68c5      	ldr	r5, [r0, #12]
 800150c:	401d      	ands	r5, r3
 800150e:	9b00      	ldr	r3, [sp, #0]
 8001510:	432e      	orrs	r6, r5
 8001512:	60c6      	str	r6, [r0, #12]
 8001514:	2b02      	cmp	r3, #2
 8001516:	d000      	beq.n	800151a <HAL_GPIO_Init+0x142>
 8001518:	e78b      	b.n	8001432 <HAL_GPIO_Init+0x5a>
 800151a:	2607      	movs	r6, #7
 800151c:	4026      	ands	r6, r4
 800151e:	00b6      	lsls	r6, r6, #2
 8001520:	330d      	adds	r3, #13
 8001522:	40b3      	lsls	r3, r6
 8001524:	08e5      	lsrs	r5, r4, #3
 8001526:	00ad      	lsls	r5, r5, #2
 8001528:	1945      	adds	r5, r0, r5
 800152a:	6a2f      	ldr	r7, [r5, #32]
 800152c:	439f      	bics	r7, r3
 800152e:	4653      	mov	r3, sl
 8001530:	691b      	ldr	r3, [r3, #16]
 8001532:	40b3      	lsls	r3, r6
 8001534:	431f      	orrs	r7, r3
 8001536:	622f      	str	r7, [r5, #32]
 8001538:	e77b      	b.n	8001432 <HAL_GPIO_Init+0x5a>
 800153a:	4641      	mov	r1, r8
 800153c:	430b      	orrs	r3, r1
 800153e:	4649      	mov	r1, r9
 8001540:	600b      	str	r3, [r1, #0]
 8001542:	6849      	ldr	r1, [r1, #4]
 8001544:	0393      	lsls	r3, r2, #14
 8001546:	d5b5      	bpl.n	80014b4 <HAL_GPIO_Init+0xdc>
 8001548:	4643      	mov	r3, r8
 800154a:	4319      	orrs	r1, r3
 800154c:	464b      	mov	r3, r9
 800154e:	6059      	str	r1, [r3, #4]
 8001550:	6899      	ldr	r1, [r3, #8]
 8001552:	02d3      	lsls	r3, r2, #11
 8001554:	d5b4      	bpl.n	80014c0 <HAL_GPIO_Init+0xe8>
 8001556:	4643      	mov	r3, r8
 8001558:	4319      	orrs	r1, r3
 800155a:	464b      	mov	r3, r9
 800155c:	6099      	str	r1, [r3, #8]
 800155e:	68db      	ldr	r3, [r3, #12]
 8001560:	0292      	lsls	r2, r2, #10
 8001562:	d5b3      	bpl.n	80014cc <HAL_GPIO_Init+0xf4>
 8001564:	4642      	mov	r2, r8
 8001566:	431a      	orrs	r2, r3
 8001568:	0013      	movs	r3, r2
 800156a:	e7b0      	b.n	80014ce <HAL_GPIO_Init+0xf6>
 800156c:	2602      	movs	r6, #2
 800156e:	40ae      	lsls	r6, r5
 8001570:	4331      	orrs	r1, r6
 8001572:	e792      	b.n	800149a <HAL_GPIO_Init+0xc2>
 8001574:	2601      	movs	r6, #1
 8001576:	40ae      	lsls	r6, r5
 8001578:	4331      	orrs	r1, r6
 800157a:	e78e      	b.n	800149a <HAL_GPIO_Init+0xc2>
 800157c:	2603      	movs	r6, #3
 800157e:	40ae      	lsls	r6, r5
 8001580:	4331      	orrs	r1, r6
 8001582:	e78a      	b.n	800149a <HAL_GPIO_Init+0xc2>
 8001584:	40021000 	.word	0x40021000
 8001588:	40010400 	.word	0x40010400
 800158c:	40010000 	.word	0x40010000
 8001590:	48000400 	.word	0x48000400
 8001594:	48000800 	.word	0x48000800
 8001598:	48000c00 	.word	0x48000c00

0800159c <HAL_GPIO_WritePin>:
 800159c:	2a00      	cmp	r2, #0
 800159e:	d101      	bne.n	80015a4 <HAL_GPIO_WritePin+0x8>
 80015a0:	6281      	str	r1, [r0, #40]	; 0x28
 80015a2:	4770      	bx	lr
 80015a4:	6181      	str	r1, [r0, #24]
 80015a6:	e7fc      	b.n	80015a2 <HAL_GPIO_WritePin+0x6>

080015a8 <I2C_WaitOnTXISFlagUntilTimeout>:
 80015a8:	2310      	movs	r3, #16
 80015aa:	b5f0      	push	{r4, r5, r6, r7, lr}
 80015ac:	46c6      	mov	lr, r8
 80015ae:	0004      	movs	r4, r0
 80015b0:	000d      	movs	r5, r1
 80015b2:	0016      	movs	r6, r2
 80015b4:	2702      	movs	r7, #2
 80015b6:	4698      	mov	r8, r3
 80015b8:	b500      	push	{lr}
 80015ba:	6823      	ldr	r3, [r4, #0]
 80015bc:	1c6a      	adds	r2, r5, #1
 80015be:	d131      	bne.n	8001624 <I2C_WaitOnTXISFlagUntilTimeout+0x7c>
 80015c0:	2102      	movs	r1, #2
 80015c2:	2010      	movs	r0, #16
 80015c4:	699a      	ldr	r2, [r3, #24]
 80015c6:	4211      	tst	r1, r2
 80015c8:	d12a      	bne.n	8001620 <I2C_WaitOnTXISFlagUntilTimeout+0x78>
 80015ca:	699a      	ldr	r2, [r3, #24]
 80015cc:	4210      	tst	r0, r2
 80015ce:	d0f9      	beq.n	80015c4 <I2C_WaitOnTXISFlagUntilTimeout+0x1c>
 80015d0:	2120      	movs	r1, #32
 80015d2:	699a      	ldr	r2, [r3, #24]
 80015d4:	4211      	tst	r1, r2
 80015d6:	d0fc      	beq.n	80015d2 <I2C_WaitOnTXISFlagUntilTimeout+0x2a>
 80015d8:	2210      	movs	r2, #16
 80015da:	61da      	str	r2, [r3, #28]
 80015dc:	3210      	adds	r2, #16
 80015de:	61da      	str	r2, [r3, #28]
 80015e0:	699a      	ldr	r2, [r3, #24]
 80015e2:	0792      	lsls	r2, r2, #30
 80015e4:	d501      	bpl.n	80015ea <I2C_WaitOnTXISFlagUntilTimeout+0x42>
 80015e6:	2200      	movs	r2, #0
 80015e8:	629a      	str	r2, [r3, #40]	; 0x28
 80015ea:	2201      	movs	r2, #1
 80015ec:	6999      	ldr	r1, [r3, #24]
 80015ee:	420a      	tst	r2, r1
 80015f0:	d102      	bne.n	80015f8 <I2C_WaitOnTXISFlagUntilTimeout+0x50>
 80015f2:	6999      	ldr	r1, [r3, #24]
 80015f4:	430a      	orrs	r2, r1
 80015f6:	619a      	str	r2, [r3, #24]
 80015f8:	685a      	ldr	r2, [r3, #4]
 80015fa:	491b      	ldr	r1, [pc, #108]	; (8001668 <I2C_WaitOnTXISFlagUntilTimeout+0xc0>)
 80015fc:	400a      	ands	r2, r1
 80015fe:	605a      	str	r2, [r3, #4]
 8001600:	2204      	movs	r2, #4
 8001602:	6c63      	ldr	r3, [r4, #68]	; 0x44
 8001604:	4313      	orrs	r3, r2
 8001606:	6463      	str	r3, [r4, #68]	; 0x44
 8001608:	2341      	movs	r3, #65	; 0x41
 800160a:	321c      	adds	r2, #28
 800160c:	54e2      	strb	r2, [r4, r3]
 800160e:	2300      	movs	r3, #0
 8001610:	2001      	movs	r0, #1
 8001612:	3222      	adds	r2, #34	; 0x22
 8001614:	54a3      	strb	r3, [r4, r2]
 8001616:	3a02      	subs	r2, #2
 8001618:	54a3      	strb	r3, [r4, r2]
 800161a:	bc04      	pop	{r2}
 800161c:	4690      	mov	r8, r2
 800161e:	bdf0      	pop	{r4, r5, r6, r7, pc}
 8001620:	2000      	movs	r0, #0
 8001622:	e7fa      	b.n	800161a <I2C_WaitOnTXISFlagUntilTimeout+0x72>
 8001624:	699a      	ldr	r2, [r3, #24]
 8001626:	4217      	tst	r7, r2
 8001628:	d1fa      	bne.n	8001620 <I2C_WaitOnTXISFlagUntilTimeout+0x78>
 800162a:	4641      	mov	r1, r8
 800162c:	699a      	ldr	r2, [r3, #24]
 800162e:	4211      	tst	r1, r2
 8001630:	d10c      	bne.n	800164c <I2C_WaitOnTXISFlagUntilTimeout+0xa4>
 8001632:	f7ff fd9b 	bl	800116c <HAL_GetTick>
 8001636:	1b80      	subs	r0, r0, r6
 8001638:	42a8      	cmp	r0, r5
 800163a:	d801      	bhi.n	8001640 <I2C_WaitOnTXISFlagUntilTimeout+0x98>
 800163c:	2d00      	cmp	r5, #0
 800163e:	d1bc      	bne.n	80015ba <I2C_WaitOnTXISFlagUntilTimeout+0x12>
 8001640:	2220      	movs	r2, #32
 8001642:	6c63      	ldr	r3, [r4, #68]	; 0x44
 8001644:	4313      	orrs	r3, r2
 8001646:	6463      	str	r3, [r4, #68]	; 0x44
 8001648:	2341      	movs	r3, #65	; 0x41
 800164a:	e7df      	b.n	800160c <I2C_WaitOnTXISFlagUntilTimeout+0x64>
 800164c:	2720      	movs	r7, #32
 800164e:	e007      	b.n	8001660 <I2C_WaitOnTXISFlagUntilTimeout+0xb8>
 8001650:	f7ff fd8c 	bl	800116c <HAL_GetTick>
 8001654:	1b80      	subs	r0, r0, r6
 8001656:	4285      	cmp	r5, r0
 8001658:	d3f2      	bcc.n	8001640 <I2C_WaitOnTXISFlagUntilTimeout+0x98>
 800165a:	2d00      	cmp	r5, #0
 800165c:	d0f0      	beq.n	8001640 <I2C_WaitOnTXISFlagUntilTimeout+0x98>
 800165e:	6823      	ldr	r3, [r4, #0]
 8001660:	699a      	ldr	r2, [r3, #24]
 8001662:	4217      	tst	r7, r2
 8001664:	d0f4      	beq.n	8001650 <I2C_WaitOnTXISFlagUntilTimeout+0xa8>
 8001666:	e7b7      	b.n	80015d8 <I2C_WaitOnTXISFlagUntilTimeout+0x30>
 8001668:	fe00e800 	.word	0xfe00e800

0800166c <I2C_WaitOnSTOPFlagUntilTimeout>:
 800166c:	b5f0      	push	{r4, r5, r6, r7, lr}
 800166e:	46c6      	mov	lr, r8
 8001670:	0004      	movs	r4, r0
 8001672:	b500      	push	{lr}
 8001674:	000d      	movs	r5, r1
 8001676:	0016      	movs	r6, r2
 8001678:	2900      	cmp	r1, #0
 800167a:	d04c      	beq.n	8001716 <I2C_WaitOnSTOPFlagUntilTimeout+0xaa>
 800167c:	2310      	movs	r3, #16
 800167e:	2720      	movs	r7, #32
 8001680:	4698      	mov	r8, r3
 8001682:	6823      	ldr	r3, [r4, #0]
 8001684:	699a      	ldr	r2, [r3, #24]
 8001686:	4217      	tst	r7, r2
 8001688:	d154      	bne.n	8001734 <I2C_WaitOnSTOPFlagUntilTimeout+0xc8>
 800168a:	4641      	mov	r1, r8
 800168c:	699a      	ldr	r2, [r3, #24]
 800168e:	4211      	tst	r1, r2
 8001690:	d02a      	beq.n	80016e8 <I2C_WaitOnSTOPFlagUntilTimeout+0x7c>
 8001692:	2720      	movs	r7, #32
 8001694:	1c6a      	adds	r2, r5, #1
 8001696:	d132      	bne.n	80016fe <I2C_WaitOnSTOPFlagUntilTimeout+0x92>
 8001698:	2120      	movs	r1, #32
 800169a:	699a      	ldr	r2, [r3, #24]
 800169c:	4211      	tst	r1, r2
 800169e:	d0fc      	beq.n	800169a <I2C_WaitOnSTOPFlagUntilTimeout+0x2e>
 80016a0:	2210      	movs	r2, #16
 80016a2:	61da      	str	r2, [r3, #28]
 80016a4:	3210      	adds	r2, #16
 80016a6:	61da      	str	r2, [r3, #28]
 80016a8:	699a      	ldr	r2, [r3, #24]
 80016aa:	0792      	lsls	r2, r2, #30
 80016ac:	d501      	bpl.n	80016b2 <I2C_WaitOnSTOPFlagUntilTimeout+0x46>
 80016ae:	2200      	movs	r2, #0
 80016b0:	629a      	str	r2, [r3, #40]	; 0x28
 80016b2:	2201      	movs	r2, #1
 80016b4:	6999      	ldr	r1, [r3, #24]
 80016b6:	420a      	tst	r2, r1
 80016b8:	d102      	bne.n	80016c0 <I2C_WaitOnSTOPFlagUntilTimeout+0x54>
 80016ba:	6999      	ldr	r1, [r3, #24]
 80016bc:	430a      	orrs	r2, r1
 80016be:	619a      	str	r2, [r3, #24]
 80016c0:	685a      	ldr	r2, [r3, #4]
 80016c2:	491d      	ldr	r1, [pc, #116]	; (8001738 <I2C_WaitOnSTOPFlagUntilTimeout+0xcc>)
 80016c4:	400a      	ands	r2, r1
 80016c6:	605a      	str	r2, [r3, #4]
 80016c8:	2204      	movs	r2, #4
 80016ca:	6c63      	ldr	r3, [r4, #68]	; 0x44
 80016cc:	4313      	orrs	r3, r2
 80016ce:	6463      	str	r3, [r4, #68]	; 0x44
 80016d0:	2341      	movs	r3, #65	; 0x41
 80016d2:	321c      	adds	r2, #28
 80016d4:	54e2      	strb	r2, [r4, r3]
 80016d6:	2300      	movs	r3, #0
 80016d8:	2001      	movs	r0, #1
 80016da:	3222      	adds	r2, #34	; 0x22
 80016dc:	54a3      	strb	r3, [r4, r2]
 80016de:	3a02      	subs	r2, #2
 80016e0:	54a3      	strb	r3, [r4, r2]
 80016e2:	bc04      	pop	{r2}
 80016e4:	4690      	mov	r8, r2
 80016e6:	bdf0      	pop	{r4, r5, r6, r7, pc}
 80016e8:	f7ff fd40 	bl	800116c <HAL_GetTick>
 80016ec:	1b80      	subs	r0, r0, r6
 80016ee:	4285      	cmp	r5, r0
 80016f0:	d2c7      	bcs.n	8001682 <I2C_WaitOnSTOPFlagUntilTimeout+0x16>
 80016f2:	2220      	movs	r2, #32
 80016f4:	6c63      	ldr	r3, [r4, #68]	; 0x44
 80016f6:	4313      	orrs	r3, r2
 80016f8:	6463      	str	r3, [r4, #68]	; 0x44
 80016fa:	2341      	movs	r3, #65	; 0x41
 80016fc:	e7ea      	b.n	80016d4 <I2C_WaitOnSTOPFlagUntilTimeout+0x68>
 80016fe:	699a      	ldr	r2, [r3, #24]
 8001700:	4217      	tst	r7, r2
 8001702:	d1cd      	bne.n	80016a0 <I2C_WaitOnSTOPFlagUntilTimeout+0x34>
 8001704:	f7ff fd32 	bl	800116c <HAL_GetTick>
 8001708:	1b80      	subs	r0, r0, r6
 800170a:	4285      	cmp	r5, r0
 800170c:	d3f1      	bcc.n	80016f2 <I2C_WaitOnSTOPFlagUntilTimeout+0x86>
 800170e:	2d00      	cmp	r5, #0
 8001710:	d0ef      	beq.n	80016f2 <I2C_WaitOnSTOPFlagUntilTimeout+0x86>
 8001712:	6823      	ldr	r3, [r4, #0]
 8001714:	e7be      	b.n	8001694 <I2C_WaitOnSTOPFlagUntilTimeout+0x28>
 8001716:	6803      	ldr	r3, [r0, #0]
 8001718:	699a      	ldr	r2, [r3, #24]
 800171a:	0692      	lsls	r2, r2, #26
 800171c:	d40a      	bmi.n	8001734 <I2C_WaitOnSTOPFlagUntilTimeout+0xc8>
 800171e:	699a      	ldr	r2, [r3, #24]
 8001720:	06d2      	lsls	r2, r2, #27
 8001722:	d4b6      	bmi.n	8001692 <I2C_WaitOnSTOPFlagUntilTimeout+0x26>
 8001724:	f7ff fd22 	bl	800116c <HAL_GetTick>
 8001728:	2220      	movs	r2, #32
 800172a:	6c63      	ldr	r3, [r4, #68]	; 0x44
 800172c:	4313      	orrs	r3, r2
 800172e:	6463      	str	r3, [r4, #68]	; 0x44
 8001730:	2341      	movs	r3, #65	; 0x41
 8001732:	e7cf      	b.n	80016d4 <I2C_WaitOnSTOPFlagUntilTimeout+0x68>
 8001734:	2000      	movs	r0, #0
 8001736:	e7d4      	b.n	80016e2 <I2C_WaitOnSTOPFlagUntilTimeout+0x76>
 8001738:	fe00e800 	.word	0xfe00e800

0800173c <HAL_I2C_Init>:
 800173c:	b510      	push	{r4, lr}
 800173e:	1e04      	subs	r4, r0, #0
 8001740:	d04c      	beq.n	80017dc <HAL_I2C_Init+0xa0>
 8001742:	2341      	movs	r3, #65	; 0x41
 8001744:	5cc3      	ldrb	r3, [r0, r3]
 8001746:	b2db      	uxtb	r3, r3
 8001748:	2b00      	cmp	r3, #0
 800174a:	d042      	beq.n	80017d2 <HAL_I2C_Init+0x96>
 800174c:	2341      	movs	r3, #65	; 0x41
 800174e:	2224      	movs	r2, #36	; 0x24
 8001750:	2101      	movs	r1, #1
 8001752:	54e2      	strb	r2, [r4, r3]
 8001754:	6823      	ldr	r3, [r4, #0]
 8001756:	68a0      	ldr	r0, [r4, #8]
 8001758:	681a      	ldr	r2, [r3, #0]
 800175a:	438a      	bics	r2, r1
 800175c:	601a      	str	r2, [r3, #0]
 800175e:	6861      	ldr	r1, [r4, #4]
 8001760:	4a1f      	ldr	r2, [pc, #124]	; (80017e0 <HAL_I2C_Init+0xa4>)
 8001762:	400a      	ands	r2, r1
 8001764:	611a      	str	r2, [r3, #16]
 8001766:	689a      	ldr	r2, [r3, #8]
 8001768:	491e      	ldr	r1, [pc, #120]	; (80017e4 <HAL_I2C_Init+0xa8>)
 800176a:	400a      	ands	r2, r1
 800176c:	609a      	str	r2, [r3, #8]
 800176e:	68e2      	ldr	r2, [r4, #12]
 8001770:	2a01      	cmp	r2, #1
 8001772:	d029      	beq.n	80017c8 <HAL_I2C_Init+0x8c>
 8001774:	2184      	movs	r1, #132	; 0x84
 8001776:	0209      	lsls	r1, r1, #8
 8001778:	4301      	orrs	r1, r0
 800177a:	6099      	str	r1, [r3, #8]
 800177c:	2a02      	cmp	r2, #2
 800177e:	d102      	bne.n	8001786 <HAL_I2C_Init+0x4a>
 8001780:	2280      	movs	r2, #128	; 0x80
 8001782:	0112      	lsls	r2, r2, #4
 8001784:	605a      	str	r2, [r3, #4]
 8001786:	6859      	ldr	r1, [r3, #4]
 8001788:	4a17      	ldr	r2, [pc, #92]	; (80017e8 <HAL_I2C_Init+0xac>)
 800178a:	2000      	movs	r0, #0
 800178c:	430a      	orrs	r2, r1
 800178e:	605a      	str	r2, [r3, #4]
 8001790:	68da      	ldr	r2, [r3, #12]
 8001792:	4914      	ldr	r1, [pc, #80]	; (80017e4 <HAL_I2C_Init+0xa8>)
 8001794:	400a      	ands	r2, r1
 8001796:	60da      	str	r2, [r3, #12]
 8001798:	6961      	ldr	r1, [r4, #20]
 800179a:	6922      	ldr	r2, [r4, #16]
 800179c:	430a      	orrs	r2, r1
 800179e:	69a1      	ldr	r1, [r4, #24]
 80017a0:	0209      	lsls	r1, r1, #8
 80017a2:	430a      	orrs	r2, r1
 80017a4:	60da      	str	r2, [r3, #12]
 80017a6:	6a21      	ldr	r1, [r4, #32]
 80017a8:	69e2      	ldr	r2, [r4, #28]
 80017aa:	430a      	orrs	r2, r1
 80017ac:	2101      	movs	r1, #1
 80017ae:	601a      	str	r2, [r3, #0]
 80017b0:	681a      	ldr	r2, [r3, #0]
 80017b2:	430a      	orrs	r2, r1
 80017b4:	601a      	str	r2, [r3, #0]
 80017b6:	2300      	movs	r3, #0
 80017b8:	2241      	movs	r2, #65	; 0x41
 80017ba:	311f      	adds	r1, #31
 80017bc:	6463      	str	r3, [r4, #68]	; 0x44
 80017be:	54a1      	strb	r1, [r4, r2]
 80017c0:	3201      	adds	r2, #1
 80017c2:	6323      	str	r3, [r4, #48]	; 0x30
 80017c4:	54a3      	strb	r3, [r4, r2]
 80017c6:	bd10      	pop	{r4, pc}
 80017c8:	2180      	movs	r1, #128	; 0x80
 80017ca:	0209      	lsls	r1, r1, #8
 80017cc:	4301      	orrs	r1, r0
 80017ce:	6099      	str	r1, [r3, #8]
 80017d0:	e7d9      	b.n	8001786 <HAL_I2C_Init+0x4a>
 80017d2:	2240      	movs	r2, #64	; 0x40
 80017d4:	5483      	strb	r3, [r0, r2]
 80017d6:	f004 fb95 	bl	8005f04 <HAL_I2C_MspInit>
 80017da:	e7b7      	b.n	800174c <HAL_I2C_Init+0x10>
 80017dc:	2001      	movs	r0, #1
 80017de:	e7f2      	b.n	80017c6 <HAL_I2C_Init+0x8a>
 80017e0:	f0ffffff 	.word	0xf0ffffff
 80017e4:	ffff7fff 	.word	0xffff7fff
 80017e8:	02008000 	.word	0x02008000

080017ec <HAL_I2C_Mem_Write>:
 80017ec:	b5f8      	push	{r3, r4, r5, r6, r7, lr}
 80017ee:	4657      	mov	r7, sl
 80017f0:	46de      	mov	lr, fp
 80017f2:	464e      	mov	r6, r9
 80017f4:	4645      	mov	r5, r8
 80017f6:	b5e0      	push	{r5, r6, r7, lr}
 80017f8:	469a      	mov	sl, r3
 80017fa:	ab0a      	add	r3, sp, #40	; 0x28
 80017fc:	cb40      	ldmia	r3!, {r6}
 80017fe:	0004      	movs	r4, r0
 8001800:	881b      	ldrh	r3, [r3, #0]
 8001802:	000f      	movs	r7, r1
 8001804:	4698      	mov	r8, r3
 8001806:	2341      	movs	r3, #65	; 0x41
 8001808:	5cc3      	ldrb	r3, [r0, r3]
 800180a:	4693      	mov	fp, r2
 800180c:	2002      	movs	r0, #2
 800180e:	2b20      	cmp	r3, #32
 8001810:	d000      	beq.n	8001814 <HAL_I2C_Mem_Write+0x28>
 8001812:	e0b2      	b.n	800197a <HAL_I2C_Mem_Write+0x18e>
 8001814:	2e00      	cmp	r6, #0
 8001816:	d100      	bne.n	800181a <HAL_I2C_Mem_Write+0x2e>
 8001818:	e0b5      	b.n	8001986 <HAL_I2C_Mem_Write+0x19a>
 800181a:	4643      	mov	r3, r8
 800181c:	2b00      	cmp	r3, #0
 800181e:	d100      	bne.n	8001822 <HAL_I2C_Mem_Write+0x36>
 8001820:	e0b1      	b.n	8001986 <HAL_I2C_Mem_Write+0x19a>
 8001822:	2340      	movs	r3, #64	; 0x40
 8001824:	5ce2      	ldrb	r2, [r4, r3]
 8001826:	2a01      	cmp	r2, #1
 8001828:	d100      	bne.n	800182c <HAL_I2C_Mem_Write+0x40>
 800182a:	e0a6      	b.n	800197a <HAL_I2C_Mem_Write+0x18e>
 800182c:	2201      	movs	r2, #1
 800182e:	54e2      	strb	r2, [r4, r3]
 8001830:	f7ff fc9c 	bl	800116c <HAL_GetTick>
 8001834:	2380      	movs	r3, #128	; 0x80
 8001836:	021b      	lsls	r3, r3, #8
 8001838:	0005      	movs	r5, r0
 800183a:	4699      	mov	r9, r3
 800183c:	e005      	b.n	800184a <HAL_I2C_Mem_Write+0x5e>
 800183e:	f7ff fc95 	bl	800116c <HAL_GetTick>
 8001842:	1b40      	subs	r0, r0, r5
 8001844:	2819      	cmp	r0, #25
 8001846:	d900      	bls.n	800184a <HAL_I2C_Mem_Write+0x5e>
 8001848:	e0a2      	b.n	8001990 <HAL_I2C_Mem_Write+0x1a4>
 800184a:	4649      	mov	r1, r9
 800184c:	6822      	ldr	r2, [r4, #0]
 800184e:	6993      	ldr	r3, [r2, #24]
 8001850:	400b      	ands	r3, r1
 8001852:	d1f4      	bne.n	800183e <HAL_I2C_Mem_Write+0x52>
 8001854:	2141      	movs	r1, #65	; 0x41
 8001856:	2021      	movs	r0, #33	; 0x21
 8001858:	5460      	strb	r0, [r4, r1]
 800185a:	3101      	adds	r1, #1
 800185c:	301f      	adds	r0, #31
 800185e:	5460      	strb	r0, [r4, r1]
 8001860:	6463      	str	r3, [r4, #68]	; 0x44
 8001862:	6363      	str	r3, [r4, #52]	; 0x34
 8001864:	4653      	mov	r3, sl
 8001866:	4641      	mov	r1, r8
 8001868:	b2d8      	uxtb	r0, r3
 800186a:	4b72      	ldr	r3, [pc, #456]	; (8001a34 <HAL_I2C_Mem_Write+0x248>)
 800186c:	8561      	strh	r1, [r4, #42]	; 0x2a
 800186e:	0400      	lsls	r0, r0, #16
 8001870:	6851      	ldr	r1, [r2, #4]
 8001872:	4303      	orrs	r3, r0
 8001874:	05bf      	lsls	r7, r7, #22
 8001876:	4870      	ldr	r0, [pc, #448]	; (8001a38 <HAL_I2C_Mem_Write+0x24c>)
 8001878:	0dbf      	lsrs	r7, r7, #22
 800187a:	4001      	ands	r1, r0
 800187c:	433b      	orrs	r3, r7
 800187e:	430b      	orrs	r3, r1
 8001880:	6266      	str	r6, [r4, #36]	; 0x24
 8001882:	990c      	ldr	r1, [sp, #48]	; 0x30
 8001884:	6053      	str	r3, [r2, #4]
 8001886:	0020      	movs	r0, r4
 8001888:	002a      	movs	r2, r5
 800188a:	f7ff fe8d 	bl	80015a8 <I2C_WaitOnTXISFlagUntilTimeout>
 800188e:	2800      	cmp	r0, #0
 8001890:	d000      	beq.n	8001894 <HAL_I2C_Mem_Write+0xa8>
 8001892:	e093      	b.n	80019bc <HAL_I2C_Mem_Write+0x1d0>
 8001894:	4653      	mov	r3, sl
 8001896:	6822      	ldr	r2, [r4, #0]
 8001898:	2b01      	cmp	r3, #1
 800189a:	d00b      	beq.n	80018b4 <HAL_I2C_Mem_Write+0xc8>
 800189c:	465b      	mov	r3, fp
 800189e:	0a1b      	lsrs	r3, r3, #8
 80018a0:	6293      	str	r3, [r2, #40]	; 0x28
 80018a2:	990c      	ldr	r1, [sp, #48]	; 0x30
 80018a4:	002a      	movs	r2, r5
 80018a6:	0020      	movs	r0, r4
 80018a8:	f7ff fe7e 	bl	80015a8 <I2C_WaitOnTXISFlagUntilTimeout>
 80018ac:	2800      	cmp	r0, #0
 80018ae:	d000      	beq.n	80018b2 <HAL_I2C_Mem_Write+0xc6>
 80018b0:	e084      	b.n	80019bc <HAL_I2C_Mem_Write+0x1d0>
 80018b2:	6822      	ldr	r2, [r4, #0]
 80018b4:	465b      	mov	r3, fp
 80018b6:	2680      	movs	r6, #128	; 0x80
 80018b8:	b2db      	uxtb	r3, r3
 80018ba:	6293      	str	r3, [r2, #40]	; 0x28
 80018bc:	9b0c      	ldr	r3, [sp, #48]	; 0x30
 80018be:	3301      	adds	r3, #1
 80018c0:	d000      	beq.n	80018c4 <HAL_I2C_Mem_Write+0xd8>
 80018c2:	e08d      	b.n	80019e0 <HAL_I2C_Mem_Write+0x1f4>
 80018c4:	2180      	movs	r1, #128	; 0x80
 80018c6:	6993      	ldr	r3, [r2, #24]
 80018c8:	4219      	tst	r1, r3
 80018ca:	d0fc      	beq.n	80018c6 <HAL_I2C_Mem_Write+0xda>
 80018cc:	8d63      	ldrh	r3, [r4, #42]	; 0x2a
 80018ce:	2bff      	cmp	r3, #255	; 0xff
 80018d0:	d800      	bhi.n	80018d4 <HAL_I2C_Mem_Write+0xe8>
 80018d2:	e0a0      	b.n	8001a16 <HAL_I2C_Mem_Write+0x22a>
 80018d4:	23ff      	movs	r3, #255	; 0xff
 80018d6:	4959      	ldr	r1, [pc, #356]	; (8001a3c <HAL_I2C_Mem_Write+0x250>)
 80018d8:	8523      	strh	r3, [r4, #40]	; 0x28
 80018da:	6853      	ldr	r3, [r2, #4]
 80018dc:	400b      	ands	r3, r1
 80018de:	4958      	ldr	r1, [pc, #352]	; (8001a40 <HAL_I2C_Mem_Write+0x254>)
 80018e0:	4339      	orrs	r1, r7
 80018e2:	430b      	orrs	r3, r1
 80018e4:	6053      	str	r3, [r2, #4]
 80018e6:	2380      	movs	r3, #128	; 0x80
 80018e8:	049b      	lsls	r3, r3, #18
 80018ea:	433b      	orrs	r3, r7
 80018ec:	2680      	movs	r6, #128	; 0x80
 80018ee:	4698      	mov	r8, r3
 80018f0:	e002      	b.n	80018f8 <HAL_I2C_Mem_Write+0x10c>
 80018f2:	8d63      	ldrh	r3, [r4, #42]	; 0x2a
 80018f4:	2b00      	cmp	r3, #0
 80018f6:	d02c      	beq.n	8001952 <HAL_I2C_Mem_Write+0x166>
 80018f8:	002a      	movs	r2, r5
 80018fa:	990c      	ldr	r1, [sp, #48]	; 0x30
 80018fc:	0020      	movs	r0, r4
 80018fe:	f7ff fe53 	bl	80015a8 <I2C_WaitOnTXISFlagUntilTimeout>
 8001902:	2800      	cmp	r0, #0
 8001904:	d14f      	bne.n	80019a6 <HAL_I2C_Mem_Write+0x1ba>
 8001906:	6a63      	ldr	r3, [r4, #36]	; 0x24
 8001908:	6822      	ldr	r2, [r4, #0]
 800190a:	7819      	ldrb	r1, [r3, #0]
 800190c:	3301      	adds	r3, #1
 800190e:	6291      	str	r1, [r2, #40]	; 0x28
 8001910:	6263      	str	r3, [r4, #36]	; 0x24
 8001912:	8d63      	ldrh	r3, [r4, #42]	; 0x2a
 8001914:	3b01      	subs	r3, #1
 8001916:	b29b      	uxth	r3, r3
 8001918:	8563      	strh	r3, [r4, #42]	; 0x2a
 800191a:	8d23      	ldrh	r3, [r4, #40]	; 0x28
 800191c:	8d61      	ldrh	r1, [r4, #42]	; 0x2a
 800191e:	3b01      	subs	r3, #1
 8001920:	b29b      	uxth	r3, r3
 8001922:	8523      	strh	r3, [r4, #40]	; 0x28
 8001924:	2900      	cmp	r1, #0
 8001926:	d0e4      	beq.n	80018f2 <HAL_I2C_Mem_Write+0x106>
 8001928:	2b00      	cmp	r3, #0
 800192a:	d1e2      	bne.n	80018f2 <HAL_I2C_Mem_Write+0x106>
 800192c:	9b0c      	ldr	r3, [sp, #48]	; 0x30
 800192e:	3301      	adds	r3, #1
 8001930:	d149      	bne.n	80019c6 <HAL_I2C_Mem_Write+0x1da>
 8001932:	6993      	ldr	r3, [r2, #24]
 8001934:	421e      	tst	r6, r3
 8001936:	d0fc      	beq.n	8001932 <HAL_I2C_Mem_Write+0x146>
 8001938:	8d63      	ldrh	r3, [r4, #42]	; 0x2a
 800193a:	2bff      	cmp	r3, #255	; 0xff
 800193c:	d95e      	bls.n	80019fc <HAL_I2C_Mem_Write+0x210>
 800193e:	23ff      	movs	r3, #255	; 0xff
 8001940:	493e      	ldr	r1, [pc, #248]	; (8001a3c <HAL_I2C_Mem_Write+0x250>)
 8001942:	8523      	strh	r3, [r4, #40]	; 0x28
 8001944:	6853      	ldr	r3, [r2, #4]
 8001946:	400b      	ands	r3, r1
 8001948:	493d      	ldr	r1, [pc, #244]	; (8001a40 <HAL_I2C_Mem_Write+0x254>)
 800194a:	4339      	orrs	r1, r7
 800194c:	430b      	orrs	r3, r1
 800194e:	6053      	str	r3, [r2, #4]
 8001950:	e7cf      	b.n	80018f2 <HAL_I2C_Mem_Write+0x106>
 8001952:	002a      	movs	r2, r5
 8001954:	990c      	ldr	r1, [sp, #48]	; 0x30
 8001956:	0020      	movs	r0, r4
 8001958:	f7ff fe88 	bl	800166c <I2C_WaitOnSTOPFlagUntilTimeout>
 800195c:	2800      	cmp	r0, #0
 800195e:	d122      	bne.n	80019a6 <HAL_I2C_Mem_Write+0x1ba>
 8001960:	2120      	movs	r1, #32
 8001962:	6823      	ldr	r3, [r4, #0]
 8001964:	4d37      	ldr	r5, [pc, #220]	; (8001a44 <HAL_I2C_Mem_Write+0x258>)
 8001966:	61d9      	str	r1, [r3, #28]
 8001968:	685a      	ldr	r2, [r3, #4]
 800196a:	402a      	ands	r2, r5
 800196c:	605a      	str	r2, [r3, #4]
 800196e:	2341      	movs	r3, #65	; 0x41
 8001970:	54e1      	strb	r1, [r4, r3]
 8001972:	3301      	adds	r3, #1
 8001974:	54e0      	strb	r0, [r4, r3]
 8001976:	3b02      	subs	r3, #2
 8001978:	54e0      	strb	r0, [r4, r3]
 800197a:	bc3c      	pop	{r2, r3, r4, r5}
 800197c:	4690      	mov	r8, r2
 800197e:	4699      	mov	r9, r3
 8001980:	46a2      	mov	sl, r4
 8001982:	46ab      	mov	fp, r5
 8001984:	bdf8      	pop	{r3, r4, r5, r6, r7, pc}
 8001986:	2380      	movs	r3, #128	; 0x80
 8001988:	009b      	lsls	r3, r3, #2
 800198a:	6463      	str	r3, [r4, #68]	; 0x44
 800198c:	2001      	movs	r0, #1
 800198e:	e7f4      	b.n	800197a <HAL_I2C_Mem_Write+0x18e>
 8001990:	2220      	movs	r2, #32
 8001992:	6c63      	ldr	r3, [r4, #68]	; 0x44
 8001994:	4313      	orrs	r3, r2
 8001996:	6463      	str	r3, [r4, #68]	; 0x44
 8001998:	2341      	movs	r3, #65	; 0x41
 800199a:	54e2      	strb	r2, [r4, r3]
 800199c:	2300      	movs	r3, #0
 800199e:	3222      	adds	r2, #34	; 0x22
 80019a0:	54a3      	strb	r3, [r4, r2]
 80019a2:	3a02      	subs	r2, #2
 80019a4:	54a3      	strb	r3, [r4, r2]
 80019a6:	2001      	movs	r0, #1
 80019a8:	e7e7      	b.n	800197a <HAL_I2C_Mem_Write+0x18e>
 80019aa:	2220      	movs	r2, #32
 80019ac:	6c63      	ldr	r3, [r4, #68]	; 0x44
 80019ae:	4313      	orrs	r3, r2
 80019b0:	6463      	str	r3, [r4, #68]	; 0x44
 80019b2:	2341      	movs	r3, #65	; 0x41
 80019b4:	54e2      	strb	r2, [r4, r3]
 80019b6:	2200      	movs	r2, #0
 80019b8:	3301      	adds	r3, #1
 80019ba:	54e2      	strb	r2, [r4, r3]
 80019bc:	2340      	movs	r3, #64	; 0x40
 80019be:	2200      	movs	r2, #0
 80019c0:	2001      	movs	r0, #1
 80019c2:	54e2      	strb	r2, [r4, r3]
 80019c4:	e7d9      	b.n	800197a <HAL_I2C_Mem_Write+0x18e>
 80019c6:	6993      	ldr	r3, [r2, #24]
 80019c8:	421e      	tst	r6, r3
 80019ca:	d1b5      	bne.n	8001938 <HAL_I2C_Mem_Write+0x14c>
 80019cc:	f7ff fbce 	bl	800116c <HAL_GetTick>
 80019d0:	9b0c      	ldr	r3, [sp, #48]	; 0x30
 80019d2:	1b40      	subs	r0, r0, r5
 80019d4:	4283      	cmp	r3, r0
 80019d6:	d3db      	bcc.n	8001990 <HAL_I2C_Mem_Write+0x1a4>
 80019d8:	2b00      	cmp	r3, #0
 80019da:	d0d9      	beq.n	8001990 <HAL_I2C_Mem_Write+0x1a4>
 80019dc:	6822      	ldr	r2, [r4, #0]
 80019de:	e7a6      	b.n	800192e <HAL_I2C_Mem_Write+0x142>
 80019e0:	6993      	ldr	r3, [r2, #24]
 80019e2:	421e      	tst	r6, r3
 80019e4:	d000      	beq.n	80019e8 <HAL_I2C_Mem_Write+0x1fc>
 80019e6:	e771      	b.n	80018cc <HAL_I2C_Mem_Write+0xe0>
 80019e8:	f7ff fbc0 	bl	800116c <HAL_GetTick>
 80019ec:	9b0c      	ldr	r3, [sp, #48]	; 0x30
 80019ee:	1b40      	subs	r0, r0, r5
 80019f0:	4283      	cmp	r3, r0
 80019f2:	d3da      	bcc.n	80019aa <HAL_I2C_Mem_Write+0x1be>
 80019f4:	2b00      	cmp	r3, #0
 80019f6:	d0d8      	beq.n	80019aa <HAL_I2C_Mem_Write+0x1be>
 80019f8:	6822      	ldr	r2, [r4, #0]
 80019fa:	e760      	b.n	80018be <HAL_I2C_Mem_Write+0xd2>
 80019fc:	4640      	mov	r0, r8
 80019fe:	8d63      	ldrh	r3, [r4, #42]	; 0x2a
 8001a00:	6851      	ldr	r1, [r2, #4]
 8001a02:	b29b      	uxth	r3, r3
 8001a04:	8523      	strh	r3, [r4, #40]	; 0x28
 8001a06:	b2db      	uxtb	r3, r3
 8001a08:	041b      	lsls	r3, r3, #16
 8001a0a:	4303      	orrs	r3, r0
 8001a0c:	480b      	ldr	r0, [pc, #44]	; (8001a3c <HAL_I2C_Mem_Write+0x250>)
 8001a0e:	4001      	ands	r1, r0
 8001a10:	430b      	orrs	r3, r1
 8001a12:	6053      	str	r3, [r2, #4]
 8001a14:	e76d      	b.n	80018f2 <HAL_I2C_Mem_Write+0x106>
 8001a16:	2180      	movs	r1, #128	; 0x80
 8001a18:	8d63      	ldrh	r3, [r4, #42]	; 0x2a
 8001a1a:	0489      	lsls	r1, r1, #18
 8001a1c:	b29b      	uxth	r3, r3
 8001a1e:	8523      	strh	r3, [r4, #40]	; 0x28
 8001a20:	b2db      	uxtb	r3, r3
 8001a22:	4339      	orrs	r1, r7
 8001a24:	041b      	lsls	r3, r3, #16
 8001a26:	6850      	ldr	r0, [r2, #4]
 8001a28:	430b      	orrs	r3, r1
 8001a2a:	4904      	ldr	r1, [pc, #16]	; (8001a3c <HAL_I2C_Mem_Write+0x250>)
 8001a2c:	4001      	ands	r1, r0
 8001a2e:	430b      	orrs	r3, r1
 8001a30:	6053      	str	r3, [r2, #4]
 8001a32:	e758      	b.n	80018e6 <HAL_I2C_Mem_Write+0xfa>
 8001a34:	81002000 	.word	0x81002000
 8001a38:	fc009800 	.word	0xfc009800
 8001a3c:	fc009c00 	.word	0xfc009c00
 8001a40:	01ff0000 	.word	0x01ff0000
 8001a44:	fe00e800 	.word	0xfe00e800

08001a48 <HAL_I2C_Mem_Read>:
 8001a48:	b5f8      	push	{r3, r4, r5, r6, r7, lr}
 8001a4a:	4657      	mov	r7, sl
 8001a4c:	46de      	mov	lr, fp
 8001a4e:	464e      	mov	r6, r9
 8001a50:	4645      	mov	r5, r8
 8001a52:	b5e0      	push	{r5, r6, r7, lr}
 8001a54:	469a      	mov	sl, r3
 8001a56:	ab0a      	add	r3, sp, #40	; 0x28
 8001a58:	cb40      	ldmia	r3!, {r6}
 8001a5a:	0004      	movs	r4, r0
 8001a5c:	881b      	ldrh	r3, [r3, #0]
 8001a5e:	000f      	movs	r7, r1
 8001a60:	4698      	mov	r8, r3
 8001a62:	2341      	movs	r3, #65	; 0x41
 8001a64:	5cc3      	ldrb	r3, [r0, r3]
 8001a66:	4693      	mov	fp, r2
 8001a68:	2002      	movs	r0, #2
 8001a6a:	2b20      	cmp	r3, #32
 8001a6c:	d000      	beq.n	8001a70 <HAL_I2C_Mem_Read+0x28>
 8001a6e:	e0a1      	b.n	8001bb4 <HAL_I2C_Mem_Read+0x16c>
 8001a70:	2e00      	cmp	r6, #0
 8001a72:	d100      	bne.n	8001a76 <HAL_I2C_Mem_Read+0x2e>
 8001a74:	e0a4      	b.n	8001bc0 <HAL_I2C_Mem_Read+0x178>
 8001a76:	4643      	mov	r3, r8
 8001a78:	2b00      	cmp	r3, #0
 8001a7a:	d100      	bne.n	8001a7e <HAL_I2C_Mem_Read+0x36>
 8001a7c:	e0a0      	b.n	8001bc0 <HAL_I2C_Mem_Read+0x178>
 8001a7e:	2340      	movs	r3, #64	; 0x40
 8001a80:	5ce2      	ldrb	r2, [r4, r3]
 8001a82:	2a01      	cmp	r2, #1
 8001a84:	d100      	bne.n	8001a88 <HAL_I2C_Mem_Read+0x40>
 8001a86:	e095      	b.n	8001bb4 <HAL_I2C_Mem_Read+0x16c>
 8001a88:	2201      	movs	r2, #1
 8001a8a:	54e2      	strb	r2, [r4, r3]
 8001a8c:	f7ff fb6e 	bl	800116c <HAL_GetTick>
 8001a90:	2380      	movs	r3, #128	; 0x80
 8001a92:	021b      	lsls	r3, r3, #8
 8001a94:	0005      	movs	r5, r0
 8001a96:	4699      	mov	r9, r3
 8001a98:	e005      	b.n	8001aa6 <HAL_I2C_Mem_Read+0x5e>
 8001a9a:	f7ff fb67 	bl	800116c <HAL_GetTick>
 8001a9e:	1b40      	subs	r0, r0, r5
 8001aa0:	2819      	cmp	r0, #25
 8001aa2:	d900      	bls.n	8001aa6 <HAL_I2C_Mem_Read+0x5e>
 8001aa4:	e09c      	b.n	8001be0 <HAL_I2C_Mem_Read+0x198>
 8001aa6:	4649      	mov	r1, r9
 8001aa8:	6822      	ldr	r2, [r4, #0]
 8001aaa:	6993      	ldr	r3, [r2, #24]
 8001aac:	400b      	ands	r3, r1
 8001aae:	d1f4      	bne.n	8001a9a <HAL_I2C_Mem_Read+0x52>
 8001ab0:	2141      	movs	r1, #65	; 0x41
 8001ab2:	2022      	movs	r0, #34	; 0x22
 8001ab4:	05bf      	lsls	r7, r7, #22
 8001ab6:	5460      	strb	r0, [r4, r1]
 8001ab8:	3101      	adds	r1, #1
 8001aba:	301e      	adds	r0, #30
 8001abc:	5460      	strb	r0, [r4, r1]
 8001abe:	6463      	str	r3, [r4, #68]	; 0x44
 8001ac0:	6363      	str	r3, [r4, #52]	; 0x34
 8001ac2:	0dbb      	lsrs	r3, r7, #22
 8001ac4:	4641      	mov	r1, r8
 8001ac6:	4698      	mov	r8, r3
 8001ac8:	4653      	mov	r3, sl
 8001aca:	b2d8      	uxtb	r0, r3
 8001acc:	4b7b      	ldr	r3, [pc, #492]	; (8001cbc <HAL_I2C_Mem_Read+0x274>)
 8001ace:	0400      	lsls	r0, r0, #16
 8001ad0:	4303      	orrs	r3, r0
 8001ad2:	4640      	mov	r0, r8
 8001ad4:	8561      	strh	r1, [r4, #42]	; 0x2a
 8001ad6:	6851      	ldr	r1, [r2, #4]
 8001ad8:	4303      	orrs	r3, r0
 8001ada:	4879      	ldr	r0, [pc, #484]	; (8001cc0 <HAL_I2C_Mem_Read+0x278>)
 8001adc:	6266      	str	r6, [r4, #36]	; 0x24
 8001ade:	4001      	ands	r1, r0
 8001ae0:	430b      	orrs	r3, r1
 8001ae2:	6053      	str	r3, [r2, #4]
 8001ae4:	990c      	ldr	r1, [sp, #48]	; 0x30
 8001ae6:	002a      	movs	r2, r5
 8001ae8:	0020      	movs	r0, r4
 8001aea:	f7ff fd5d 	bl	80015a8 <I2C_WaitOnTXISFlagUntilTimeout>
 8001aee:	2800      	cmp	r0, #0
 8001af0:	d000      	beq.n	8001af4 <HAL_I2C_Mem_Read+0xac>
 8001af2:	e08b      	b.n	8001c0c <HAL_I2C_Mem_Read+0x1c4>
 8001af4:	4653      	mov	r3, sl
 8001af6:	6822      	ldr	r2, [r4, #0]
 8001af8:	2b01      	cmp	r3, #1
 8001afa:	d00b      	beq.n	8001b14 <HAL_I2C_Mem_Read+0xcc>
 8001afc:	465b      	mov	r3, fp
 8001afe:	0a1b      	lsrs	r3, r3, #8
 8001b00:	6293      	str	r3, [r2, #40]	; 0x28
 8001b02:	990c      	ldr	r1, [sp, #48]	; 0x30
 8001b04:	002a      	movs	r2, r5
 8001b06:	0020      	movs	r0, r4
 8001b08:	f7ff fd4e 	bl	80015a8 <I2C_WaitOnTXISFlagUntilTimeout>
 8001b0c:	2800      	cmp	r0, #0
 8001b0e:	d000      	beq.n	8001b12 <HAL_I2C_Mem_Read+0xca>
 8001b10:	e07c      	b.n	8001c0c <HAL_I2C_Mem_Read+0x1c4>
 8001b12:	6822      	ldr	r2, [r4, #0]
 8001b14:	465b      	mov	r3, fp
 8001b16:	2640      	movs	r6, #64	; 0x40
 8001b18:	b2db      	uxtb	r3, r3
 8001b1a:	6293      	str	r3, [r2, #40]	; 0x28
 8001b1c:	9b0c      	ldr	r3, [sp, #48]	; 0x30
 8001b1e:	3301      	adds	r3, #1
 8001b20:	d000      	beq.n	8001b24 <HAL_I2C_Mem_Read+0xdc>
 8001b22:	e09a      	b.n	8001c5a <HAL_I2C_Mem_Read+0x212>
 8001b24:	2140      	movs	r1, #64	; 0x40
 8001b26:	6993      	ldr	r3, [r2, #24]
 8001b28:	4219      	tst	r1, r3
 8001b2a:	d0fc      	beq.n	8001b26 <HAL_I2C_Mem_Read+0xde>
 8001b2c:	8d63      	ldrh	r3, [r4, #42]	; 0x2a
 8001b2e:	2bff      	cmp	r3, #255	; 0xff
 8001b30:	d800      	bhi.n	8001b34 <HAL_I2C_Mem_Read+0xec>
 8001b32:	e0b2      	b.n	8001c9a <HAL_I2C_Mem_Read+0x252>
 8001b34:	23ff      	movs	r3, #255	; 0xff
 8001b36:	4640      	mov	r0, r8
 8001b38:	8523      	strh	r3, [r4, #40]	; 0x28
 8001b3a:	4961      	ldr	r1, [pc, #388]	; (8001cc0 <HAL_I2C_Mem_Read+0x278>)
 8001b3c:	6853      	ldr	r3, [r2, #4]
 8001b3e:	400b      	ands	r3, r1
 8001b40:	4960      	ldr	r1, [pc, #384]	; (8001cc4 <HAL_I2C_Mem_Read+0x27c>)
 8001b42:	4301      	orrs	r1, r0
 8001b44:	430b      	orrs	r3, r1
 8001b46:	6053      	str	r3, [r2, #4]
 8001b48:	2604      	movs	r6, #4
 8001b4a:	2780      	movs	r7, #128	; 0x80
 8001b4c:	9b0c      	ldr	r3, [sp, #48]	; 0x30
 8001b4e:	3301      	adds	r3, #1
 8001b50:	d161      	bne.n	8001c16 <HAL_I2C_Mem_Read+0x1ce>
 8001b52:	6993      	ldr	r3, [r2, #24]
 8001b54:	421e      	tst	r6, r3
 8001b56:	d0fc      	beq.n	8001b52 <HAL_I2C_Mem_Read+0x10a>
 8001b58:	6a53      	ldr	r3, [r2, #36]	; 0x24
 8001b5a:	6a62      	ldr	r2, [r4, #36]	; 0x24
 8001b5c:	7013      	strb	r3, [r2, #0]
 8001b5e:	8d62      	ldrh	r2, [r4, #42]	; 0x2a
 8001b60:	6a63      	ldr	r3, [r4, #36]	; 0x24
 8001b62:	3a01      	subs	r2, #1
 8001b64:	3301      	adds	r3, #1
 8001b66:	b292      	uxth	r2, r2
 8001b68:	6263      	str	r3, [r4, #36]	; 0x24
 8001b6a:	8d23      	ldrh	r3, [r4, #40]	; 0x28
 8001b6c:	8562      	strh	r2, [r4, #42]	; 0x2a
 8001b6e:	3b01      	subs	r3, #1
 8001b70:	8d62      	ldrh	r2, [r4, #42]	; 0x2a
 8001b72:	b29b      	uxth	r3, r3
 8001b74:	8523      	strh	r3, [r4, #40]	; 0x28
 8001b76:	2a00      	cmp	r2, #0
 8001b78:	d001      	beq.n	8001b7e <HAL_I2C_Mem_Read+0x136>
 8001b7a:	2b00      	cmp	r3, #0
 8001b7c:	d058      	beq.n	8001c30 <HAL_I2C_Mem_Read+0x1e8>
 8001b7e:	8d63      	ldrh	r3, [r4, #42]	; 0x2a
 8001b80:	2b00      	cmp	r3, #0
 8001b82:	d002      	beq.n	8001b8a <HAL_I2C_Mem_Read+0x142>
 8001b84:	6822      	ldr	r2, [r4, #0]
 8001b86:	9b0c      	ldr	r3, [sp, #48]	; 0x30
 8001b88:	e7e1      	b.n	8001b4e <HAL_I2C_Mem_Read+0x106>
 8001b8a:	002a      	movs	r2, r5
 8001b8c:	990c      	ldr	r1, [sp, #48]	; 0x30
 8001b8e:	0020      	movs	r0, r4
 8001b90:	f7ff fd6c 	bl	800166c <I2C_WaitOnSTOPFlagUntilTimeout>
 8001b94:	2800      	cmp	r0, #0
 8001b96:	d000      	beq.n	8001b9a <HAL_I2C_Mem_Read+0x152>
 8001b98:	e08e      	b.n	8001cb8 <HAL_I2C_Mem_Read+0x270>
 8001b9a:	2120      	movs	r1, #32
 8001b9c:	6823      	ldr	r3, [r4, #0]
 8001b9e:	4d4a      	ldr	r5, [pc, #296]	; (8001cc8 <HAL_I2C_Mem_Read+0x280>)
 8001ba0:	61d9      	str	r1, [r3, #28]
 8001ba2:	685a      	ldr	r2, [r3, #4]
 8001ba4:	402a      	ands	r2, r5
 8001ba6:	605a      	str	r2, [r3, #4]
 8001ba8:	2341      	movs	r3, #65	; 0x41
 8001baa:	54e1      	strb	r1, [r4, r3]
 8001bac:	3301      	adds	r3, #1
 8001bae:	54e0      	strb	r0, [r4, r3]
 8001bb0:	3b02      	subs	r3, #2
 8001bb2:	54e0      	strb	r0, [r4, r3]
 8001bb4:	bc3c      	pop	{r2, r3, r4, r5}
 8001bb6:	4690      	mov	r8, r2
 8001bb8:	4699      	mov	r9, r3
 8001bba:	46a2      	mov	sl, r4
 8001bbc:	46ab      	mov	fp, r5
 8001bbe:	bdf8      	pop	{r3, r4, r5, r6, r7, pc}
 8001bc0:	2380      	movs	r3, #128	; 0x80
 8001bc2:	009b      	lsls	r3, r3, #2
 8001bc4:	6463      	str	r3, [r4, #68]	; 0x44
 8001bc6:	2001      	movs	r0, #1
 8001bc8:	e7f4      	b.n	8001bb4 <HAL_I2C_Mem_Read+0x16c>
 8001bca:	6993      	ldr	r3, [r2, #24]
 8001bcc:	421f      	tst	r7, r3
 8001bce:	d136      	bne.n	8001c3e <HAL_I2C_Mem_Read+0x1f6>
 8001bd0:	f7ff facc 	bl	800116c <HAL_GetTick>
 8001bd4:	9b0c      	ldr	r3, [sp, #48]	; 0x30
 8001bd6:	1b40      	subs	r0, r0, r5
 8001bd8:	4283      	cmp	r3, r0
 8001bda:	d301      	bcc.n	8001be0 <HAL_I2C_Mem_Read+0x198>
 8001bdc:	2b00      	cmp	r3, #0
 8001bde:	d128      	bne.n	8001c32 <HAL_I2C_Mem_Read+0x1ea>
 8001be0:	2220      	movs	r2, #32
 8001be2:	6c63      	ldr	r3, [r4, #68]	; 0x44
 8001be4:	2001      	movs	r0, #1
 8001be6:	4313      	orrs	r3, r2
 8001be8:	6463      	str	r3, [r4, #68]	; 0x44
 8001bea:	2341      	movs	r3, #65	; 0x41
 8001bec:	54e2      	strb	r2, [r4, r3]
 8001bee:	2300      	movs	r3, #0
 8001bf0:	3222      	adds	r2, #34	; 0x22
 8001bf2:	54a3      	strb	r3, [r4, r2]
 8001bf4:	3a02      	subs	r2, #2
 8001bf6:	54a3      	strb	r3, [r4, r2]
 8001bf8:	e7dc      	b.n	8001bb4 <HAL_I2C_Mem_Read+0x16c>
 8001bfa:	2220      	movs	r2, #32
 8001bfc:	6c63      	ldr	r3, [r4, #68]	; 0x44
 8001bfe:	4313      	orrs	r3, r2
 8001c00:	6463      	str	r3, [r4, #68]	; 0x44
 8001c02:	2341      	movs	r3, #65	; 0x41
 8001c04:	54e2      	strb	r2, [r4, r3]
 8001c06:	2200      	movs	r2, #0
 8001c08:	3301      	adds	r3, #1
 8001c0a:	54e2      	strb	r2, [r4, r3]
 8001c0c:	2340      	movs	r3, #64	; 0x40
 8001c0e:	2200      	movs	r2, #0
 8001c10:	2001      	movs	r0, #1
 8001c12:	54e2      	strb	r2, [r4, r3]
 8001c14:	e7ce      	b.n	8001bb4 <HAL_I2C_Mem_Read+0x16c>
 8001c16:	6993      	ldr	r3, [r2, #24]
 8001c18:	421e      	tst	r6, r3
 8001c1a:	d19d      	bne.n	8001b58 <HAL_I2C_Mem_Read+0x110>
 8001c1c:	f7ff faa6 	bl	800116c <HAL_GetTick>
 8001c20:	9b0c      	ldr	r3, [sp, #48]	; 0x30
 8001c22:	1b40      	subs	r0, r0, r5
 8001c24:	4283      	cmp	r3, r0
 8001c26:	d3db      	bcc.n	8001be0 <HAL_I2C_Mem_Read+0x198>
 8001c28:	2b00      	cmp	r3, #0
 8001c2a:	d0d9      	beq.n	8001be0 <HAL_I2C_Mem_Read+0x198>
 8001c2c:	6822      	ldr	r2, [r4, #0]
 8001c2e:	e78e      	b.n	8001b4e <HAL_I2C_Mem_Read+0x106>
 8001c30:	9b0c      	ldr	r3, [sp, #48]	; 0x30
 8001c32:	6822      	ldr	r2, [r4, #0]
 8001c34:	3301      	adds	r3, #1
 8001c36:	d1c8      	bne.n	8001bca <HAL_I2C_Mem_Read+0x182>
 8001c38:	6993      	ldr	r3, [r2, #24]
 8001c3a:	421f      	tst	r7, r3
 8001c3c:	d0fc      	beq.n	8001c38 <HAL_I2C_Mem_Read+0x1f0>
 8001c3e:	8d63      	ldrh	r3, [r4, #42]	; 0x2a
 8001c40:	2bff      	cmp	r3, #255	; 0xff
 8001c42:	d918      	bls.n	8001c76 <HAL_I2C_Mem_Read+0x22e>
 8001c44:	23ff      	movs	r3, #255	; 0xff
 8001c46:	4640      	mov	r0, r8
 8001c48:	8523      	strh	r3, [r4, #40]	; 0x28
 8001c4a:	4920      	ldr	r1, [pc, #128]	; (8001ccc <HAL_I2C_Mem_Read+0x284>)
 8001c4c:	6853      	ldr	r3, [r2, #4]
 8001c4e:	400b      	ands	r3, r1
 8001c50:	491f      	ldr	r1, [pc, #124]	; (8001cd0 <HAL_I2C_Mem_Read+0x288>)
 8001c52:	4301      	orrs	r1, r0
 8001c54:	430b      	orrs	r3, r1
 8001c56:	6053      	str	r3, [r2, #4]
 8001c58:	e791      	b.n	8001b7e <HAL_I2C_Mem_Read+0x136>
 8001c5a:	6993      	ldr	r3, [r2, #24]
 8001c5c:	421e      	tst	r6, r3
 8001c5e:	d000      	beq.n	8001c62 <HAL_I2C_Mem_Read+0x21a>
 8001c60:	e764      	b.n	8001b2c <HAL_I2C_Mem_Read+0xe4>
 8001c62:	f7ff fa83 	bl	800116c <HAL_GetTick>
 8001c66:	9b0c      	ldr	r3, [sp, #48]	; 0x30
 8001c68:	1b40      	subs	r0, r0, r5
 8001c6a:	4283      	cmp	r3, r0
 8001c6c:	d3c5      	bcc.n	8001bfa <HAL_I2C_Mem_Read+0x1b2>
 8001c6e:	2b00      	cmp	r3, #0
 8001c70:	d0c3      	beq.n	8001bfa <HAL_I2C_Mem_Read+0x1b2>
 8001c72:	6822      	ldr	r2, [r4, #0]
 8001c74:	e753      	b.n	8001b1e <HAL_I2C_Mem_Read+0xd6>
 8001c76:	8d63      	ldrh	r3, [r4, #42]	; 0x2a
 8001c78:	2080      	movs	r0, #128	; 0x80
 8001c7a:	b29b      	uxth	r3, r3
 8001c7c:	8523      	strh	r3, [r4, #40]	; 0x28
 8001c7e:	b2db      	uxtb	r3, r3
 8001c80:	041b      	lsls	r3, r3, #16
 8001c82:	469c      	mov	ip, r3
 8001c84:	4643      	mov	r3, r8
 8001c86:	0480      	lsls	r0, r0, #18
 8001c88:	4318      	orrs	r0, r3
 8001c8a:	4663      	mov	r3, ip
 8001c8c:	6851      	ldr	r1, [r2, #4]
 8001c8e:	4303      	orrs	r3, r0
 8001c90:	480e      	ldr	r0, [pc, #56]	; (8001ccc <HAL_I2C_Mem_Read+0x284>)
 8001c92:	4001      	ands	r1, r0
 8001c94:	430b      	orrs	r3, r1
 8001c96:	6053      	str	r3, [r2, #4]
 8001c98:	e771      	b.n	8001b7e <HAL_I2C_Mem_Read+0x136>
 8001c9a:	4646      	mov	r6, r8
 8001c9c:	8d63      	ldrh	r3, [r4, #42]	; 0x2a
 8001c9e:	480d      	ldr	r0, [pc, #52]	; (8001cd4 <HAL_I2C_Mem_Read+0x28c>)
 8001ca0:	b29b      	uxth	r3, r3
 8001ca2:	8523      	strh	r3, [r4, #40]	; 0x28
 8001ca4:	b2db      	uxtb	r3, r3
 8001ca6:	4330      	orrs	r0, r6
 8001ca8:	041b      	lsls	r3, r3, #16
 8001caa:	6851      	ldr	r1, [r2, #4]
 8001cac:	4303      	orrs	r3, r0
 8001cae:	4804      	ldr	r0, [pc, #16]	; (8001cc0 <HAL_I2C_Mem_Read+0x278>)
 8001cb0:	4001      	ands	r1, r0
 8001cb2:	430b      	orrs	r3, r1
 8001cb4:	6053      	str	r3, [r2, #4]
 8001cb6:	e747      	b.n	8001b48 <HAL_I2C_Mem_Read+0x100>
 8001cb8:	2001      	movs	r0, #1
 8001cba:	e77b      	b.n	8001bb4 <HAL_I2C_Mem_Read+0x16c>
 8001cbc:	80002000 	.word	0x80002000
 8001cc0:	fc009800 	.word	0xfc009800
 8001cc4:	81ff2400 	.word	0x81ff2400
 8001cc8:	fe00e800 	.word	0xfe00e800
 8001ccc:	fc009c00 	.word	0xfc009c00
 8001cd0:	01ff0000 	.word	0x01ff0000
 8001cd4:	82002400 	.word	0x82002400

08001cd8 <HAL_I2CEx_ConfigAnalogFilter>:
 8001cd8:	b5f0      	push	{r4, r5, r6, r7, lr}
 8001cda:	46ce      	mov	lr, r9
 8001cdc:	4647      	mov	r7, r8
 8001cde:	2441      	movs	r4, #65	; 0x41
 8001ce0:	b580      	push	{r7, lr}
 8001ce2:	5d03      	ldrb	r3, [r0, r4]
 8001ce4:	2202      	movs	r2, #2
 8001ce6:	b2db      	uxtb	r3, r3
 8001ce8:	2b20      	cmp	r3, #32
 8001cea:	d11c      	bne.n	8001d26 <HAL_I2CEx_ConfigAnalogFilter+0x4e>
 8001cec:	2640      	movs	r6, #64	; 0x40
 8001cee:	5d85      	ldrb	r5, [r0, r6]
 8001cf0:	2d01      	cmp	r5, #1
 8001cf2:	d018      	beq.n	8001d26 <HAL_I2CEx_ConfigAnalogFilter+0x4e>
 8001cf4:	2701      	movs	r7, #1
 8001cf6:	3222      	adds	r2, #34	; 0x22
 8001cf8:	5502      	strb	r2, [r0, r4]
 8001cfa:	6802      	ldr	r2, [r0, #0]
 8001cfc:	46b9      	mov	r9, r7
 8001cfe:	6815      	ldr	r5, [r2, #0]
 8001d00:	43bd      	bics	r5, r7
 8001d02:	6015      	str	r5, [r2, #0]
 8001d04:	6815      	ldr	r5, [r2, #0]
 8001d06:	46a8      	mov	r8, r5
 8001d08:	4647      	mov	r7, r8
 8001d0a:	4d09      	ldr	r5, [pc, #36]	; (8001d30 <HAL_I2CEx_ConfigAnalogFilter+0x58>)
 8001d0c:	402f      	ands	r7, r5
 8001d0e:	6017      	str	r7, [r2, #0]
 8001d10:	6815      	ldr	r5, [r2, #0]
 8001d12:	4329      	orrs	r1, r5
 8001d14:	464d      	mov	r5, r9
 8001d16:	6011      	str	r1, [r2, #0]
 8001d18:	6811      	ldr	r1, [r2, #0]
 8001d1a:	4329      	orrs	r1, r5
 8001d1c:	6011      	str	r1, [r2, #0]
 8001d1e:	5503      	strb	r3, [r0, r4]
 8001d20:	2300      	movs	r3, #0
 8001d22:	2200      	movs	r2, #0
 8001d24:	5583      	strb	r3, [r0, r6]
 8001d26:	0010      	movs	r0, r2
 8001d28:	bc0c      	pop	{r2, r3}
 8001d2a:	4690      	mov	r8, r2
 8001d2c:	4699      	mov	r9, r3
 8001d2e:	bdf0      	pop	{r4, r5, r6, r7, pc}
 8001d30:	ffffefff 	.word	0xffffefff

08001d34 <HAL_I2CEx_ConfigDigitalFilter>:
 8001d34:	b5f0      	push	{r4, r5, r6, r7, lr}
 8001d36:	46ce      	mov	lr, r9
 8001d38:	4647      	mov	r7, r8
 8001d3a:	2441      	movs	r4, #65	; 0x41
 8001d3c:	b580      	push	{r7, lr}
 8001d3e:	5d03      	ldrb	r3, [r0, r4]
 8001d40:	2202      	movs	r2, #2
 8001d42:	b2db      	uxtb	r3, r3
 8001d44:	2b20      	cmp	r3, #32
 8001d46:	d11b      	bne.n	8001d80 <HAL_I2CEx_ConfigDigitalFilter+0x4c>
 8001d48:	2640      	movs	r6, #64	; 0x40
 8001d4a:	5d85      	ldrb	r5, [r0, r6]
 8001d4c:	2d01      	cmp	r5, #1
 8001d4e:	d017      	beq.n	8001d80 <HAL_I2CEx_ConfigDigitalFilter+0x4c>
 8001d50:	2701      	movs	r7, #1
 8001d52:	3222      	adds	r2, #34	; 0x22
 8001d54:	5502      	strb	r2, [r0, r4]
 8001d56:	6802      	ldr	r2, [r0, #0]
 8001d58:	46b9      	mov	r9, r7
 8001d5a:	6815      	ldr	r5, [r2, #0]
 8001d5c:	0209      	lsls	r1, r1, #8
 8001d5e:	43bd      	bics	r5, r7
 8001d60:	6015      	str	r5, [r2, #0]
 8001d62:	6815      	ldr	r5, [r2, #0]
 8001d64:	46a8      	mov	r8, r5
 8001d66:	4647      	mov	r7, r8
 8001d68:	4d08      	ldr	r5, [pc, #32]	; (8001d8c <HAL_I2CEx_ConfigDigitalFilter+0x58>)
 8001d6a:	402f      	ands	r7, r5
 8001d6c:	464d      	mov	r5, r9
 8001d6e:	4339      	orrs	r1, r7
 8001d70:	6011      	str	r1, [r2, #0]
 8001d72:	6811      	ldr	r1, [r2, #0]
 8001d74:	4329      	orrs	r1, r5
 8001d76:	6011      	str	r1, [r2, #0]
 8001d78:	5503      	strb	r3, [r0, r4]
 8001d7a:	2300      	movs	r3, #0
 8001d7c:	2200      	movs	r2, #0
 8001d7e:	5583      	strb	r3, [r0, r6]
 8001d80:	0010      	movs	r0, r2
 8001d82:	bc0c      	pop	{r2, r3}
 8001d84:	4690      	mov	r8, r2
 8001d86:	4699      	mov	r9, r3
 8001d88:	bdf0      	pop	{r4, r5, r6, r7, pc}
 8001d8a:	46c0      	nop			; (mov r8, r8)
 8001d8c:	fffff0ff 	.word	0xfffff0ff

08001d90 <HAL_RCC_OscConfig>:
 8001d90:	b5f0      	push	{r4, r5, r6, r7, lr}
 8001d92:	46ce      	mov	lr, r9
 8001d94:	4647      	mov	r7, r8
 8001d96:	b580      	push	{r7, lr}
 8001d98:	0004      	movs	r4, r0
 8001d9a:	b083      	sub	sp, #12
 8001d9c:	2800      	cmp	r0, #0
 8001d9e:	d100      	bne.n	8001da2 <HAL_RCC_OscConfig+0x12>
 8001da0:	e0b5      	b.n	8001f0e <HAL_RCC_OscConfig+0x17e>
 8001da2:	6803      	ldr	r3, [r0, #0]
 8001da4:	07da      	lsls	r2, r3, #31
 8001da6:	d535      	bpl.n	8001e14 <HAL_RCC_OscConfig+0x84>
 8001da8:	210c      	movs	r1, #12
 8001daa:	48c1      	ldr	r0, [pc, #772]	; (80020b0 <HAL_RCC_OscConfig+0x320>)
 8001dac:	6842      	ldr	r2, [r0, #4]
 8001dae:	400a      	ands	r2, r1
 8001db0:	2a04      	cmp	r2, #4
 8001db2:	d100      	bne.n	8001db6 <HAL_RCC_OscConfig+0x26>
 8001db4:	e11b      	b.n	8001fee <HAL_RCC_OscConfig+0x25e>
 8001db6:	6842      	ldr	r2, [r0, #4]
 8001db8:	4011      	ands	r1, r2
 8001dba:	2908      	cmp	r1, #8
 8001dbc:	d100      	bne.n	8001dc0 <HAL_RCC_OscConfig+0x30>
 8001dbe:	e112      	b.n	8001fe6 <HAL_RCC_OscConfig+0x256>
 8001dc0:	6863      	ldr	r3, [r4, #4]
 8001dc2:	2b01      	cmp	r3, #1
 8001dc4:	d00f      	beq.n	8001de6 <HAL_RCC_OscConfig+0x56>
 8001dc6:	2b00      	cmp	r3, #0
 8001dc8:	d100      	bne.n	8001dcc <HAL_RCC_OscConfig+0x3c>
 8001dca:	e135      	b.n	8002038 <HAL_RCC_OscConfig+0x2a8>
 8001dcc:	2b05      	cmp	r3, #5
 8001dce:	d100      	bne.n	8001dd2 <HAL_RCC_OscConfig+0x42>
 8001dd0:	e19d      	b.n	800210e <HAL_RCC_OscConfig+0x37e>
 8001dd2:	4bb7      	ldr	r3, [pc, #732]	; (80020b0 <HAL_RCC_OscConfig+0x320>)
 8001dd4:	49b7      	ldr	r1, [pc, #732]	; (80020b4 <HAL_RCC_OscConfig+0x324>)
 8001dd6:	681a      	ldr	r2, [r3, #0]
 8001dd8:	400a      	ands	r2, r1
 8001dda:	601a      	str	r2, [r3, #0]
 8001ddc:	681a      	ldr	r2, [r3, #0]
 8001dde:	49b6      	ldr	r1, [pc, #728]	; (80020b8 <HAL_RCC_OscConfig+0x328>)
 8001de0:	400a      	ands	r2, r1
 8001de2:	601a      	str	r2, [r3, #0]
 8001de4:	e005      	b.n	8001df2 <HAL_RCC_OscConfig+0x62>
 8001de6:	2380      	movs	r3, #128	; 0x80
 8001de8:	4ab1      	ldr	r2, [pc, #708]	; (80020b0 <HAL_RCC_OscConfig+0x320>)
 8001dea:	025b      	lsls	r3, r3, #9
 8001dec:	6811      	ldr	r1, [r2, #0]
 8001dee:	430b      	orrs	r3, r1
 8001df0:	6013      	str	r3, [r2, #0]
 8001df2:	f7ff f9bb 	bl	800116c <HAL_GetTick>
 8001df6:	2580      	movs	r5, #128	; 0x80
 8001df8:	0007      	movs	r7, r0
 8001dfa:	4ead      	ldr	r6, [pc, #692]	; (80020b0 <HAL_RCC_OscConfig+0x320>)
 8001dfc:	02ad      	lsls	r5, r5, #10
 8001dfe:	e005      	b.n	8001e0c <HAL_RCC_OscConfig+0x7c>
 8001e00:	f7ff f9b4 	bl	800116c <HAL_GetTick>
 8001e04:	1bc0      	subs	r0, r0, r7
 8001e06:	2864      	cmp	r0, #100	; 0x64
 8001e08:	d900      	bls.n	8001e0c <HAL_RCC_OscConfig+0x7c>
 8001e0a:	e113      	b.n	8002034 <HAL_RCC_OscConfig+0x2a4>
 8001e0c:	6833      	ldr	r3, [r6, #0]
 8001e0e:	422b      	tst	r3, r5
 8001e10:	d0f6      	beq.n	8001e00 <HAL_RCC_OscConfig+0x70>
 8001e12:	6823      	ldr	r3, [r4, #0]
 8001e14:	079a      	lsls	r2, r3, #30
 8001e16:	d445      	bmi.n	8001ea4 <HAL_RCC_OscConfig+0x114>
 8001e18:	071a      	lsls	r2, r3, #28
 8001e1a:	d517      	bpl.n	8001e4c <HAL_RCC_OscConfig+0xbc>
 8001e1c:	69e3      	ldr	r3, [r4, #28]
 8001e1e:	4da4      	ldr	r5, [pc, #656]	; (80020b0 <HAL_RCC_OscConfig+0x320>)
 8001e20:	2b00      	cmp	r3, #0
 8001e22:	d100      	bne.n	8001e26 <HAL_RCC_OscConfig+0x96>
 8001e24:	e0cc      	b.n	8001fc0 <HAL_RCC_OscConfig+0x230>
 8001e26:	2201      	movs	r2, #1
 8001e28:	6a6b      	ldr	r3, [r5, #36]	; 0x24
 8001e2a:	2602      	movs	r6, #2
 8001e2c:	4313      	orrs	r3, r2
 8001e2e:	626b      	str	r3, [r5, #36]	; 0x24
 8001e30:	f7ff f99c 	bl	800116c <HAL_GetTick>
 8001e34:	0007      	movs	r7, r0
 8001e36:	e005      	b.n	8001e44 <HAL_RCC_OscConfig+0xb4>
 8001e38:	f7ff f998 	bl	800116c <HAL_GetTick>
 8001e3c:	1bc0      	subs	r0, r0, r7
 8001e3e:	2802      	cmp	r0, #2
 8001e40:	d900      	bls.n	8001e44 <HAL_RCC_OscConfig+0xb4>
 8001e42:	e0f7      	b.n	8002034 <HAL_RCC_OscConfig+0x2a4>
 8001e44:	6a6b      	ldr	r3, [r5, #36]	; 0x24
 8001e46:	421e      	tst	r6, r3
 8001e48:	d0f6      	beq.n	8001e38 <HAL_RCC_OscConfig+0xa8>
 8001e4a:	6823      	ldr	r3, [r4, #0]
 8001e4c:	075a      	lsls	r2, r3, #29
 8001e4e:	d400      	bmi.n	8001e52 <HAL_RCC_OscConfig+0xc2>
 8001e50:	e080      	b.n	8001f54 <HAL_RCC_OscConfig+0x1c4>
 8001e52:	2280      	movs	r2, #128	; 0x80
 8001e54:	4b96      	ldr	r3, [pc, #600]	; (80020b0 <HAL_RCC_OscConfig+0x320>)
 8001e56:	0552      	lsls	r2, r2, #21
 8001e58:	69d9      	ldr	r1, [r3, #28]
 8001e5a:	2500      	movs	r5, #0
 8001e5c:	4211      	tst	r1, r2
 8001e5e:	d107      	bne.n	8001e70 <HAL_RCC_OscConfig+0xe0>
 8001e60:	69d9      	ldr	r1, [r3, #28]
 8001e62:	3501      	adds	r5, #1
 8001e64:	4311      	orrs	r1, r2
 8001e66:	61d9      	str	r1, [r3, #28]
 8001e68:	69db      	ldr	r3, [r3, #28]
 8001e6a:	401a      	ands	r2, r3
 8001e6c:	9201      	str	r2, [sp, #4]
 8001e6e:	9b01      	ldr	r3, [sp, #4]
 8001e70:	2680      	movs	r6, #128	; 0x80
 8001e72:	4f92      	ldr	r7, [pc, #584]	; (80020bc <HAL_RCC_OscConfig+0x32c>)
 8001e74:	0076      	lsls	r6, r6, #1
 8001e76:	683b      	ldr	r3, [r7, #0]
 8001e78:	4233      	tst	r3, r6
 8001e7a:	d100      	bne.n	8001e7e <HAL_RCC_OscConfig+0xee>
 8001e7c:	e0ca      	b.n	8002014 <HAL_RCC_OscConfig+0x284>
 8001e7e:	68a3      	ldr	r3, [r4, #8]
 8001e80:	2b01      	cmp	r3, #1
 8001e82:	d04a      	beq.n	8001f1a <HAL_RCC_OscConfig+0x18a>
 8001e84:	2b00      	cmp	r3, #0
 8001e86:	d100      	bne.n	8001e8a <HAL_RCC_OscConfig+0xfa>
 8001e88:	e0ef      	b.n	800206a <HAL_RCC_OscConfig+0x2da>
 8001e8a:	2b05      	cmp	r3, #5
 8001e8c:	d100      	bne.n	8001e90 <HAL_RCC_OscConfig+0x100>
 8001e8e:	e14a      	b.n	8002126 <HAL_RCC_OscConfig+0x396>
 8001e90:	2101      	movs	r1, #1
 8001e92:	4b87      	ldr	r3, [pc, #540]	; (80020b0 <HAL_RCC_OscConfig+0x320>)
 8001e94:	6a1a      	ldr	r2, [r3, #32]
 8001e96:	438a      	bics	r2, r1
 8001e98:	621a      	str	r2, [r3, #32]
 8001e9a:	6a1a      	ldr	r2, [r3, #32]
 8001e9c:	3103      	adds	r1, #3
 8001e9e:	438a      	bics	r2, r1
 8001ea0:	621a      	str	r2, [r3, #32]
 8001ea2:	e03e      	b.n	8001f22 <HAL_RCC_OscConfig+0x192>
 8001ea4:	220c      	movs	r2, #12
 8001ea6:	4982      	ldr	r1, [pc, #520]	; (80020b0 <HAL_RCC_OscConfig+0x320>)
 8001ea8:	6848      	ldr	r0, [r1, #4]
 8001eaa:	4202      	tst	r2, r0
 8001eac:	d026      	beq.n	8001efc <HAL_RCC_OscConfig+0x16c>
 8001eae:	6848      	ldr	r0, [r1, #4]
 8001eb0:	4002      	ands	r2, r0
 8001eb2:	2a08      	cmp	r2, #8
 8001eb4:	d01f      	beq.n	8001ef6 <HAL_RCC_OscConfig+0x166>
 8001eb6:	68e3      	ldr	r3, [r4, #12]
 8001eb8:	4d7d      	ldr	r5, [pc, #500]	; (80020b0 <HAL_RCC_OscConfig+0x320>)
 8001eba:	2b00      	cmp	r3, #0
 8001ebc:	d100      	bne.n	8001ec0 <HAL_RCC_OscConfig+0x130>
 8001ebe:	e0ee      	b.n	800209e <HAL_RCC_OscConfig+0x30e>
 8001ec0:	2201      	movs	r2, #1
 8001ec2:	682b      	ldr	r3, [r5, #0]
 8001ec4:	2602      	movs	r6, #2
 8001ec6:	4313      	orrs	r3, r2
 8001ec8:	602b      	str	r3, [r5, #0]
 8001eca:	f7ff f94f 	bl	800116c <HAL_GetTick>
 8001ece:	0007      	movs	r7, r0
 8001ed0:	e005      	b.n	8001ede <HAL_RCC_OscConfig+0x14e>
 8001ed2:	f7ff f94b 	bl	800116c <HAL_GetTick>
 8001ed6:	1bc0      	subs	r0, r0, r7
 8001ed8:	2802      	cmp	r0, #2
 8001eda:	d900      	bls.n	8001ede <HAL_RCC_OscConfig+0x14e>
 8001edc:	e0aa      	b.n	8002034 <HAL_RCC_OscConfig+0x2a4>
 8001ede:	682b      	ldr	r3, [r5, #0]
 8001ee0:	421e      	tst	r6, r3
 8001ee2:	d0f6      	beq.n	8001ed2 <HAL_RCC_OscConfig+0x142>
 8001ee4:	21f8      	movs	r1, #248	; 0xf8
 8001ee6:	682a      	ldr	r2, [r5, #0]
 8001ee8:	6923      	ldr	r3, [r4, #16]
 8001eea:	438a      	bics	r2, r1
 8001eec:	00db      	lsls	r3, r3, #3
 8001eee:	4313      	orrs	r3, r2
 8001ef0:	602b      	str	r3, [r5, #0]
 8001ef2:	6823      	ldr	r3, [r4, #0]
 8001ef4:	e790      	b.n	8001e18 <HAL_RCC_OscConfig+0x88>
 8001ef6:	684a      	ldr	r2, [r1, #4]
 8001ef8:	03d2      	lsls	r2, r2, #15
 8001efa:	d4dc      	bmi.n	8001eb6 <HAL_RCC_OscConfig+0x126>
 8001efc:	4a6c      	ldr	r2, [pc, #432]	; (80020b0 <HAL_RCC_OscConfig+0x320>)
 8001efe:	6812      	ldr	r2, [r2, #0]
 8001f00:	0792      	lsls	r2, r2, #30
 8001f02:	d400      	bmi.n	8001f06 <HAL_RCC_OscConfig+0x176>
 8001f04:	e07d      	b.n	8002002 <HAL_RCC_OscConfig+0x272>
 8001f06:	68e2      	ldr	r2, [r4, #12]
 8001f08:	2a01      	cmp	r2, #1
 8001f0a:	d100      	bne.n	8001f0e <HAL_RCC_OscConfig+0x17e>
 8001f0c:	e079      	b.n	8002002 <HAL_RCC_OscConfig+0x272>
 8001f0e:	2001      	movs	r0, #1
 8001f10:	b003      	add	sp, #12
 8001f12:	bc0c      	pop	{r2, r3}
 8001f14:	4690      	mov	r8, r2
 8001f16:	4699      	mov	r9, r3
 8001f18:	bdf0      	pop	{r4, r5, r6, r7, pc}
 8001f1a:	4965      	ldr	r1, [pc, #404]	; (80020b0 <HAL_RCC_OscConfig+0x320>)
 8001f1c:	6a0a      	ldr	r2, [r1, #32]
 8001f1e:	4313      	orrs	r3, r2
 8001f20:	620b      	str	r3, [r1, #32]
 8001f22:	f7ff f923 	bl	800116c <HAL_GetTick>
 8001f26:	4b66      	ldr	r3, [pc, #408]	; (80020c0 <HAL_RCC_OscConfig+0x330>)
 8001f28:	4681      	mov	r9, r0
 8001f2a:	4f61      	ldr	r7, [pc, #388]	; (80020b0 <HAL_RCC_OscConfig+0x320>)
 8001f2c:	2602      	movs	r6, #2
 8001f2e:	4698      	mov	r8, r3
 8001f30:	e005      	b.n	8001f3e <HAL_RCC_OscConfig+0x1ae>
 8001f32:	f7ff f91b 	bl	800116c <HAL_GetTick>
 8001f36:	464b      	mov	r3, r9
 8001f38:	1ac0      	subs	r0, r0, r3
 8001f3a:	4540      	cmp	r0, r8
 8001f3c:	d87a      	bhi.n	8002034 <HAL_RCC_OscConfig+0x2a4>
 8001f3e:	6a3b      	ldr	r3, [r7, #32]
 8001f40:	421e      	tst	r6, r3
 8001f42:	d0f6      	beq.n	8001f32 <HAL_RCC_OscConfig+0x1a2>
 8001f44:	2d01      	cmp	r5, #1
 8001f46:	d104      	bne.n	8001f52 <HAL_RCC_OscConfig+0x1c2>
 8001f48:	4a59      	ldr	r2, [pc, #356]	; (80020b0 <HAL_RCC_OscConfig+0x320>)
 8001f4a:	495e      	ldr	r1, [pc, #376]	; (80020c4 <HAL_RCC_OscConfig+0x334>)
 8001f4c:	69d3      	ldr	r3, [r2, #28]
 8001f4e:	400b      	ands	r3, r1
 8001f50:	61d3      	str	r3, [r2, #28]
 8001f52:	6823      	ldr	r3, [r4, #0]
 8001f54:	06db      	lsls	r3, r3, #27
 8001f56:	d512      	bpl.n	8001f7e <HAL_RCC_OscConfig+0x1ee>
 8001f58:	6963      	ldr	r3, [r4, #20]
 8001f5a:	2b01      	cmp	r3, #1
 8001f5c:	d100      	bne.n	8001f60 <HAL_RCC_OscConfig+0x1d0>
 8001f5e:	e140      	b.n	80021e2 <HAL_RCC_OscConfig+0x452>
 8001f60:	3305      	adds	r3, #5
 8001f62:	d000      	beq.n	8001f66 <HAL_RCC_OscConfig+0x1d6>
 8001f64:	e0bc      	b.n	80020e0 <HAL_RCC_OscConfig+0x350>
 8001f66:	2104      	movs	r1, #4
 8001f68:	20f8      	movs	r0, #248	; 0xf8
 8001f6a:	4a51      	ldr	r2, [pc, #324]	; (80020b0 <HAL_RCC_OscConfig+0x320>)
 8001f6c:	6b53      	ldr	r3, [r2, #52]	; 0x34
 8001f6e:	438b      	bics	r3, r1
 8001f70:	6353      	str	r3, [r2, #52]	; 0x34
 8001f72:	6b51      	ldr	r1, [r2, #52]	; 0x34
 8001f74:	69a3      	ldr	r3, [r4, #24]
 8001f76:	4381      	bics	r1, r0
 8001f78:	00db      	lsls	r3, r3, #3
 8001f7a:	430b      	orrs	r3, r1
 8001f7c:	6353      	str	r3, [r2, #52]	; 0x34
 8001f7e:	6a23      	ldr	r3, [r4, #32]
 8001f80:	2b00      	cmp	r3, #0
 8001f82:	d01b      	beq.n	8001fbc <HAL_RCC_OscConfig+0x22c>
 8001f84:	220c      	movs	r2, #12
 8001f86:	4d4a      	ldr	r5, [pc, #296]	; (80020b0 <HAL_RCC_OscConfig+0x320>)
 8001f88:	6869      	ldr	r1, [r5, #4]
 8001f8a:	400a      	ands	r2, r1
 8001f8c:	2a08      	cmp	r2, #8
 8001f8e:	d100      	bne.n	8001f92 <HAL_RCC_OscConfig+0x202>
 8001f90:	e0d3      	b.n	800213a <HAL_RCC_OscConfig+0x3aa>
 8001f92:	2b02      	cmp	r3, #2
 8001f94:	d100      	bne.n	8001f98 <HAL_RCC_OscConfig+0x208>
 8001f96:	e0ec      	b.n	8002172 <HAL_RCC_OscConfig+0x3e2>
 8001f98:	682b      	ldr	r3, [r5, #0]
 8001f9a:	4a4b      	ldr	r2, [pc, #300]	; (80020c8 <HAL_RCC_OscConfig+0x338>)
 8001f9c:	2480      	movs	r4, #128	; 0x80
 8001f9e:	4013      	ands	r3, r2
 8001fa0:	602b      	str	r3, [r5, #0]
 8001fa2:	f7ff f8e3 	bl	800116c <HAL_GetTick>
 8001fa6:	04a4      	lsls	r4, r4, #18
 8001fa8:	0006      	movs	r6, r0
 8001faa:	e004      	b.n	8001fb6 <HAL_RCC_OscConfig+0x226>
 8001fac:	f7ff f8de 	bl	800116c <HAL_GetTick>
 8001fb0:	1b80      	subs	r0, r0, r6
 8001fb2:	2802      	cmp	r0, #2
 8001fb4:	d83e      	bhi.n	8002034 <HAL_RCC_OscConfig+0x2a4>
 8001fb6:	682b      	ldr	r3, [r5, #0]
 8001fb8:	4223      	tst	r3, r4
 8001fba:	d1f7      	bne.n	8001fac <HAL_RCC_OscConfig+0x21c>
 8001fbc:	2000      	movs	r0, #0
 8001fbe:	e7a7      	b.n	8001f10 <HAL_RCC_OscConfig+0x180>
 8001fc0:	2201      	movs	r2, #1
 8001fc2:	6a6b      	ldr	r3, [r5, #36]	; 0x24
 8001fc4:	2602      	movs	r6, #2
 8001fc6:	4393      	bics	r3, r2
 8001fc8:	626b      	str	r3, [r5, #36]	; 0x24
 8001fca:	f7ff f8cf 	bl	800116c <HAL_GetTick>
 8001fce:	0007      	movs	r7, r0
 8001fd0:	e004      	b.n	8001fdc <HAL_RCC_OscConfig+0x24c>
 8001fd2:	f7ff f8cb 	bl	800116c <HAL_GetTick>
 8001fd6:	1bc0      	subs	r0, r0, r7
 8001fd8:	2802      	cmp	r0, #2
 8001fda:	d82b      	bhi.n	8002034 <HAL_RCC_OscConfig+0x2a4>
 8001fdc:	6a6b      	ldr	r3, [r5, #36]	; 0x24
 8001fde:	421e      	tst	r6, r3
 8001fe0:	d1f7      	bne.n	8001fd2 <HAL_RCC_OscConfig+0x242>
 8001fe2:	6823      	ldr	r3, [r4, #0]
 8001fe4:	e732      	b.n	8001e4c <HAL_RCC_OscConfig+0xbc>
 8001fe6:	6842      	ldr	r2, [r0, #4]
 8001fe8:	03d2      	lsls	r2, r2, #15
 8001fea:	d400      	bmi.n	8001fee <HAL_RCC_OscConfig+0x25e>
 8001fec:	e6e8      	b.n	8001dc0 <HAL_RCC_OscConfig+0x30>
 8001fee:	4a30      	ldr	r2, [pc, #192]	; (80020b0 <HAL_RCC_OscConfig+0x320>)
 8001ff0:	6812      	ldr	r2, [r2, #0]
 8001ff2:	0392      	lsls	r2, r2, #14
 8001ff4:	d400      	bmi.n	8001ff8 <HAL_RCC_OscConfig+0x268>
 8001ff6:	e70d      	b.n	8001e14 <HAL_RCC_OscConfig+0x84>
 8001ff8:	6862      	ldr	r2, [r4, #4]
 8001ffa:	2a00      	cmp	r2, #0
 8001ffc:	d000      	beq.n	8002000 <HAL_RCC_OscConfig+0x270>
 8001ffe:	e709      	b.n	8001e14 <HAL_RCC_OscConfig+0x84>
 8002000:	e785      	b.n	8001f0e <HAL_RCC_OscConfig+0x17e>
 8002002:	25f8      	movs	r5, #248	; 0xf8
 8002004:	482a      	ldr	r0, [pc, #168]	; (80020b0 <HAL_RCC_OscConfig+0x320>)
 8002006:	6922      	ldr	r2, [r4, #16]
 8002008:	6801      	ldr	r1, [r0, #0]
 800200a:	00d2      	lsls	r2, r2, #3
 800200c:	43a9      	bics	r1, r5
 800200e:	430a      	orrs	r2, r1
 8002010:	6002      	str	r2, [r0, #0]
 8002012:	e701      	b.n	8001e18 <HAL_RCC_OscConfig+0x88>
 8002014:	683b      	ldr	r3, [r7, #0]
 8002016:	4333      	orrs	r3, r6
 8002018:	603b      	str	r3, [r7, #0]
 800201a:	f7ff f8a7 	bl	800116c <HAL_GetTick>
 800201e:	4680      	mov	r8, r0
 8002020:	683b      	ldr	r3, [r7, #0]
 8002022:	4233      	tst	r3, r6
 8002024:	d000      	beq.n	8002028 <HAL_RCC_OscConfig+0x298>
 8002026:	e72a      	b.n	8001e7e <HAL_RCC_OscConfig+0xee>
 8002028:	f7ff f8a0 	bl	800116c <HAL_GetTick>
 800202c:	4643      	mov	r3, r8
 800202e:	1ac0      	subs	r0, r0, r3
 8002030:	2864      	cmp	r0, #100	; 0x64
 8002032:	d9f5      	bls.n	8002020 <HAL_RCC_OscConfig+0x290>
 8002034:	2003      	movs	r0, #3
 8002036:	e76b      	b.n	8001f10 <HAL_RCC_OscConfig+0x180>
 8002038:	4d1d      	ldr	r5, [pc, #116]	; (80020b0 <HAL_RCC_OscConfig+0x320>)
 800203a:	4a1e      	ldr	r2, [pc, #120]	; (80020b4 <HAL_RCC_OscConfig+0x324>)
 800203c:	682b      	ldr	r3, [r5, #0]
 800203e:	2680      	movs	r6, #128	; 0x80
 8002040:	4013      	ands	r3, r2
 8002042:	602b      	str	r3, [r5, #0]
 8002044:	682b      	ldr	r3, [r5, #0]
 8002046:	4a1c      	ldr	r2, [pc, #112]	; (80020b8 <HAL_RCC_OscConfig+0x328>)
 8002048:	02b6      	lsls	r6, r6, #10
 800204a:	4013      	ands	r3, r2
 800204c:	602b      	str	r3, [r5, #0]
 800204e:	f7ff f88d 	bl	800116c <HAL_GetTick>
 8002052:	0007      	movs	r7, r0
 8002054:	e004      	b.n	8002060 <HAL_RCC_OscConfig+0x2d0>
 8002056:	f7ff f889 	bl	800116c <HAL_GetTick>
 800205a:	1bc0      	subs	r0, r0, r7
 800205c:	2864      	cmp	r0, #100	; 0x64
 800205e:	d8e9      	bhi.n	8002034 <HAL_RCC_OscConfig+0x2a4>
 8002060:	682b      	ldr	r3, [r5, #0]
 8002062:	4233      	tst	r3, r6
 8002064:	d1f7      	bne.n	8002056 <HAL_RCC_OscConfig+0x2c6>
 8002066:	6823      	ldr	r3, [r4, #0]
 8002068:	e6d4      	b.n	8001e14 <HAL_RCC_OscConfig+0x84>
 800206a:	2201      	movs	r2, #1
 800206c:	4e10      	ldr	r6, [pc, #64]	; (80020b0 <HAL_RCC_OscConfig+0x320>)
 800206e:	2702      	movs	r7, #2
 8002070:	6a33      	ldr	r3, [r6, #32]
 8002072:	4393      	bics	r3, r2
 8002074:	6233      	str	r3, [r6, #32]
 8002076:	6a33      	ldr	r3, [r6, #32]
 8002078:	3203      	adds	r2, #3
 800207a:	4393      	bics	r3, r2
 800207c:	6233      	str	r3, [r6, #32]
 800207e:	f7ff f875 	bl	800116c <HAL_GetTick>
 8002082:	4b0f      	ldr	r3, [pc, #60]	; (80020c0 <HAL_RCC_OscConfig+0x330>)
 8002084:	4681      	mov	r9, r0
 8002086:	4698      	mov	r8, r3
 8002088:	e005      	b.n	8002096 <HAL_RCC_OscConfig+0x306>
 800208a:	f7ff f86f 	bl	800116c <HAL_GetTick>
 800208e:	464b      	mov	r3, r9
 8002090:	1ac0      	subs	r0, r0, r3
 8002092:	4540      	cmp	r0, r8
 8002094:	d8ce      	bhi.n	8002034 <HAL_RCC_OscConfig+0x2a4>
 8002096:	6a33      	ldr	r3, [r6, #32]
 8002098:	421f      	tst	r7, r3
 800209a:	d1f6      	bne.n	800208a <HAL_RCC_OscConfig+0x2fa>
 800209c:	e752      	b.n	8001f44 <HAL_RCC_OscConfig+0x1b4>
 800209e:	2201      	movs	r2, #1
 80020a0:	682b      	ldr	r3, [r5, #0]
 80020a2:	2602      	movs	r6, #2
 80020a4:	4393      	bics	r3, r2
 80020a6:	602b      	str	r3, [r5, #0]
 80020a8:	f7ff f860 	bl	800116c <HAL_GetTick>
 80020ac:	0007      	movs	r7, r0
 80020ae:	e012      	b.n	80020d6 <HAL_RCC_OscConfig+0x346>
 80020b0:	40021000 	.word	0x40021000
 80020b4:	fffeffff 	.word	0xfffeffff
 80020b8:	fffbffff 	.word	0xfffbffff
 80020bc:	40007000 	.word	0x40007000
 80020c0:	00001388 	.word	0x00001388
 80020c4:	efffffff 	.word	0xefffffff
 80020c8:	feffffff 	.word	0xfeffffff
 80020cc:	f7ff f84e 	bl	800116c <HAL_GetTick>
 80020d0:	1bc0      	subs	r0, r0, r7
 80020d2:	2802      	cmp	r0, #2
 80020d4:	d8ae      	bhi.n	8002034 <HAL_RCC_OscConfig+0x2a4>
 80020d6:	682b      	ldr	r3, [r5, #0]
 80020d8:	421e      	tst	r6, r3
 80020da:	d1f7      	bne.n	80020cc <HAL_RCC_OscConfig+0x33c>
 80020dc:	6823      	ldr	r3, [r4, #0]
 80020de:	e69b      	b.n	8001e18 <HAL_RCC_OscConfig+0x88>
 80020e0:	2204      	movs	r2, #4
 80020e2:	4d4f      	ldr	r5, [pc, #316]	; (8002220 <HAL_RCC_OscConfig+0x490>)
 80020e4:	2602      	movs	r6, #2
 80020e6:	6b6b      	ldr	r3, [r5, #52]	; 0x34
 80020e8:	4313      	orrs	r3, r2
 80020ea:	636b      	str	r3, [r5, #52]	; 0x34
 80020ec:	6b6b      	ldr	r3, [r5, #52]	; 0x34
 80020ee:	3a03      	subs	r2, #3
 80020f0:	4393      	bics	r3, r2
 80020f2:	636b      	str	r3, [r5, #52]	; 0x34
 80020f4:	f7ff f83a 	bl	800116c <HAL_GetTick>
 80020f8:	0007      	movs	r7, r0
 80020fa:	e004      	b.n	8002106 <HAL_RCC_OscConfig+0x376>
 80020fc:	f7ff f836 	bl	800116c <HAL_GetTick>
 8002100:	1bc0      	subs	r0, r0, r7
 8002102:	2802      	cmp	r0, #2
 8002104:	d896      	bhi.n	8002034 <HAL_RCC_OscConfig+0x2a4>
 8002106:	6b6b      	ldr	r3, [r5, #52]	; 0x34
 8002108:	421e      	tst	r6, r3
 800210a:	d1f7      	bne.n	80020fc <HAL_RCC_OscConfig+0x36c>
 800210c:	e737      	b.n	8001f7e <HAL_RCC_OscConfig+0x1ee>
 800210e:	2280      	movs	r2, #128	; 0x80
 8002110:	4b43      	ldr	r3, [pc, #268]	; (8002220 <HAL_RCC_OscConfig+0x490>)
 8002112:	02d2      	lsls	r2, r2, #11
 8002114:	6819      	ldr	r1, [r3, #0]
 8002116:	430a      	orrs	r2, r1
 8002118:	601a      	str	r2, [r3, #0]
 800211a:	2280      	movs	r2, #128	; 0x80
 800211c:	6819      	ldr	r1, [r3, #0]
 800211e:	0252      	lsls	r2, r2, #9
 8002120:	430a      	orrs	r2, r1
 8002122:	601a      	str	r2, [r3, #0]
 8002124:	e665      	b.n	8001df2 <HAL_RCC_OscConfig+0x62>
 8002126:	2104      	movs	r1, #4
 8002128:	4b3d      	ldr	r3, [pc, #244]	; (8002220 <HAL_RCC_OscConfig+0x490>)
 800212a:	6a1a      	ldr	r2, [r3, #32]
 800212c:	430a      	orrs	r2, r1
 800212e:	621a      	str	r2, [r3, #32]
 8002130:	6a1a      	ldr	r2, [r3, #32]
 8002132:	3903      	subs	r1, #3
 8002134:	430a      	orrs	r2, r1
 8002136:	621a      	str	r2, [r3, #32]
 8002138:	e6f3      	b.n	8001f22 <HAL_RCC_OscConfig+0x192>
 800213a:	2b01      	cmp	r3, #1
 800213c:	d100      	bne.n	8002140 <HAL_RCC_OscConfig+0x3b0>
 800213e:	e6e6      	b.n	8001f0e <HAL_RCC_OscConfig+0x17e>
 8002140:	2380      	movs	r3, #128	; 0x80
 8002142:	686a      	ldr	r2, [r5, #4]
 8002144:	6ae9      	ldr	r1, [r5, #44]	; 0x2c
 8002146:	6a65      	ldr	r5, [r4, #36]	; 0x24
 8002148:	025b      	lsls	r3, r3, #9
 800214a:	4013      	ands	r3, r2
 800214c:	2001      	movs	r0, #1
 800214e:	42ab      	cmp	r3, r5
 8002150:	d000      	beq.n	8002154 <HAL_RCC_OscConfig+0x3c4>
 8002152:	e6dd      	b.n	8001f10 <HAL_RCC_OscConfig+0x180>
 8002154:	230f      	movs	r3, #15
 8002156:	400b      	ands	r3, r1
 8002158:	6ae1      	ldr	r1, [r4, #44]	; 0x2c
 800215a:	428b      	cmp	r3, r1
 800215c:	d000      	beq.n	8002160 <HAL_RCC_OscConfig+0x3d0>
 800215e:	e6d7      	b.n	8001f10 <HAL_RCC_OscConfig+0x180>
 8002160:	20f0      	movs	r0, #240	; 0xf0
 8002162:	0380      	lsls	r0, r0, #14
 8002164:	4002      	ands	r2, r0
 8002166:	6aa0      	ldr	r0, [r4, #40]	; 0x28
 8002168:	1a10      	subs	r0, r2, r0
 800216a:	1e42      	subs	r2, r0, #1
 800216c:	4190      	sbcs	r0, r2
 800216e:	b2c0      	uxtb	r0, r0
 8002170:	e6ce      	b.n	8001f10 <HAL_RCC_OscConfig+0x180>
 8002172:	682b      	ldr	r3, [r5, #0]
 8002174:	4a2b      	ldr	r2, [pc, #172]	; (8002224 <HAL_RCC_OscConfig+0x494>)
 8002176:	2680      	movs	r6, #128	; 0x80
 8002178:	4013      	ands	r3, r2
 800217a:	602b      	str	r3, [r5, #0]
 800217c:	f7fe fff6 	bl	800116c <HAL_GetTick>
 8002180:	04b6      	lsls	r6, r6, #18
 8002182:	0007      	movs	r7, r0
 8002184:	e005      	b.n	8002192 <HAL_RCC_OscConfig+0x402>
 8002186:	f7fe fff1 	bl	800116c <HAL_GetTick>
 800218a:	1bc0      	subs	r0, r0, r7
 800218c:	2802      	cmp	r0, #2
 800218e:	d900      	bls.n	8002192 <HAL_RCC_OscConfig+0x402>
 8002190:	e750      	b.n	8002034 <HAL_RCC_OscConfig+0x2a4>
 8002192:	682b      	ldr	r3, [r5, #0]
 8002194:	4233      	tst	r3, r6
 8002196:	d1f6      	bne.n	8002186 <HAL_RCC_OscConfig+0x3f6>
 8002198:	220f      	movs	r2, #15
 800219a:	6aeb      	ldr	r3, [r5, #44]	; 0x2c
 800219c:	4393      	bics	r3, r2
 800219e:	6ae2      	ldr	r2, [r4, #44]	; 0x2c
 80021a0:	4313      	orrs	r3, r2
 80021a2:	62eb      	str	r3, [r5, #44]	; 0x2c
 80021a4:	6a61      	ldr	r1, [r4, #36]	; 0x24
 80021a6:	6aa3      	ldr	r3, [r4, #40]	; 0x28
 80021a8:	686a      	ldr	r2, [r5, #4]
 80021aa:	430b      	orrs	r3, r1
 80021ac:	491e      	ldr	r1, [pc, #120]	; (8002228 <HAL_RCC_OscConfig+0x498>)
 80021ae:	2480      	movs	r4, #128	; 0x80
 80021b0:	400a      	ands	r2, r1
 80021b2:	4313      	orrs	r3, r2
 80021b4:	606b      	str	r3, [r5, #4]
 80021b6:	2380      	movs	r3, #128	; 0x80
 80021b8:	682a      	ldr	r2, [r5, #0]
 80021ba:	045b      	lsls	r3, r3, #17
 80021bc:	4313      	orrs	r3, r2
 80021be:	602b      	str	r3, [r5, #0]
 80021c0:	f7fe ffd4 	bl	800116c <HAL_GetTick>
 80021c4:	4d16      	ldr	r5, [pc, #88]	; (8002220 <HAL_RCC_OscConfig+0x490>)
 80021c6:	0006      	movs	r6, r0
 80021c8:	04a4      	lsls	r4, r4, #18
 80021ca:	e005      	b.n	80021d8 <HAL_RCC_OscConfig+0x448>
 80021cc:	f7fe ffce 	bl	800116c <HAL_GetTick>
 80021d0:	1b80      	subs	r0, r0, r6
 80021d2:	2802      	cmp	r0, #2
 80021d4:	d900      	bls.n	80021d8 <HAL_RCC_OscConfig+0x448>
 80021d6:	e72d      	b.n	8002034 <HAL_RCC_OscConfig+0x2a4>
 80021d8:	682b      	ldr	r3, [r5, #0]
 80021da:	4223      	tst	r3, r4
 80021dc:	d0f6      	beq.n	80021cc <HAL_RCC_OscConfig+0x43c>
 80021de:	2000      	movs	r0, #0
 80021e0:	e696      	b.n	8001f10 <HAL_RCC_OscConfig+0x180>
 80021e2:	2104      	movs	r1, #4
 80021e4:	4d0e      	ldr	r5, [pc, #56]	; (8002220 <HAL_RCC_OscConfig+0x490>)
 80021e6:	2602      	movs	r6, #2
 80021e8:	6b6a      	ldr	r2, [r5, #52]	; 0x34
 80021ea:	430a      	orrs	r2, r1
 80021ec:	636a      	str	r2, [r5, #52]	; 0x34
 80021ee:	6b6a      	ldr	r2, [r5, #52]	; 0x34
 80021f0:	4313      	orrs	r3, r2
 80021f2:	636b      	str	r3, [r5, #52]	; 0x34
 80021f4:	f7fe ffba 	bl	800116c <HAL_GetTick>
 80021f8:	0007      	movs	r7, r0
 80021fa:	e005      	b.n	8002208 <HAL_RCC_OscConfig+0x478>
 80021fc:	f7fe ffb6 	bl	800116c <HAL_GetTick>
 8002200:	1bc0      	subs	r0, r0, r7
 8002202:	2802      	cmp	r0, #2
 8002204:	d900      	bls.n	8002208 <HAL_RCC_OscConfig+0x478>
 8002206:	e715      	b.n	8002034 <HAL_RCC_OscConfig+0x2a4>
 8002208:	6b6b      	ldr	r3, [r5, #52]	; 0x34
 800220a:	421e      	tst	r6, r3
 800220c:	d0f6      	beq.n	80021fc <HAL_RCC_OscConfig+0x46c>
 800220e:	21f8      	movs	r1, #248	; 0xf8
 8002210:	6b6a      	ldr	r2, [r5, #52]	; 0x34
 8002212:	69a3      	ldr	r3, [r4, #24]
 8002214:	438a      	bics	r2, r1
 8002216:	00db      	lsls	r3, r3, #3
 8002218:	4313      	orrs	r3, r2
 800221a:	636b      	str	r3, [r5, #52]	; 0x34
 800221c:	e6af      	b.n	8001f7e <HAL_RCC_OscConfig+0x1ee>
 800221e:	46c0      	nop			; (mov r8, r8)
 8002220:	40021000 	.word	0x40021000
 8002224:	feffffff 	.word	0xfeffffff
 8002228:	ffc2ffff 	.word	0xffc2ffff

0800222c <HAL_RCC_ClockConfig>:
 800222c:	b5f0      	push	{r4, r5, r6, r7, lr}
 800222e:	46ce      	mov	lr, r9
 8002230:	4647      	mov	r7, r8
 8002232:	b580      	push	{r7, lr}
 8002234:	0004      	movs	r4, r0
 8002236:	b089      	sub	sp, #36	; 0x24
 8002238:	000d      	movs	r5, r1
 800223a:	2800      	cmp	r0, #0
 800223c:	d00d      	beq.n	800225a <HAL_RCC_ClockConfig+0x2e>
 800223e:	2301      	movs	r3, #1
 8002240:	4950      	ldr	r1, [pc, #320]	; (8002384 <HAL_RCC_ClockConfig+0x158>)
 8002242:	680a      	ldr	r2, [r1, #0]
 8002244:	401a      	ands	r2, r3
 8002246:	42aa      	cmp	r2, r5
 8002248:	d20d      	bcs.n	8002266 <HAL_RCC_ClockConfig+0x3a>
 800224a:	680a      	ldr	r2, [r1, #0]
 800224c:	439a      	bics	r2, r3
 800224e:	432a      	orrs	r2, r5
 8002250:	600a      	str	r2, [r1, #0]
 8002252:	680a      	ldr	r2, [r1, #0]
 8002254:	4013      	ands	r3, r2
 8002256:	42ab      	cmp	r3, r5
 8002258:	d005      	beq.n	8002266 <HAL_RCC_ClockConfig+0x3a>
 800225a:	2001      	movs	r0, #1
 800225c:	b009      	add	sp, #36	; 0x24
 800225e:	bc0c      	pop	{r2, r3}
 8002260:	4690      	mov	r8, r2
 8002262:	4699      	mov	r9, r3
 8002264:	bdf0      	pop	{r4, r5, r6, r7, pc}
 8002266:	6823      	ldr	r3, [r4, #0]
 8002268:	079a      	lsls	r2, r3, #30
 800226a:	d50e      	bpl.n	800228a <HAL_RCC_ClockConfig+0x5e>
 800226c:	075a      	lsls	r2, r3, #29
 800226e:	d505      	bpl.n	800227c <HAL_RCC_ClockConfig+0x50>
 8002270:	22e0      	movs	r2, #224	; 0xe0
 8002272:	4945      	ldr	r1, [pc, #276]	; (8002388 <HAL_RCC_ClockConfig+0x15c>)
 8002274:	00d2      	lsls	r2, r2, #3
 8002276:	6848      	ldr	r0, [r1, #4]
 8002278:	4302      	orrs	r2, r0
 800227a:	604a      	str	r2, [r1, #4]
 800227c:	20f0      	movs	r0, #240	; 0xf0
 800227e:	4942      	ldr	r1, [pc, #264]	; (8002388 <HAL_RCC_ClockConfig+0x15c>)
 8002280:	684a      	ldr	r2, [r1, #4]
 8002282:	4382      	bics	r2, r0
 8002284:	68a0      	ldr	r0, [r4, #8]
 8002286:	4302      	orrs	r2, r0
 8002288:	604a      	str	r2, [r1, #4]
 800228a:	07db      	lsls	r3, r3, #31
 800228c:	d521      	bpl.n	80022d2 <HAL_RCC_ClockConfig+0xa6>
 800228e:	4b3e      	ldr	r3, [pc, #248]	; (8002388 <HAL_RCC_ClockConfig+0x15c>)
 8002290:	6862      	ldr	r2, [r4, #4]
 8002292:	681b      	ldr	r3, [r3, #0]
 8002294:	2a01      	cmp	r2, #1
 8002296:	d067      	beq.n	8002368 <HAL_RCC_ClockConfig+0x13c>
 8002298:	2a02      	cmp	r2, #2
 800229a:	d06f      	beq.n	800237c <HAL_RCC_ClockConfig+0x150>
 800229c:	079b      	lsls	r3, r3, #30
 800229e:	d5dc      	bpl.n	800225a <HAL_RCC_ClockConfig+0x2e>
 80022a0:	2103      	movs	r1, #3
 80022a2:	4e39      	ldr	r6, [pc, #228]	; (8002388 <HAL_RCC_ClockConfig+0x15c>)
 80022a4:	270c      	movs	r7, #12
 80022a6:	6873      	ldr	r3, [r6, #4]
 80022a8:	438b      	bics	r3, r1
 80022aa:	4313      	orrs	r3, r2
 80022ac:	6073      	str	r3, [r6, #4]
 80022ae:	f7fe ff5d 	bl	800116c <HAL_GetTick>
 80022b2:	4b36      	ldr	r3, [pc, #216]	; (800238c <HAL_RCC_ClockConfig+0x160>)
 80022b4:	4681      	mov	r9, r0
 80022b6:	4698      	mov	r8, r3
 80022b8:	e005      	b.n	80022c6 <HAL_RCC_ClockConfig+0x9a>
 80022ba:	f7fe ff57 	bl	800116c <HAL_GetTick>
 80022be:	464b      	mov	r3, r9
 80022c0:	1ac0      	subs	r0, r0, r3
 80022c2:	4540      	cmp	r0, r8
 80022c4:	d858      	bhi.n	8002378 <HAL_RCC_ClockConfig+0x14c>
 80022c6:	6872      	ldr	r2, [r6, #4]
 80022c8:	6863      	ldr	r3, [r4, #4]
 80022ca:	403a      	ands	r2, r7
 80022cc:	009b      	lsls	r3, r3, #2
 80022ce:	429a      	cmp	r2, r3
 80022d0:	d1f3      	bne.n	80022ba <HAL_RCC_ClockConfig+0x8e>
 80022d2:	2101      	movs	r1, #1
 80022d4:	4a2b      	ldr	r2, [pc, #172]	; (8002384 <HAL_RCC_ClockConfig+0x158>)
 80022d6:	6813      	ldr	r3, [r2, #0]
 80022d8:	400b      	ands	r3, r1
 80022da:	42ab      	cmp	r3, r5
 80022dc:	d905      	bls.n	80022ea <HAL_RCC_ClockConfig+0xbe>
 80022de:	6813      	ldr	r3, [r2, #0]
 80022e0:	438b      	bics	r3, r1
 80022e2:	6013      	str	r3, [r2, #0]
 80022e4:	6813      	ldr	r3, [r2, #0]
 80022e6:	4219      	tst	r1, r3
 80022e8:	d1b7      	bne.n	800225a <HAL_RCC_ClockConfig+0x2e>
 80022ea:	6823      	ldr	r3, [r4, #0]
 80022ec:	075b      	lsls	r3, r3, #29
 80022ee:	d506      	bpl.n	80022fe <HAL_RCC_ClockConfig+0xd2>
 80022f0:	4a25      	ldr	r2, [pc, #148]	; (8002388 <HAL_RCC_ClockConfig+0x15c>)
 80022f2:	4927      	ldr	r1, [pc, #156]	; (8002390 <HAL_RCC_ClockConfig+0x164>)
 80022f4:	6853      	ldr	r3, [r2, #4]
 80022f6:	400b      	ands	r3, r1
 80022f8:	68e1      	ldr	r1, [r4, #12]
 80022fa:	430b      	orrs	r3, r1
 80022fc:	6053      	str	r3, [r2, #4]
 80022fe:	4669      	mov	r1, sp
 8002300:	4b24      	ldr	r3, [pc, #144]	; (8002394 <HAL_RCC_ClockConfig+0x168>)
 8002302:	000a      	movs	r2, r1
 8002304:	0018      	movs	r0, r3
 8002306:	c870      	ldmia	r0!, {r4, r5, r6}
 8002308:	c270      	stmia	r2!, {r4, r5, r6}
 800230a:	6800      	ldr	r0, [r0, #0]
 800230c:	3310      	adds	r3, #16
 800230e:	6010      	str	r0, [r2, #0]
 8002310:	aa04      	add	r2, sp, #16
 8002312:	0010      	movs	r0, r2
 8002314:	cb70      	ldmia	r3!, {r4, r5, r6}
 8002316:	c070      	stmia	r0!, {r4, r5, r6}
 8002318:	681b      	ldr	r3, [r3, #0]
 800231a:	4d1b      	ldr	r5, [pc, #108]	; (8002388 <HAL_RCC_ClockConfig+0x15c>)
 800231c:	6003      	str	r3, [r0, #0]
 800231e:	230c      	movs	r3, #12
 8002320:	6868      	ldr	r0, [r5, #4]
 8002322:	4003      	ands	r3, r0
 8002324:	2b08      	cmp	r3, #8
 8002326:	d11d      	bne.n	8002364 <HAL_RCC_ClockConfig+0x138>
 8002328:	3307      	adds	r3, #7
 800232a:	0c84      	lsrs	r4, r0, #18
 800232c:	401c      	ands	r4, r3
 800232e:	5d0c      	ldrb	r4, [r1, r4]
 8002330:	6ae9      	ldr	r1, [r5, #44]	; 0x2c
 8002332:	400b      	ands	r3, r1
 8002334:	5cd1      	ldrb	r1, [r2, r3]
 8002336:	03c3      	lsls	r3, r0, #15
 8002338:	d419      	bmi.n	800236e <HAL_RCC_ClockConfig+0x142>
 800233a:	0163      	lsls	r3, r4, #5
 800233c:	1b1b      	subs	r3, r3, r4
 800233e:	0198      	lsls	r0, r3, #6
 8002340:	1ac0      	subs	r0, r0, r3
 8002342:	00c0      	lsls	r0, r0, #3
 8002344:	1900      	adds	r0, r0, r4
 8002346:	0200      	lsls	r0, r0, #8
 8002348:	4b0f      	ldr	r3, [pc, #60]	; (8002388 <HAL_RCC_ClockConfig+0x15c>)
 800234a:	4a13      	ldr	r2, [pc, #76]	; (8002398 <HAL_RCC_ClockConfig+0x16c>)
 800234c:	685b      	ldr	r3, [r3, #4]
 800234e:	061b      	lsls	r3, r3, #24
 8002350:	0f1b      	lsrs	r3, r3, #28
 8002352:	5cd3      	ldrb	r3, [r2, r3]
 8002354:	40d8      	lsrs	r0, r3
 8002356:	4b11      	ldr	r3, [pc, #68]	; (800239c <HAL_RCC_ClockConfig+0x170>)
 8002358:	6018      	str	r0, [r3, #0]
 800235a:	2000      	movs	r0, #0
 800235c:	f003 fec0 	bl	80060e0 <HAL_InitTick>
 8002360:	2000      	movs	r0, #0
 8002362:	e77b      	b.n	800225c <HAL_RCC_ClockConfig+0x30>
 8002364:	480e      	ldr	r0, [pc, #56]	; (80023a0 <HAL_RCC_ClockConfig+0x174>)
 8002366:	e7ef      	b.n	8002348 <HAL_RCC_ClockConfig+0x11c>
 8002368:	039b      	lsls	r3, r3, #14
 800236a:	d499      	bmi.n	80022a0 <HAL_RCC_ClockConfig+0x74>
 800236c:	e775      	b.n	800225a <HAL_RCC_ClockConfig+0x2e>
 800236e:	480c      	ldr	r0, [pc, #48]	; (80023a0 <HAL_RCC_ClockConfig+0x174>)
 8002370:	f7fd fed2 	bl	8000118 <__udivsi3>
 8002374:	4360      	muls	r0, r4
 8002376:	e7e7      	b.n	8002348 <HAL_RCC_ClockConfig+0x11c>
 8002378:	2003      	movs	r0, #3
 800237a:	e76f      	b.n	800225c <HAL_RCC_ClockConfig+0x30>
 800237c:	019b      	lsls	r3, r3, #6
 800237e:	d48f      	bmi.n	80022a0 <HAL_RCC_ClockConfig+0x74>
 8002380:	e76b      	b.n	800225a <HAL_RCC_ClockConfig+0x2e>
 8002382:	46c0      	nop			; (mov r8, r8)
 8002384:	40022000 	.word	0x40022000
 8002388:	40021000 	.word	0x40021000
 800238c:	00001388 	.word	0x00001388
 8002390:	fffff8ff 	.word	0xfffff8ff
 8002394:	080075f4 	.word	0x080075f4
 8002398:	08007dd8 	.word	0x08007dd8
 800239c:	20000004 	.word	0x20000004
 80023a0:	007a1200 	.word	0x007a1200

080023a4 <HAL_RCC_GetSysClockFreq>:
 80023a4:	b570      	push	{r4, r5, r6, lr}
 80023a6:	b088      	sub	sp, #32
 80023a8:	4669      	mov	r1, sp
 80023aa:	4b16      	ldr	r3, [pc, #88]	; (8002404 <HAL_RCC_GetSysClockFreq+0x60>)
 80023ac:	000a      	movs	r2, r1
 80023ae:	0018      	movs	r0, r3
 80023b0:	c870      	ldmia	r0!, {r4, r5, r6}
 80023b2:	c270      	stmia	r2!, {r4, r5, r6}
 80023b4:	6800      	ldr	r0, [r0, #0]
 80023b6:	3310      	adds	r3, #16
 80023b8:	6010      	str	r0, [r2, #0]
 80023ba:	aa04      	add	r2, sp, #16
 80023bc:	0010      	movs	r0, r2
 80023be:	cb70      	ldmia	r3!, {r4, r5, r6}
 80023c0:	c070      	stmia	r0!, {r4, r5, r6}
 80023c2:	681b      	ldr	r3, [r3, #0]
 80023c4:	4d10      	ldr	r5, [pc, #64]	; (8002408 <HAL_RCC_GetSysClockFreq+0x64>)
 80023c6:	6003      	str	r3, [r0, #0]
 80023c8:	230c      	movs	r3, #12
 80023ca:	6868      	ldr	r0, [r5, #4]
 80023cc:	4003      	ands	r3, r0
 80023ce:	2b08      	cmp	r3, #8
 80023d0:	d002      	beq.n	80023d8 <HAL_RCC_GetSysClockFreq+0x34>
 80023d2:	480e      	ldr	r0, [pc, #56]	; (800240c <HAL_RCC_GetSysClockFreq+0x68>)
 80023d4:	b008      	add	sp, #32
 80023d6:	bd70      	pop	{r4, r5, r6, pc}
 80023d8:	3307      	adds	r3, #7
 80023da:	0c84      	lsrs	r4, r0, #18
 80023dc:	401c      	ands	r4, r3
 80023de:	5d0c      	ldrb	r4, [r1, r4]
 80023e0:	6ae9      	ldr	r1, [r5, #44]	; 0x2c
 80023e2:	400b      	ands	r3, r1
 80023e4:	5cd1      	ldrb	r1, [r2, r3]
 80023e6:	03c3      	lsls	r3, r0, #15
 80023e8:	d407      	bmi.n	80023fa <HAL_RCC_GetSysClockFreq+0x56>
 80023ea:	0163      	lsls	r3, r4, #5
 80023ec:	1b1b      	subs	r3, r3, r4
 80023ee:	0198      	lsls	r0, r3, #6
 80023f0:	1ac0      	subs	r0, r0, r3
 80023f2:	00c0      	lsls	r0, r0, #3
 80023f4:	1900      	adds	r0, r0, r4
 80023f6:	0200      	lsls	r0, r0, #8
 80023f8:	e7ec      	b.n	80023d4 <HAL_RCC_GetSysClockFreq+0x30>
 80023fa:	4804      	ldr	r0, [pc, #16]	; (800240c <HAL_RCC_GetSysClockFreq+0x68>)
 80023fc:	f7fd fe8c 	bl	8000118 <__udivsi3>
 8002400:	4360      	muls	r0, r4
 8002402:	e7e7      	b.n	80023d4 <HAL_RCC_GetSysClockFreq+0x30>
 8002404:	080075f4 	.word	0x080075f4
 8002408:	40021000 	.word	0x40021000
 800240c:	007a1200 	.word	0x007a1200

08002410 <HAL_RCC_GetPCLK1Freq>:
 8002410:	4b04      	ldr	r3, [pc, #16]	; (8002424 <HAL_RCC_GetPCLK1Freq+0x14>)
 8002412:	4a05      	ldr	r2, [pc, #20]	; (8002428 <HAL_RCC_GetPCLK1Freq+0x18>)
 8002414:	685b      	ldr	r3, [r3, #4]
 8002416:	055b      	lsls	r3, r3, #21
 8002418:	0f5b      	lsrs	r3, r3, #29
 800241a:	5cd3      	ldrb	r3, [r2, r3]
 800241c:	4a03      	ldr	r2, [pc, #12]	; (800242c <HAL_RCC_GetPCLK1Freq+0x1c>)
 800241e:	6810      	ldr	r0, [r2, #0]
 8002420:	40d8      	lsrs	r0, r3
 8002422:	4770      	bx	lr
 8002424:	40021000 	.word	0x40021000
 8002428:	08007de8 	.word	0x08007de8
 800242c:	20000004 	.word	0x20000004

08002430 <HAL_RCC_GetClockConfig>:
 8002430:	2307      	movs	r3, #7
 8002432:	2203      	movs	r2, #3
 8002434:	6003      	str	r3, [r0, #0]
 8002436:	4b0a      	ldr	r3, [pc, #40]	; (8002460 <HAL_RCC_GetClockConfig+0x30>)
 8002438:	b510      	push	{r4, lr}
 800243a:	685c      	ldr	r4, [r3, #4]
 800243c:	4022      	ands	r2, r4
 800243e:	6042      	str	r2, [r0, #4]
 8002440:	22f0      	movs	r2, #240	; 0xf0
 8002442:	685c      	ldr	r4, [r3, #4]
 8002444:	4022      	ands	r2, r4
 8002446:	6082      	str	r2, [r0, #8]
 8002448:	22e0      	movs	r2, #224	; 0xe0
 800244a:	685b      	ldr	r3, [r3, #4]
 800244c:	00d2      	lsls	r2, r2, #3
 800244e:	4013      	ands	r3, r2
 8002450:	60c3      	str	r3, [r0, #12]
 8002452:	4b04      	ldr	r3, [pc, #16]	; (8002464 <HAL_RCC_GetClockConfig+0x34>)
 8002454:	681a      	ldr	r2, [r3, #0]
 8002456:	2301      	movs	r3, #1
 8002458:	4013      	ands	r3, r2
 800245a:	600b      	str	r3, [r1, #0]
 800245c:	bd10      	pop	{r4, pc}
 800245e:	46c0      	nop			; (mov r8, r8)
 8002460:	40021000 	.word	0x40021000
 8002464:	40022000 	.word	0x40022000

08002468 <HAL_RCCEx_PeriphCLKConfig>:
 8002468:	b5f0      	push	{r4, r5, r6, r7, lr}
 800246a:	46ce      	mov	lr, r9
 800246c:	4647      	mov	r7, r8
 800246e:	b580      	push	{r7, lr}
 8002470:	6803      	ldr	r3, [r0, #0]
 8002472:	b083      	sub	sp, #12
 8002474:	0004      	movs	r4, r0
 8002476:	03da      	lsls	r2, r3, #15
 8002478:	d536      	bpl.n	80024e8 <HAL_RCCEx_PeriphCLKConfig+0x80>
 800247a:	2280      	movs	r2, #128	; 0x80
 800247c:	4b3c      	ldr	r3, [pc, #240]	; (8002570 <HAL_RCCEx_PeriphCLKConfig+0x108>)
 800247e:	0552      	lsls	r2, r2, #21
 8002480:	69d9      	ldr	r1, [r3, #28]
 8002482:	2700      	movs	r7, #0
 8002484:	4211      	tst	r1, r2
 8002486:	d107      	bne.n	8002498 <HAL_RCCEx_PeriphCLKConfig+0x30>
 8002488:	69d9      	ldr	r1, [r3, #28]
 800248a:	3701      	adds	r7, #1
 800248c:	4311      	orrs	r1, r2
 800248e:	61d9      	str	r1, [r3, #28]
 8002490:	69db      	ldr	r3, [r3, #28]
 8002492:	401a      	ands	r2, r3
 8002494:	9201      	str	r2, [sp, #4]
 8002496:	9b01      	ldr	r3, [sp, #4]
 8002498:	2680      	movs	r6, #128	; 0x80
 800249a:	4d36      	ldr	r5, [pc, #216]	; (8002574 <HAL_RCCEx_PeriphCLKConfig+0x10c>)
 800249c:	0076      	lsls	r6, r6, #1
 800249e:	682b      	ldr	r3, [r5, #0]
 80024a0:	4233      	tst	r3, r6
 80024a2:	d039      	beq.n	8002518 <HAL_RCCEx_PeriphCLKConfig+0xb0>
 80024a4:	21c0      	movs	r1, #192	; 0xc0
 80024a6:	4d32      	ldr	r5, [pc, #200]	; (8002570 <HAL_RCCEx_PeriphCLKConfig+0x108>)
 80024a8:	0089      	lsls	r1, r1, #2
 80024aa:	6a2a      	ldr	r2, [r5, #32]
 80024ac:	6860      	ldr	r0, [r4, #4]
 80024ae:	400a      	ands	r2, r1
 80024b0:	d011      	beq.n	80024d6 <HAL_RCCEx_PeriphCLKConfig+0x6e>
 80024b2:	4001      	ands	r1, r0
 80024b4:	4291      	cmp	r1, r2
 80024b6:	d00e      	beq.n	80024d6 <HAL_RCCEx_PeriphCLKConfig+0x6e>
 80024b8:	2280      	movs	r2, #128	; 0x80
 80024ba:	6a29      	ldr	r1, [r5, #32]
 80024bc:	6a2e      	ldr	r6, [r5, #32]
 80024be:	0252      	lsls	r2, r2, #9
 80024c0:	4332      	orrs	r2, r6
 80024c2:	622a      	str	r2, [r5, #32]
 80024c4:	6a2a      	ldr	r2, [r5, #32]
 80024c6:	4b2c      	ldr	r3, [pc, #176]	; (8002578 <HAL_RCCEx_PeriphCLKConfig+0x110>)
 80024c8:	4e2c      	ldr	r6, [pc, #176]	; (800257c <HAL_RCCEx_PeriphCLKConfig+0x114>)
 80024ca:	400b      	ands	r3, r1
 80024cc:	4032      	ands	r2, r6
 80024ce:	622a      	str	r2, [r5, #32]
 80024d0:	622b      	str	r3, [r5, #32]
 80024d2:	07cb      	lsls	r3, r1, #31
 80024d4:	d439      	bmi.n	800254a <HAL_RCCEx_PeriphCLKConfig+0xe2>
 80024d6:	4a26      	ldr	r2, [pc, #152]	; (8002570 <HAL_RCCEx_PeriphCLKConfig+0x108>)
 80024d8:	4927      	ldr	r1, [pc, #156]	; (8002578 <HAL_RCCEx_PeriphCLKConfig+0x110>)
 80024da:	6a13      	ldr	r3, [r2, #32]
 80024dc:	400b      	ands	r3, r1
 80024de:	4303      	orrs	r3, r0
 80024e0:	6213      	str	r3, [r2, #32]
 80024e2:	2f01      	cmp	r7, #1
 80024e4:	d029      	beq.n	800253a <HAL_RCCEx_PeriphCLKConfig+0xd2>
 80024e6:	6823      	ldr	r3, [r4, #0]
 80024e8:	07da      	lsls	r2, r3, #31
 80024ea:	d506      	bpl.n	80024fa <HAL_RCCEx_PeriphCLKConfig+0x92>
 80024ec:	2003      	movs	r0, #3
 80024ee:	4920      	ldr	r1, [pc, #128]	; (8002570 <HAL_RCCEx_PeriphCLKConfig+0x108>)
 80024f0:	6b0a      	ldr	r2, [r1, #48]	; 0x30
 80024f2:	4382      	bics	r2, r0
 80024f4:	68a0      	ldr	r0, [r4, #8]
 80024f6:	4302      	orrs	r2, r0
 80024f8:	630a      	str	r2, [r1, #48]	; 0x30
 80024fa:	2000      	movs	r0, #0
 80024fc:	069b      	lsls	r3, r3, #26
 80024fe:	d506      	bpl.n	800250e <HAL_RCCEx_PeriphCLKConfig+0xa6>
 8002500:	2110      	movs	r1, #16
 8002502:	4a1b      	ldr	r2, [pc, #108]	; (8002570 <HAL_RCCEx_PeriphCLKConfig+0x108>)
 8002504:	6b13      	ldr	r3, [r2, #48]	; 0x30
 8002506:	438b      	bics	r3, r1
 8002508:	68e1      	ldr	r1, [r4, #12]
 800250a:	430b      	orrs	r3, r1
 800250c:	6313      	str	r3, [r2, #48]	; 0x30
 800250e:	b003      	add	sp, #12
 8002510:	bc0c      	pop	{r2, r3}
 8002512:	4690      	mov	r8, r2
 8002514:	4699      	mov	r9, r3
 8002516:	bdf0      	pop	{r4, r5, r6, r7, pc}
 8002518:	682b      	ldr	r3, [r5, #0]
 800251a:	4333      	orrs	r3, r6
 800251c:	602b      	str	r3, [r5, #0]
 800251e:	f7fe fe25 	bl	800116c <HAL_GetTick>
 8002522:	4680      	mov	r8, r0
 8002524:	e005      	b.n	8002532 <HAL_RCCEx_PeriphCLKConfig+0xca>
 8002526:	f7fe fe21 	bl	800116c <HAL_GetTick>
 800252a:	4643      	mov	r3, r8
 800252c:	1ac0      	subs	r0, r0, r3
 800252e:	2864      	cmp	r0, #100	; 0x64
 8002530:	d809      	bhi.n	8002546 <HAL_RCCEx_PeriphCLKConfig+0xde>
 8002532:	682b      	ldr	r3, [r5, #0]
 8002534:	4233      	tst	r3, r6
 8002536:	d0f6      	beq.n	8002526 <HAL_RCCEx_PeriphCLKConfig+0xbe>
 8002538:	e7b4      	b.n	80024a4 <HAL_RCCEx_PeriphCLKConfig+0x3c>
 800253a:	69d3      	ldr	r3, [r2, #28]
 800253c:	4910      	ldr	r1, [pc, #64]	; (8002580 <HAL_RCCEx_PeriphCLKConfig+0x118>)
 800253e:	400b      	ands	r3, r1
 8002540:	61d3      	str	r3, [r2, #28]
 8002542:	6823      	ldr	r3, [r4, #0]
 8002544:	e7d0      	b.n	80024e8 <HAL_RCCEx_PeriphCLKConfig+0x80>
 8002546:	2003      	movs	r0, #3
 8002548:	e7e1      	b.n	800250e <HAL_RCCEx_PeriphCLKConfig+0xa6>
 800254a:	f7fe fe0f 	bl	800116c <HAL_GetTick>
 800254e:	4b0d      	ldr	r3, [pc, #52]	; (8002584 <HAL_RCCEx_PeriphCLKConfig+0x11c>)
 8002550:	4680      	mov	r8, r0
 8002552:	2602      	movs	r6, #2
 8002554:	4699      	mov	r9, r3
 8002556:	e005      	b.n	8002564 <HAL_RCCEx_PeriphCLKConfig+0xfc>
 8002558:	f7fe fe08 	bl	800116c <HAL_GetTick>
 800255c:	4643      	mov	r3, r8
 800255e:	1ac0      	subs	r0, r0, r3
 8002560:	4548      	cmp	r0, r9
 8002562:	d8f0      	bhi.n	8002546 <HAL_RCCEx_PeriphCLKConfig+0xde>
 8002564:	6a2b      	ldr	r3, [r5, #32]
 8002566:	421e      	tst	r6, r3
 8002568:	d0f6      	beq.n	8002558 <HAL_RCCEx_PeriphCLKConfig+0xf0>
 800256a:	6860      	ldr	r0, [r4, #4]
 800256c:	e7b3      	b.n	80024d6 <HAL_RCCEx_PeriphCLKConfig+0x6e>
 800256e:	46c0      	nop			; (mov r8, r8)
 8002570:	40021000 	.word	0x40021000
 8002574:	40007000 	.word	0x40007000
 8002578:	fffffcff 	.word	0xfffffcff
 800257c:	fffeffff 	.word	0xfffeffff
 8002580:	efffffff 	.word	0xefffffff
 8002584:	00001388 	.word	0x00001388

08002588 <HAL_TIM_Base_MspInit>:
 8002588:	4770      	bx	lr
 800258a:	46c0      	nop			; (mov r8, r8)

0800258c <HAL_TIM_Base_Init>:
 800258c:	b570      	push	{r4, r5, r6, lr}
 800258e:	1e04      	subs	r4, r0, #0
 8002590:	d035      	beq.n	80025fe <HAL_TIM_Base_Init+0x72>
 8002592:	233d      	movs	r3, #61	; 0x3d
 8002594:	5cc3      	ldrb	r3, [r0, r3]
 8002596:	b2db      	uxtb	r3, r3
 8002598:	2b00      	cmp	r3, #0
 800259a:	d02b      	beq.n	80025f4 <HAL_TIM_Base_Init+0x68>
 800259c:	233d      	movs	r3, #61	; 0x3d
 800259e:	2202      	movs	r2, #2
 80025a0:	4e22      	ldr	r6, [pc, #136]	; (800262c <HAL_TIM_Base_Init+0xa0>)
 80025a2:	54e2      	strb	r2, [r4, r3]
 80025a4:	6823      	ldr	r3, [r4, #0]
 80025a6:	69a5      	ldr	r5, [r4, #24]
 80025a8:	681a      	ldr	r2, [r3, #0]
 80025aa:	68e0      	ldr	r0, [r4, #12]
 80025ac:	6861      	ldr	r1, [r4, #4]
 80025ae:	42b3      	cmp	r3, r6
 80025b0:	d036      	beq.n	8002620 <HAL_TIM_Base_Init+0x94>
 80025b2:	4e1f      	ldr	r6, [pc, #124]	; (8002630 <HAL_TIM_Base_Init+0xa4>)
 80025b4:	42b3      	cmp	r3, r6
 80025b6:	d024      	beq.n	8002602 <HAL_TIM_Base_Init+0x76>
 80025b8:	4e1e      	ldr	r6, [pc, #120]	; (8002634 <HAL_TIM_Base_Init+0xa8>)
 80025ba:	42b3      	cmp	r3, r6
 80025bc:	d025      	beq.n	800260a <HAL_TIM_Base_Init+0x7e>
 80025be:	4e1e      	ldr	r6, [pc, #120]	; (8002638 <HAL_TIM_Base_Init+0xac>)
 80025c0:	42b3      	cmp	r3, r6
 80025c2:	d005      	beq.n	80025d0 <HAL_TIM_Base_Init+0x44>
 80025c4:	4e1d      	ldr	r6, [pc, #116]	; (800263c <HAL_TIM_Base_Init+0xb0>)
 80025c6:	42b3      	cmp	r3, r6
 80025c8:	d002      	beq.n	80025d0 <HAL_TIM_Base_Init+0x44>
 80025ca:	4e1d      	ldr	r6, [pc, #116]	; (8002640 <HAL_TIM_Base_Init+0xb4>)
 80025cc:	42b3      	cmp	r3, r6
 80025ce:	d120      	bne.n	8002612 <HAL_TIM_Base_Init+0x86>
 80025d0:	4e1c      	ldr	r6, [pc, #112]	; (8002644 <HAL_TIM_Base_Init+0xb8>)
 80025d2:	4032      	ands	r2, r6
 80025d4:	6926      	ldr	r6, [r4, #16]
 80025d6:	4332      	orrs	r2, r6
 80025d8:	2680      	movs	r6, #128	; 0x80
 80025da:	43b2      	bics	r2, r6
 80025dc:	432a      	orrs	r2, r5
 80025de:	601a      	str	r2, [r3, #0]
 80025e0:	62d8      	str	r0, [r3, #44]	; 0x2c
 80025e2:	6299      	str	r1, [r3, #40]	; 0x28
 80025e4:	6962      	ldr	r2, [r4, #20]
 80025e6:	631a      	str	r2, [r3, #48]	; 0x30
 80025e8:	2201      	movs	r2, #1
 80025ea:	615a      	str	r2, [r3, #20]
 80025ec:	233d      	movs	r3, #61	; 0x3d
 80025ee:	2000      	movs	r0, #0
 80025f0:	54e2      	strb	r2, [r4, r3]
 80025f2:	bd70      	pop	{r4, r5, r6, pc}
 80025f4:	223c      	movs	r2, #60	; 0x3c
 80025f6:	5483      	strb	r3, [r0, r2]
 80025f8:	f7ff ffc6 	bl	8002588 <HAL_TIM_Base_MspInit>
 80025fc:	e7ce      	b.n	800259c <HAL_TIM_Base_Init+0x10>
 80025fe:	2001      	movs	r0, #1
 8002600:	e7f7      	b.n	80025f2 <HAL_TIM_Base_Init+0x66>
 8002602:	2670      	movs	r6, #112	; 0x70
 8002604:	43b2      	bics	r2, r6
 8002606:	68a6      	ldr	r6, [r4, #8]
 8002608:	4332      	orrs	r2, r6
 800260a:	4e0e      	ldr	r6, [pc, #56]	; (8002644 <HAL_TIM_Base_Init+0xb8>)
 800260c:	4032      	ands	r2, r6
 800260e:	6926      	ldr	r6, [r4, #16]
 8002610:	4332      	orrs	r2, r6
 8002612:	2680      	movs	r6, #128	; 0x80
 8002614:	43b2      	bics	r2, r6
 8002616:	432a      	orrs	r2, r5
 8002618:	601a      	str	r2, [r3, #0]
 800261a:	62d8      	str	r0, [r3, #44]	; 0x2c
 800261c:	6299      	str	r1, [r3, #40]	; 0x28
 800261e:	e7e3      	b.n	80025e8 <HAL_TIM_Base_Init+0x5c>
 8002620:	2670      	movs	r6, #112	; 0x70
 8002622:	43b2      	bics	r2, r6
 8002624:	68a6      	ldr	r6, [r4, #8]
 8002626:	4332      	orrs	r2, r6
 8002628:	e7d2      	b.n	80025d0 <HAL_TIM_Base_Init+0x44>
 800262a:	46c0      	nop			; (mov r8, r8)
 800262c:	40012c00 	.word	0x40012c00
 8002630:	40000400 	.word	0x40000400
 8002634:	40002000 	.word	0x40002000
 8002638:	40014000 	.word	0x40014000
 800263c:	40014400 	.word	0x40014400
 8002640:	40014800 	.word	0x40014800
 8002644:	fffffcff 	.word	0xfffffcff

08002648 <HAL_TIM_Base_Start_IT>:
 8002648:	2101      	movs	r1, #1
 800264a:	6803      	ldr	r3, [r0, #0]
 800264c:	68da      	ldr	r2, [r3, #12]
 800264e:	430a      	orrs	r2, r1
 8002650:	60da      	str	r2, [r3, #12]
 8002652:	2207      	movs	r2, #7
 8002654:	6898      	ldr	r0, [r3, #8]
 8002656:	4002      	ands	r2, r0
 8002658:	2a06      	cmp	r2, #6
 800265a:	d002      	beq.n	8002662 <HAL_TIM_Base_Start_IT+0x1a>
 800265c:	681a      	ldr	r2, [r3, #0]
 800265e:	430a      	orrs	r2, r1
 8002660:	601a      	str	r2, [r3, #0]
 8002662:	2000      	movs	r0, #0
 8002664:	4770      	bx	lr
 8002666:	46c0      	nop			; (mov r8, r8)

08002668 <HAL_TIM_OC_DelayElapsedCallback>:
 8002668:	4770      	bx	lr
 800266a:	46c0      	nop			; (mov r8, r8)

0800266c <HAL_TIM_IC_CaptureCallback>:
 800266c:	4770      	bx	lr
 800266e:	46c0      	nop			; (mov r8, r8)

08002670 <HAL_TIM_PWM_PulseFinishedCallback>:
 8002670:	4770      	bx	lr
 8002672:	46c0      	nop			; (mov r8, r8)

08002674 <HAL_TIM_TriggerCallback>:
 8002674:	4770      	bx	lr
 8002676:	46c0      	nop			; (mov r8, r8)

08002678 <HAL_TIM_IRQHandler>:
 8002678:	2202      	movs	r2, #2
 800267a:	6803      	ldr	r3, [r0, #0]
 800267c:	b510      	push	{r4, lr}
 800267e:	6919      	ldr	r1, [r3, #16]
 8002680:	0004      	movs	r4, r0
 8002682:	420a      	tst	r2, r1
 8002684:	d002      	beq.n	800268c <HAL_TIM_IRQHandler+0x14>
 8002686:	68d9      	ldr	r1, [r3, #12]
 8002688:	420a      	tst	r2, r1
 800268a:	d165      	bne.n	8002758 <HAL_TIM_IRQHandler+0xe0>
 800268c:	2204      	movs	r2, #4
 800268e:	6919      	ldr	r1, [r3, #16]
 8002690:	420a      	tst	r2, r1
 8002692:	d002      	beq.n	800269a <HAL_TIM_IRQHandler+0x22>
 8002694:	68d9      	ldr	r1, [r3, #12]
 8002696:	420a      	tst	r2, r1
 8002698:	d14b      	bne.n	8002732 <HAL_TIM_IRQHandler+0xba>
 800269a:	2208      	movs	r2, #8
 800269c:	6919      	ldr	r1, [r3, #16]
 800269e:	420a      	tst	r2, r1
 80026a0:	d002      	beq.n	80026a8 <HAL_TIM_IRQHandler+0x30>
 80026a2:	68d9      	ldr	r1, [r3, #12]
 80026a4:	420a      	tst	r2, r1
 80026a6:	d133      	bne.n	8002710 <HAL_TIM_IRQHandler+0x98>
 80026a8:	2210      	movs	r2, #16
 80026aa:	6919      	ldr	r1, [r3, #16]
 80026ac:	420a      	tst	r2, r1
 80026ae:	d002      	beq.n	80026b6 <HAL_TIM_IRQHandler+0x3e>
 80026b0:	68d9      	ldr	r1, [r3, #12]
 80026b2:	420a      	tst	r2, r1
 80026b4:	d11c      	bne.n	80026f0 <HAL_TIM_IRQHandler+0x78>
 80026b6:	2201      	movs	r2, #1
 80026b8:	6919      	ldr	r1, [r3, #16]
 80026ba:	420a      	tst	r2, r1
 80026bc:	d002      	beq.n	80026c4 <HAL_TIM_IRQHandler+0x4c>
 80026be:	68d9      	ldr	r1, [r3, #12]
 80026c0:	420a      	tst	r2, r1
 80026c2:	d15c      	bne.n	800277e <HAL_TIM_IRQHandler+0x106>
 80026c4:	2280      	movs	r2, #128	; 0x80
 80026c6:	6919      	ldr	r1, [r3, #16]
 80026c8:	420a      	tst	r2, r1
 80026ca:	d002      	beq.n	80026d2 <HAL_TIM_IRQHandler+0x5a>
 80026cc:	68d9      	ldr	r1, [r3, #12]
 80026ce:	420a      	tst	r2, r1
 80026d0:	d15c      	bne.n	800278c <HAL_TIM_IRQHandler+0x114>
 80026d2:	2240      	movs	r2, #64	; 0x40
 80026d4:	6919      	ldr	r1, [r3, #16]
 80026d6:	420a      	tst	r2, r1
 80026d8:	d002      	beq.n	80026e0 <HAL_TIM_IRQHandler+0x68>
 80026da:	68d9      	ldr	r1, [r3, #12]
 80026dc:	420a      	tst	r2, r1
 80026de:	d15d      	bne.n	800279c <HAL_TIM_IRQHandler+0x124>
 80026e0:	2220      	movs	r2, #32
 80026e2:	6919      	ldr	r1, [r3, #16]
 80026e4:	420a      	tst	r2, r1
 80026e6:	d002      	beq.n	80026ee <HAL_TIM_IRQHandler+0x76>
 80026e8:	68d9      	ldr	r1, [r3, #12]
 80026ea:	420a      	tst	r2, r1
 80026ec:	d141      	bne.n	8002772 <HAL_TIM_IRQHandler+0xfa>
 80026ee:	bd10      	pop	{r4, pc}
 80026f0:	3a21      	subs	r2, #33	; 0x21
 80026f2:	611a      	str	r2, [r3, #16]
 80026f4:	3219      	adds	r2, #25
 80026f6:	7722      	strb	r2, [r4, #28]
 80026f8:	69da      	ldr	r2, [r3, #28]
 80026fa:	23c0      	movs	r3, #192	; 0xc0
 80026fc:	009b      	lsls	r3, r3, #2
 80026fe:	0020      	movs	r0, r4
 8002700:	421a      	tst	r2, r3
 8002702:	d05e      	beq.n	80027c2 <HAL_TIM_IRQHandler+0x14a>
 8002704:	f7ff ffb2 	bl	800266c <HAL_TIM_IC_CaptureCallback>
 8002708:	2300      	movs	r3, #0
 800270a:	7723      	strb	r3, [r4, #28]
 800270c:	6823      	ldr	r3, [r4, #0]
 800270e:	e7d2      	b.n	80026b6 <HAL_TIM_IRQHandler+0x3e>
 8002710:	3a11      	subs	r2, #17
 8002712:	611a      	str	r2, [r3, #16]
 8002714:	69db      	ldr	r3, [r3, #28]
 8002716:	320d      	adds	r2, #13
 8002718:	7722      	strb	r2, [r4, #28]
 800271a:	0020      	movs	r0, r4
 800271c:	079b      	lsls	r3, r3, #30
 800271e:	d14d      	bne.n	80027bc <HAL_TIM_IRQHandler+0x144>
 8002720:	f7ff ffa2 	bl	8002668 <HAL_TIM_OC_DelayElapsedCallback>
 8002724:	0020      	movs	r0, r4
 8002726:	f7ff ffa3 	bl	8002670 <HAL_TIM_PWM_PulseFinishedCallback>
 800272a:	2300      	movs	r3, #0
 800272c:	7723      	strb	r3, [r4, #28]
 800272e:	6823      	ldr	r3, [r4, #0]
 8002730:	e7ba      	b.n	80026a8 <HAL_TIM_IRQHandler+0x30>
 8002732:	3a09      	subs	r2, #9
 8002734:	611a      	str	r2, [r3, #16]
 8002736:	3207      	adds	r2, #7
 8002738:	7722      	strb	r2, [r4, #28]
 800273a:	699a      	ldr	r2, [r3, #24]
 800273c:	23c0      	movs	r3, #192	; 0xc0
 800273e:	009b      	lsls	r3, r3, #2
 8002740:	0020      	movs	r0, r4
 8002742:	421a      	tst	r2, r3
 8002744:	d137      	bne.n	80027b6 <HAL_TIM_IRQHandler+0x13e>
 8002746:	f7ff ff8f 	bl	8002668 <HAL_TIM_OC_DelayElapsedCallback>
 800274a:	0020      	movs	r0, r4
 800274c:	f7ff ff90 	bl	8002670 <HAL_TIM_PWM_PulseFinishedCallback>
 8002750:	2300      	movs	r3, #0
 8002752:	7723      	strb	r3, [r4, #28]
 8002754:	6823      	ldr	r3, [r4, #0]
 8002756:	e7a0      	b.n	800269a <HAL_TIM_IRQHandler+0x22>
 8002758:	3a05      	subs	r2, #5
 800275a:	611a      	str	r2, [r3, #16]
 800275c:	699b      	ldr	r3, [r3, #24]
 800275e:	3204      	adds	r2, #4
 8002760:	7702      	strb	r2, [r0, #28]
 8002762:	079b      	lsls	r3, r3, #30
 8002764:	d021      	beq.n	80027aa <HAL_TIM_IRQHandler+0x132>
 8002766:	f7ff ff81 	bl	800266c <HAL_TIM_IC_CaptureCallback>
 800276a:	2300      	movs	r3, #0
 800276c:	7723      	strb	r3, [r4, #28]
 800276e:	6823      	ldr	r3, [r4, #0]
 8002770:	e78c      	b.n	800268c <HAL_TIM_IRQHandler+0x14>
 8002772:	3a41      	subs	r2, #65	; 0x41
 8002774:	611a      	str	r2, [r3, #16]
 8002776:	0020      	movs	r0, r4
 8002778:	f000 f82a 	bl	80027d0 <HAL_TIMEx_CommutCallback>
 800277c:	e7b7      	b.n	80026ee <HAL_TIM_IRQHandler+0x76>
 800277e:	3a03      	subs	r2, #3
 8002780:	611a      	str	r2, [r3, #16]
 8002782:	0020      	movs	r0, r4
 8002784:	f002 fff8 	bl	8005778 <HAL_TIM_PeriodElapsedCallback>
 8002788:	6823      	ldr	r3, [r4, #0]
 800278a:	e79b      	b.n	80026c4 <HAL_TIM_IRQHandler+0x4c>
 800278c:	3a02      	subs	r2, #2
 800278e:	3aff      	subs	r2, #255	; 0xff
 8002790:	611a      	str	r2, [r3, #16]
 8002792:	0020      	movs	r0, r4
 8002794:	f000 f81e 	bl	80027d4 <HAL_TIMEx_BreakCallback>
 8002798:	6823      	ldr	r3, [r4, #0]
 800279a:	e79a      	b.n	80026d2 <HAL_TIM_IRQHandler+0x5a>
 800279c:	3a81      	subs	r2, #129	; 0x81
 800279e:	611a      	str	r2, [r3, #16]
 80027a0:	0020      	movs	r0, r4
 80027a2:	f7ff ff67 	bl	8002674 <HAL_TIM_TriggerCallback>
 80027a6:	6823      	ldr	r3, [r4, #0]
 80027a8:	e79a      	b.n	80026e0 <HAL_TIM_IRQHandler+0x68>
 80027aa:	f7ff ff5d 	bl	8002668 <HAL_TIM_OC_DelayElapsedCallback>
 80027ae:	0020      	movs	r0, r4
 80027b0:	f7ff ff5e 	bl	8002670 <HAL_TIM_PWM_PulseFinishedCallback>
 80027b4:	e7d9      	b.n	800276a <HAL_TIM_IRQHandler+0xf2>
 80027b6:	f7ff ff59 	bl	800266c <HAL_TIM_IC_CaptureCallback>
 80027ba:	e7c9      	b.n	8002750 <HAL_TIM_IRQHandler+0xd8>
 80027bc:	f7ff ff56 	bl	800266c <HAL_TIM_IC_CaptureCallback>
 80027c0:	e7b3      	b.n	800272a <HAL_TIM_IRQHandler+0xb2>
 80027c2:	f7ff ff51 	bl	8002668 <HAL_TIM_OC_DelayElapsedCallback>
 80027c6:	0020      	movs	r0, r4
 80027c8:	f7ff ff52 	bl	8002670 <HAL_TIM_PWM_PulseFinishedCallback>
 80027cc:	e79c      	b.n	8002708 <HAL_TIM_IRQHandler+0x90>
 80027ce:	46c0      	nop			; (mov r8, r8)

080027d0 <HAL_TIMEx_CommutCallback>:
 80027d0:	4770      	bx	lr
 80027d2:	46c0      	nop			; (mov r8, r8)

080027d4 <HAL_TIMEx_BreakCallback>:
 80027d4:	4770      	bx	lr
 80027d6:	46c0      	nop			; (mov r8, r8)

080027d8 <HAL_UART_Transmit>:
 80027d8:	b5f8      	push	{r3, r4, r5, r6, r7, lr}
 80027da:	4657      	mov	r7, sl
 80027dc:	464e      	mov	r6, r9
 80027de:	4645      	mov	r5, r8
 80027e0:	46de      	mov	lr, fp
 80027e2:	b5e0      	push	{r5, r6, r7, lr}
 80027e4:	001e      	movs	r6, r3
 80027e6:	6f43      	ldr	r3, [r0, #116]	; 0x74
 80027e8:	0005      	movs	r5, r0
 80027ea:	000f      	movs	r7, r1
 80027ec:	0014      	movs	r4, r2
 80027ee:	2002      	movs	r0, #2
 80027f0:	2b20      	cmp	r3, #32
 80027f2:	d150      	bne.n	8002896 <HAL_UART_Transmit+0xbe>
 80027f4:	2900      	cmp	r1, #0
 80027f6:	d054      	beq.n	80028a2 <HAL_UART_Transmit+0xca>
 80027f8:	3801      	subs	r0, #1
 80027fa:	2a00      	cmp	r2, #0
 80027fc:	d04b      	beq.n	8002896 <HAL_UART_Transmit+0xbe>
 80027fe:	2380      	movs	r3, #128	; 0x80
 8002800:	68aa      	ldr	r2, [r5, #8]
 8002802:	015b      	lsls	r3, r3, #5
 8002804:	429a      	cmp	r2, r3
 8002806:	d04e      	beq.n	80028a6 <HAL_UART_Transmit+0xce>
 8002808:	2370      	movs	r3, #112	; 0x70
 800280a:	5cea      	ldrb	r2, [r5, r3]
 800280c:	2a01      	cmp	r2, #1
 800280e:	d100      	bne.n	8002812 <HAL_UART_Transmit+0x3a>
 8002810:	e0a6      	b.n	8002960 <HAL_UART_Transmit+0x188>
 8002812:	2201      	movs	r2, #1
 8002814:	54ea      	strb	r2, [r5, r3]
 8002816:	2300      	movs	r3, #0
 8002818:	67eb      	str	r3, [r5, #124]	; 0x7c
 800281a:	3321      	adds	r3, #33	; 0x21
 800281c:	676b      	str	r3, [r5, #116]	; 0x74
 800281e:	f7fe fca5 	bl	800116c <HAL_GetTick>
 8002822:	2350      	movs	r3, #80	; 0x50
 8002824:	2200      	movs	r2, #0
 8002826:	52ec      	strh	r4, [r5, r3]
 8002828:	3302      	adds	r3, #2
 800282a:	52ec      	strh	r4, [r5, r3]
 800282c:	2380      	movs	r3, #128	; 0x80
 800282e:	4693      	mov	fp, r2
 8002830:	68aa      	ldr	r2, [r5, #8]
 8002832:	4682      	mov	sl, r0
 8002834:	015b      	lsls	r3, r3, #5
 8002836:	429a      	cmp	r2, r3
 8002838:	d100      	bne.n	800283c <HAL_UART_Transmit+0x64>
 800283a:	e0a4      	b.n	8002986 <HAL_UART_Transmit+0x1ae>
 800283c:	2352      	movs	r3, #82	; 0x52
 800283e:	5aeb      	ldrh	r3, [r5, r3]
 8002840:	682a      	ldr	r2, [r5, #0]
 8002842:	2480      	movs	r4, #128	; 0x80
 8002844:	2b00      	cmp	r3, #0
 8002846:	d014      	beq.n	8002872 <HAL_UART_Transmit+0x9a>
 8002848:	2380      	movs	r3, #128	; 0x80
 800284a:	011b      	lsls	r3, r3, #4
 800284c:	4699      	mov	r9, r3
 800284e:	1c73      	adds	r3, r6, #1
 8002850:	d12f      	bne.n	80028b2 <HAL_UART_Transmit+0xda>
 8002852:	69d3      	ldr	r3, [r2, #28]
 8002854:	421c      	tst	r4, r3
 8002856:	d0fc      	beq.n	8002852 <HAL_UART_Transmit+0x7a>
 8002858:	2f00      	cmp	r7, #0
 800285a:	d052      	beq.n	8002902 <HAL_UART_Transmit+0x12a>
 800285c:	783b      	ldrb	r3, [r7, #0]
 800285e:	3701      	adds	r7, #1
 8002860:	8513      	strh	r3, [r2, #40]	; 0x28
 8002862:	2152      	movs	r1, #82	; 0x52
 8002864:	5a6b      	ldrh	r3, [r5, r1]
 8002866:	3b01      	subs	r3, #1
 8002868:	b29b      	uxth	r3, r3
 800286a:	526b      	strh	r3, [r5, r1]
 800286c:	5a6b      	ldrh	r3, [r5, r1]
 800286e:	2b00      	cmp	r3, #0
 8002870:	d1ea      	bne.n	8002848 <HAL_UART_Transmit+0x70>
 8002872:	2304      	movs	r3, #4
 8002874:	4698      	mov	r8, r3
 8002876:	2380      	movs	r3, #128	; 0x80
 8002878:	011b      	lsls	r3, r3, #4
 800287a:	2740      	movs	r7, #64	; 0x40
 800287c:	4699      	mov	r9, r3
 800287e:	1c73      	adds	r3, r6, #1
 8002880:	d148      	bne.n	8002914 <HAL_UART_Transmit+0x13c>
 8002882:	2140      	movs	r1, #64	; 0x40
 8002884:	69d3      	ldr	r3, [r2, #28]
 8002886:	4219      	tst	r1, r3
 8002888:	d0fc      	beq.n	8002884 <HAL_UART_Transmit+0xac>
 800288a:	2320      	movs	r3, #32
 800288c:	2200      	movs	r2, #0
 800288e:	2000      	movs	r0, #0
 8002890:	676b      	str	r3, [r5, #116]	; 0x74
 8002892:	3350      	adds	r3, #80	; 0x50
 8002894:	54ea      	strb	r2, [r5, r3]
 8002896:	bc3c      	pop	{r2, r3, r4, r5}
 8002898:	4690      	mov	r8, r2
 800289a:	4699      	mov	r9, r3
 800289c:	46a2      	mov	sl, r4
 800289e:	46ab      	mov	fp, r5
 80028a0:	bdf8      	pop	{r3, r4, r5, r6, r7, pc}
 80028a2:	2001      	movs	r0, #1
 80028a4:	e7f7      	b.n	8002896 <HAL_UART_Transmit+0xbe>
 80028a6:	692b      	ldr	r3, [r5, #16]
 80028a8:	2b00      	cmp	r3, #0
 80028aa:	d1ad      	bne.n	8002808 <HAL_UART_Transmit+0x30>
 80028ac:	4201      	tst	r1, r0
 80028ae:	d0ab      	beq.n	8002808 <HAL_UART_Transmit+0x30>
 80028b0:	e7f1      	b.n	8002896 <HAL_UART_Transmit+0xbe>
 80028b2:	69d3      	ldr	r3, [r2, #28]
 80028b4:	4023      	ands	r3, r4
 80028b6:	4698      	mov	r8, r3
 80028b8:	d1ce      	bne.n	8002858 <HAL_UART_Transmit+0x80>
 80028ba:	f7fe fc57 	bl	800116c <HAL_GetTick>
 80028be:	4653      	mov	r3, sl
 80028c0:	682a      	ldr	r2, [r5, #0]
 80028c2:	1ac0      	subs	r0, r0, r3
 80028c4:	4286      	cmp	r6, r0
 80028c6:	d34d      	bcc.n	8002964 <HAL_UART_Transmit+0x18c>
 80028c8:	2e00      	cmp	r6, #0
 80028ca:	d04b      	beq.n	8002964 <HAL_UART_Transmit+0x18c>
 80028cc:	2104      	movs	r1, #4
 80028ce:	6813      	ldr	r3, [r2, #0]
 80028d0:	4219      	tst	r1, r3
 80028d2:	d0bc      	beq.n	800284e <HAL_UART_Transmit+0x76>
 80028d4:	4649      	mov	r1, r9
 80028d6:	69d3      	ldr	r3, [r2, #28]
 80028d8:	420b      	tst	r3, r1
 80028da:	d0b8      	beq.n	800284e <HAL_UART_Transmit+0x76>
 80028dc:	6211      	str	r1, [r2, #32]
 80028de:	6813      	ldr	r3, [r2, #0]
 80028e0:	492c      	ldr	r1, [pc, #176]	; (8002994 <HAL_UART_Transmit+0x1bc>)
 80028e2:	2003      	movs	r0, #3
 80028e4:	400b      	ands	r3, r1
 80028e6:	6013      	str	r3, [r2, #0]
 80028e8:	6893      	ldr	r3, [r2, #8]
 80028ea:	31a3      	adds	r1, #163	; 0xa3
 80028ec:	31ff      	adds	r1, #255	; 0xff
 80028ee:	438b      	bics	r3, r1
 80028f0:	6093      	str	r3, [r2, #8]
 80028f2:	2320      	movs	r3, #32
 80028f4:	4642      	mov	r2, r8
 80028f6:	676b      	str	r3, [r5, #116]	; 0x74
 80028f8:	67ab      	str	r3, [r5, #120]	; 0x78
 80028fa:	67eb      	str	r3, [r5, #124]	; 0x7c
 80028fc:	3350      	adds	r3, #80	; 0x50
 80028fe:	54ea      	strb	r2, [r5, r3]
 8002900:	e7c9      	b.n	8002896 <HAL_UART_Transmit+0xbe>
 8002902:	465b      	mov	r3, fp
 8002904:	881b      	ldrh	r3, [r3, #0]
 8002906:	05db      	lsls	r3, r3, #23
 8002908:	0ddb      	lsrs	r3, r3, #23
 800290a:	8513      	strh	r3, [r2, #40]	; 0x28
 800290c:	2302      	movs	r3, #2
 800290e:	469c      	mov	ip, r3
 8002910:	44e3      	add	fp, ip
 8002912:	e7a6      	b.n	8002862 <HAL_UART_Transmit+0x8a>
 8002914:	69d4      	ldr	r4, [r2, #28]
 8002916:	403c      	ands	r4, r7
 8002918:	d1b7      	bne.n	800288a <HAL_UART_Transmit+0xb2>
 800291a:	f7fe fc27 	bl	800116c <HAL_GetTick>
 800291e:	4653      	mov	r3, sl
 8002920:	682a      	ldr	r2, [r5, #0]
 8002922:	1ac0      	subs	r0, r0, r3
 8002924:	4286      	cmp	r6, r0
 8002926:	d31d      	bcc.n	8002964 <HAL_UART_Transmit+0x18c>
 8002928:	2e00      	cmp	r6, #0
 800292a:	d01b      	beq.n	8002964 <HAL_UART_Transmit+0x18c>
 800292c:	4641      	mov	r1, r8
 800292e:	6813      	ldr	r3, [r2, #0]
 8002930:	4219      	tst	r1, r3
 8002932:	d0a4      	beq.n	800287e <HAL_UART_Transmit+0xa6>
 8002934:	4649      	mov	r1, r9
 8002936:	69d3      	ldr	r3, [r2, #28]
 8002938:	420b      	tst	r3, r1
 800293a:	d0a0      	beq.n	800287e <HAL_UART_Transmit+0xa6>
 800293c:	6211      	str	r1, [r2, #32]
 800293e:	6813      	ldr	r3, [r2, #0]
 8002940:	4914      	ldr	r1, [pc, #80]	; (8002994 <HAL_UART_Transmit+0x1bc>)
 8002942:	2003      	movs	r0, #3
 8002944:	400b      	ands	r3, r1
 8002946:	6013      	str	r3, [r2, #0]
 8002948:	6893      	ldr	r3, [r2, #8]
 800294a:	31a3      	adds	r1, #163	; 0xa3
 800294c:	31ff      	adds	r1, #255	; 0xff
 800294e:	438b      	bics	r3, r1
 8002950:	6093      	str	r3, [r2, #8]
 8002952:	2320      	movs	r3, #32
 8002954:	676b      	str	r3, [r5, #116]	; 0x74
 8002956:	67ab      	str	r3, [r5, #120]	; 0x78
 8002958:	67eb      	str	r3, [r5, #124]	; 0x7c
 800295a:	3350      	adds	r3, #80	; 0x50
 800295c:	54ec      	strb	r4, [r5, r3]
 800295e:	e79a      	b.n	8002896 <HAL_UART_Transmit+0xbe>
 8002960:	2002      	movs	r0, #2
 8002962:	e798      	b.n	8002896 <HAL_UART_Transmit+0xbe>
 8002964:	6813      	ldr	r3, [r2, #0]
 8002966:	490b      	ldr	r1, [pc, #44]	; (8002994 <HAL_UART_Transmit+0x1bc>)
 8002968:	2003      	movs	r0, #3
 800296a:	400b      	ands	r3, r1
 800296c:	6013      	str	r3, [r2, #0]
 800296e:	6893      	ldr	r3, [r2, #8]
 8002970:	31a3      	adds	r1, #163	; 0xa3
 8002972:	31ff      	adds	r1, #255	; 0xff
 8002974:	438b      	bics	r3, r1
 8002976:	6093      	str	r3, [r2, #8]
 8002978:	2320      	movs	r3, #32
 800297a:	2200      	movs	r2, #0
 800297c:	676b      	str	r3, [r5, #116]	; 0x74
 800297e:	67ab      	str	r3, [r5, #120]	; 0x78
 8002980:	3350      	adds	r3, #80	; 0x50
 8002982:	54ea      	strb	r2, [r5, r3]
 8002984:	e787      	b.n	8002896 <HAL_UART_Transmit+0xbe>
 8002986:	692b      	ldr	r3, [r5, #16]
 8002988:	2b00      	cmp	r3, #0
 800298a:	d000      	beq.n	800298e <HAL_UART_Transmit+0x1b6>
 800298c:	e756      	b.n	800283c <HAL_UART_Transmit+0x64>
 800298e:	46bb      	mov	fp, r7
 8002990:	2700      	movs	r7, #0
 8002992:	e753      	b.n	800283c <HAL_UART_Transmit+0x64>
 8002994:	fffffe5f 	.word	0xfffffe5f

08002998 <HAL_UART_Transmit_DMA>:
 8002998:	b5f8      	push	{r3, r4, r5, r6, r7, lr}
 800299a:	6f45      	ldr	r5, [r0, #116]	; 0x74
 800299c:	0004      	movs	r4, r0
 800299e:	2002      	movs	r0, #2
 80029a0:	2d20      	cmp	r5, #32
 80029a2:	d136      	bne.n	8002a12 <HAL_UART_Transmit_DMA+0x7a>
 80029a4:	2900      	cmp	r1, #0
 80029a6:	d035      	beq.n	8002a14 <HAL_UART_Transmit_DMA+0x7c>
 80029a8:	3801      	subs	r0, #1
 80029aa:	2a00      	cmp	r2, #0
 80029ac:	d031      	beq.n	8002a12 <HAL_UART_Transmit_DMA+0x7a>
 80029ae:	2380      	movs	r3, #128	; 0x80
 80029b0:	68a5      	ldr	r5, [r4, #8]
 80029b2:	015b      	lsls	r3, r3, #5
 80029b4:	429d      	cmp	r5, r3
 80029b6:	d02f      	beq.n	8002a18 <HAL_UART_Transmit_DMA+0x80>
 80029b8:	2570      	movs	r5, #112	; 0x70
 80029ba:	5d63      	ldrb	r3, [r4, r5]
 80029bc:	2b01      	cmp	r3, #1
 80029be:	d038      	beq.n	8002a32 <HAL_UART_Transmit_DMA+0x9a>
 80029c0:	2301      	movs	r3, #1
 80029c2:	2600      	movs	r6, #0
 80029c4:	5563      	strb	r3, [r4, r5]
 80029c6:	334f      	adds	r3, #79	; 0x4f
 80029c8:	64e1      	str	r1, [r4, #76]	; 0x4c
 80029ca:	6ea0      	ldr	r0, [r4, #104]	; 0x68
 80029cc:	52e2      	strh	r2, [r4, r3]
 80029ce:	3302      	adds	r3, #2
 80029d0:	52e2      	strh	r2, [r4, r3]
 80029d2:	3b31      	subs	r3, #49	; 0x31
 80029d4:	67e6      	str	r6, [r4, #124]	; 0x7c
 80029d6:	6763      	str	r3, [r4, #116]	; 0x74
 80029d8:	6823      	ldr	r3, [r4, #0]
 80029da:	2800      	cmp	r0, #0
 80029dc:	d00f      	beq.n	80029fe <HAL_UART_Transmit_DMA+0x66>
 80029de:	4f16      	ldr	r7, [pc, #88]	; (8002a38 <HAL_UART_Transmit_DMA+0xa0>)
 80029e0:	3328      	adds	r3, #40	; 0x28
 80029e2:	6287      	str	r7, [r0, #40]	; 0x28
 80029e4:	4f15      	ldr	r7, [pc, #84]	; (8002a3c <HAL_UART_Transmit_DMA+0xa4>)
 80029e6:	6346      	str	r6, [r0, #52]	; 0x34
 80029e8:	62c7      	str	r7, [r0, #44]	; 0x2c
 80029ea:	4f15      	ldr	r7, [pc, #84]	; (8002a40 <HAL_UART_Transmit_DMA+0xa8>)
 80029ec:	6307      	str	r7, [r0, #48]	; 0x30
 80029ee:	001f      	movs	r7, r3
 80029f0:	0013      	movs	r3, r2
 80029f2:	003a      	movs	r2, r7
 80029f4:	f7fe fc3e 	bl	8001274 <HAL_DMA_Start_IT>
 80029f8:	2800      	cmp	r0, #0
 80029fa:	d113      	bne.n	8002a24 <HAL_UART_Transmit_DMA+0x8c>
 80029fc:	6823      	ldr	r3, [r4, #0]
 80029fe:	2240      	movs	r2, #64	; 0x40
 8002a00:	2100      	movs	r1, #0
 8002a02:	2000      	movs	r0, #0
 8002a04:	621a      	str	r2, [r3, #32]
 8002a06:	3230      	adds	r2, #48	; 0x30
 8002a08:	54a1      	strb	r1, [r4, r2]
 8002a0a:	689a      	ldr	r2, [r3, #8]
 8002a0c:	3180      	adds	r1, #128	; 0x80
 8002a0e:	430a      	orrs	r2, r1
 8002a10:	609a      	str	r2, [r3, #8]
 8002a12:	bdf8      	pop	{r3, r4, r5, r6, r7, pc}
 8002a14:	2001      	movs	r0, #1
 8002a16:	e7fc      	b.n	8002a12 <HAL_UART_Transmit_DMA+0x7a>
 8002a18:	6923      	ldr	r3, [r4, #16]
 8002a1a:	2b00      	cmp	r3, #0
 8002a1c:	d1cc      	bne.n	80029b8 <HAL_UART_Transmit_DMA+0x20>
 8002a1e:	4201      	tst	r1, r0
 8002a20:	d0ca      	beq.n	80029b8 <HAL_UART_Transmit_DMA+0x20>
 8002a22:	e7f6      	b.n	8002a12 <HAL_UART_Transmit_DMA+0x7a>
 8002a24:	2310      	movs	r3, #16
 8002a26:	67e3      	str	r3, [r4, #124]	; 0x7c
 8002a28:	3310      	adds	r3, #16
 8002a2a:	5566      	strb	r6, [r4, r5]
 8002a2c:	2001      	movs	r0, #1
 8002a2e:	6763      	str	r3, [r4, #116]	; 0x74
 8002a30:	e7ef      	b.n	8002a12 <HAL_UART_Transmit_DMA+0x7a>
 8002a32:	2002      	movs	r0, #2
 8002a34:	e7ed      	b.n	8002a12 <HAL_UART_Transmit_DMA+0x7a>
 8002a36:	46c0      	nop			; (mov r8, r8)
 8002a38:	08002afd 	.word	0x08002afd
 8002a3c:	08002b2d 	.word	0x08002b2d
 8002a40:	08002b85 	.word	0x08002b85

08002a44 <HAL_UART_Receive_DMA>:
 8002a44:	b5f8      	push	{r3, r4, r5, r6, r7, lr}
 8002a46:	6f85      	ldr	r5, [r0, #120]	; 0x78
 8002a48:	0004      	movs	r4, r0
 8002a4a:	2002      	movs	r0, #2
 8002a4c:	2d20      	cmp	r5, #32
 8002a4e:	d13b      	bne.n	8002ac8 <HAL_UART_Receive_DMA+0x84>
 8002a50:	2900      	cmp	r1, #0
 8002a52:	d03a      	beq.n	8002aca <HAL_UART_Receive_DMA+0x86>
 8002a54:	3801      	subs	r0, #1
 8002a56:	2a00      	cmp	r2, #0
 8002a58:	d036      	beq.n	8002ac8 <HAL_UART_Receive_DMA+0x84>
 8002a5a:	2380      	movs	r3, #128	; 0x80
 8002a5c:	68a5      	ldr	r5, [r4, #8]
 8002a5e:	015b      	lsls	r3, r3, #5
 8002a60:	429d      	cmp	r5, r3
 8002a62:	d034      	beq.n	8002ace <HAL_UART_Receive_DMA+0x8a>
 8002a64:	2570      	movs	r5, #112	; 0x70
 8002a66:	5d63      	ldrb	r3, [r4, r5]
 8002a68:	2b01      	cmp	r3, #1
 8002a6a:	d03d      	beq.n	8002ae8 <HAL_UART_Receive_DMA+0xa4>
 8002a6c:	2301      	movs	r3, #1
 8002a6e:	2600      	movs	r6, #0
 8002a70:	5563      	strb	r3, [r4, r5]
 8002a72:	6ee0      	ldr	r0, [r4, #108]	; 0x6c
 8002a74:	3357      	adds	r3, #87	; 0x57
 8002a76:	6561      	str	r1, [r4, #84]	; 0x54
 8002a78:	52e2      	strh	r2, [r4, r3]
 8002a7a:	3b36      	subs	r3, #54	; 0x36
 8002a7c:	67e6      	str	r6, [r4, #124]	; 0x7c
 8002a7e:	67a3      	str	r3, [r4, #120]	; 0x78
 8002a80:	6823      	ldr	r3, [r4, #0]
 8002a82:	2800      	cmp	r0, #0
 8002a84:	d010      	beq.n	8002aa8 <HAL_UART_Receive_DMA+0x64>
 8002a86:	4f19      	ldr	r7, [pc, #100]	; (8002aec <HAL_UART_Receive_DMA+0xa8>)
 8002a88:	3324      	adds	r3, #36	; 0x24
 8002a8a:	6287      	str	r7, [r0, #40]	; 0x28
 8002a8c:	4f18      	ldr	r7, [pc, #96]	; (8002af0 <HAL_UART_Receive_DMA+0xac>)
 8002a8e:	6346      	str	r6, [r0, #52]	; 0x34
 8002a90:	62c7      	str	r7, [r0, #44]	; 0x2c
 8002a92:	4f18      	ldr	r7, [pc, #96]	; (8002af4 <HAL_UART_Receive_DMA+0xb0>)
 8002a94:	6307      	str	r7, [r0, #48]	; 0x30
 8002a96:	001f      	movs	r7, r3
 8002a98:	0013      	movs	r3, r2
 8002a9a:	000a      	movs	r2, r1
 8002a9c:	0039      	movs	r1, r7
 8002a9e:	f7fe fbe9 	bl	8001274 <HAL_DMA_Start_IT>
 8002aa2:	2800      	cmp	r0, #0
 8002aa4:	d119      	bne.n	8002ada <HAL_UART_Receive_DMA+0x96>
 8002aa6:	6823      	ldr	r3, [r4, #0]
 8002aa8:	2270      	movs	r2, #112	; 0x70
 8002aaa:	2100      	movs	r1, #0
 8002aac:	54a1      	strb	r1, [r4, r2]
 8002aae:	6819      	ldr	r1, [r3, #0]
 8002ab0:	3290      	adds	r2, #144	; 0x90
 8002ab2:	430a      	orrs	r2, r1
 8002ab4:	2101      	movs	r1, #1
 8002ab6:	2000      	movs	r0, #0
 8002ab8:	601a      	str	r2, [r3, #0]
 8002aba:	689a      	ldr	r2, [r3, #8]
 8002abc:	430a      	orrs	r2, r1
 8002abe:	609a      	str	r2, [r3, #8]
 8002ac0:	689a      	ldr	r2, [r3, #8]
 8002ac2:	313f      	adds	r1, #63	; 0x3f
 8002ac4:	430a      	orrs	r2, r1
 8002ac6:	609a      	str	r2, [r3, #8]
 8002ac8:	bdf8      	pop	{r3, r4, r5, r6, r7, pc}
 8002aca:	2001      	movs	r0, #1
 8002acc:	e7fc      	b.n	8002ac8 <HAL_UART_Receive_DMA+0x84>
 8002ace:	6923      	ldr	r3, [r4, #16]
 8002ad0:	2b00      	cmp	r3, #0
 8002ad2:	d1c7      	bne.n	8002a64 <HAL_UART_Receive_DMA+0x20>
 8002ad4:	4201      	tst	r1, r0
 8002ad6:	d0c5      	beq.n	8002a64 <HAL_UART_Receive_DMA+0x20>
 8002ad8:	e7f6      	b.n	8002ac8 <HAL_UART_Receive_DMA+0x84>
 8002ada:	2310      	movs	r3, #16
 8002adc:	67e3      	str	r3, [r4, #124]	; 0x7c
 8002ade:	3310      	adds	r3, #16
 8002ae0:	5566      	strb	r6, [r4, r5]
 8002ae2:	2001      	movs	r0, #1
 8002ae4:	6763      	str	r3, [r4, #116]	; 0x74
 8002ae6:	e7ef      	b.n	8002ac8 <HAL_UART_Receive_DMA+0x84>
 8002ae8:	2002      	movs	r0, #2
 8002aea:	e7ed      	b.n	8002ac8 <HAL_UART_Receive_DMA+0x84>
 8002aec:	08002b39 	.word	0x08002b39
 8002af0:	08002b75 	.word	0x08002b75
 8002af4:	08002b85 	.word	0x08002b85

08002af8 <HAL_UART_TxCpltCallback>:
 8002af8:	4770      	bx	lr
 8002afa:	46c0      	nop			; (mov r8, r8)

08002afc <UART_DMATransmitCplt>:
 8002afc:	6982      	ldr	r2, [r0, #24]
 8002afe:	b510      	push	{r4, lr}
 8002b00:	6a43      	ldr	r3, [r0, #36]	; 0x24
 8002b02:	2a20      	cmp	r2, #32
 8002b04:	d00c      	beq.n	8002b20 <UART_DMATransmitCplt+0x24>
 8002b06:	2252      	movs	r2, #82	; 0x52
 8002b08:	2100      	movs	r1, #0
 8002b0a:	5299      	strh	r1, [r3, r2]
 8002b0c:	681b      	ldr	r3, [r3, #0]
 8002b0e:	3180      	adds	r1, #128	; 0x80
 8002b10:	689a      	ldr	r2, [r3, #8]
 8002b12:	438a      	bics	r2, r1
 8002b14:	609a      	str	r2, [r3, #8]
 8002b16:	681a      	ldr	r2, [r3, #0]
 8002b18:	3940      	subs	r1, #64	; 0x40
 8002b1a:	430a      	orrs	r2, r1
 8002b1c:	601a      	str	r2, [r3, #0]
 8002b1e:	bd10      	pop	{r4, pc}
 8002b20:	0018      	movs	r0, r3
 8002b22:	f7ff ffe9 	bl	8002af8 <HAL_UART_TxCpltCallback>
 8002b26:	e7fa      	b.n	8002b1e <UART_DMATransmitCplt+0x22>

08002b28 <HAL_UART_TxHalfCpltCallback>:
 8002b28:	4770      	bx	lr
 8002b2a:	46c0      	nop			; (mov r8, r8)

08002b2c <UART_DMATxHalfCplt>:
 8002b2c:	b510      	push	{r4, lr}
 8002b2e:	6a40      	ldr	r0, [r0, #36]	; 0x24
 8002b30:	f7ff fffa 	bl	8002b28 <HAL_UART_TxHalfCpltCallback>
 8002b34:	bd10      	pop	{r4, pc}
 8002b36:	46c0      	nop			; (mov r8, r8)

08002b38 <UART_DMAReceiveCplt>:
 8002b38:	6983      	ldr	r3, [r0, #24]
 8002b3a:	b510      	push	{r4, lr}
 8002b3c:	6a42      	ldr	r2, [r0, #36]	; 0x24
 8002b3e:	2b20      	cmp	r3, #32
 8002b40:	d012      	beq.n	8002b68 <UART_DMAReceiveCplt+0x30>
 8002b42:	235a      	movs	r3, #90	; 0x5a
 8002b44:	2100      	movs	r1, #0
 8002b46:	52d1      	strh	r1, [r2, r3]
 8002b48:	6813      	ldr	r3, [r2, #0]
 8002b4a:	4809      	ldr	r0, [pc, #36]	; (8002b70 <UART_DMAReceiveCplt+0x38>)
 8002b4c:	6819      	ldr	r1, [r3, #0]
 8002b4e:	4001      	ands	r1, r0
 8002b50:	6019      	str	r1, [r3, #0]
 8002b52:	6899      	ldr	r1, [r3, #8]
 8002b54:	3003      	adds	r0, #3
 8002b56:	30ff      	adds	r0, #255	; 0xff
 8002b58:	4381      	bics	r1, r0
 8002b5a:	6099      	str	r1, [r3, #8]
 8002b5c:	6899      	ldr	r1, [r3, #8]
 8002b5e:	303f      	adds	r0, #63	; 0x3f
 8002b60:	4381      	bics	r1, r0
 8002b62:	6099      	str	r1, [r3, #8]
 8002b64:	2320      	movs	r3, #32
 8002b66:	6793      	str	r3, [r2, #120]	; 0x78
 8002b68:	0010      	movs	r0, r2
 8002b6a:	f002 fde3 	bl	8005734 <HAL_UART_RxCpltCallback>
 8002b6e:	bd10      	pop	{r4, pc}
 8002b70:	fffffeff 	.word	0xfffffeff

08002b74 <UART_DMARxHalfCplt>:
 8002b74:	b510      	push	{r4, lr}
 8002b76:	6a40      	ldr	r0, [r0, #36]	; 0x24
 8002b78:	f002 fdf4 	bl	8005764 <HAL_UART_RxHalfCpltCallback>
 8002b7c:	bd10      	pop	{r4, pc}
 8002b7e:	46c0      	nop			; (mov r8, r8)

08002b80 <HAL_UART_ErrorCallback>:
 8002b80:	4770      	bx	lr
 8002b82:	46c0      	nop			; (mov r8, r8)

08002b84 <UART_DMAError>:
 8002b84:	6a40      	ldr	r0, [r0, #36]	; 0x24
 8002b86:	b510      	push	{r4, lr}
 8002b88:	6803      	ldr	r3, [r0, #0]
 8002b8a:	6f44      	ldr	r4, [r0, #116]	; 0x74
 8002b8c:	6f81      	ldr	r1, [r0, #120]	; 0x78
 8002b8e:	689a      	ldr	r2, [r3, #8]
 8002b90:	0612      	lsls	r2, r2, #24
 8002b92:	d501      	bpl.n	8002b98 <UART_DMAError+0x14>
 8002b94:	2c21      	cmp	r4, #33	; 0x21
 8002b96:	d01b      	beq.n	8002bd0 <UART_DMAError+0x4c>
 8002b98:	689a      	ldr	r2, [r3, #8]
 8002b9a:	0652      	lsls	r2, r2, #25
 8002b9c:	d501      	bpl.n	8002ba2 <UART_DMAError+0x1e>
 8002b9e:	2922      	cmp	r1, #34	; 0x22
 8002ba0:	d006      	beq.n	8002bb0 <UART_DMAError+0x2c>
 8002ba2:	2210      	movs	r2, #16
 8002ba4:	6fc3      	ldr	r3, [r0, #124]	; 0x7c
 8002ba6:	4313      	orrs	r3, r2
 8002ba8:	67c3      	str	r3, [r0, #124]	; 0x7c
 8002baa:	f7ff ffe9 	bl	8002b80 <HAL_UART_ErrorCallback>
 8002bae:	bd10      	pop	{r4, pc}
 8002bb0:	2100      	movs	r1, #0
 8002bb2:	225a      	movs	r2, #90	; 0x5a
 8002bb4:	5281      	strh	r1, [r0, r2]
 8002bb6:	681a      	ldr	r2, [r3, #0]
 8002bb8:	4c0a      	ldr	r4, [pc, #40]	; (8002be4 <UART_DMAError+0x60>)
 8002bba:	4022      	ands	r2, r4
 8002bbc:	601a      	str	r2, [r3, #0]
 8002bbe:	689a      	ldr	r2, [r3, #8]
 8002bc0:	3423      	adds	r4, #35	; 0x23
 8002bc2:	34ff      	adds	r4, #255	; 0xff
 8002bc4:	43a2      	bics	r2, r4
 8002bc6:	609a      	str	r2, [r3, #8]
 8002bc8:	2320      	movs	r3, #32
 8002bca:	6601      	str	r1, [r0, #96]	; 0x60
 8002bcc:	6783      	str	r3, [r0, #120]	; 0x78
 8002bce:	e7e8      	b.n	8002ba2 <UART_DMAError+0x1e>
 8002bd0:	2252      	movs	r2, #82	; 0x52
 8002bd2:	2400      	movs	r4, #0
 8002bd4:	5284      	strh	r4, [r0, r2]
 8002bd6:	681a      	ldr	r2, [r3, #0]
 8002bd8:	34c0      	adds	r4, #192	; 0xc0
 8002bda:	43a2      	bics	r2, r4
 8002bdc:	601a      	str	r2, [r3, #0]
 8002bde:	2220      	movs	r2, #32
 8002be0:	6742      	str	r2, [r0, #116]	; 0x74
 8002be2:	e7d9      	b.n	8002b98 <UART_DMAError+0x14>
 8002be4:	fffffedf 	.word	0xfffffedf

08002be8 <HAL_UART_IRQHandler>:
 8002be8:	6803      	ldr	r3, [r0, #0]
 8002bea:	b570      	push	{r4, r5, r6, lr}
 8002bec:	69da      	ldr	r2, [r3, #28]
 8002bee:	4d57      	ldr	r5, [pc, #348]	; (8002d4c <HAL_UART_IRQHandler+0x164>)
 8002bf0:	0004      	movs	r4, r0
 8002bf2:	6819      	ldr	r1, [r3, #0]
 8002bf4:	6898      	ldr	r0, [r3, #8]
 8002bf6:	422a      	tst	r2, r5
 8002bf8:	d05c      	beq.n	8002cb4 <HAL_UART_IRQHandler+0xcc>
 8002bfa:	2501      	movs	r5, #1
 8002bfc:	4028      	ands	r0, r5
 8002bfe:	d062      	beq.n	8002cc6 <HAL_UART_IRQHandler+0xde>
 8002c00:	2501      	movs	r5, #1
 8002c02:	4215      	tst	r5, r2
 8002c04:	d005      	beq.n	8002c12 <HAL_UART_IRQHandler+0x2a>
 8002c06:	05ce      	lsls	r6, r1, #23
 8002c08:	d503      	bpl.n	8002c12 <HAL_UART_IRQHandler+0x2a>
 8002c0a:	621d      	str	r5, [r3, #32]
 8002c0c:	6fe6      	ldr	r6, [r4, #124]	; 0x7c
 8002c0e:	4335      	orrs	r5, r6
 8002c10:	67e5      	str	r5, [r4, #124]	; 0x7c
 8002c12:	2502      	movs	r5, #2
 8002c14:	4215      	tst	r5, r2
 8002c16:	d100      	bne.n	8002c1a <HAL_UART_IRQHandler+0x32>
 8002c18:	e074      	b.n	8002d04 <HAL_UART_IRQHandler+0x11c>
 8002c1a:	2800      	cmp	r0, #0
 8002c1c:	d007      	beq.n	8002c2e <HAL_UART_IRQHandler+0x46>
 8002c1e:	2604      	movs	r6, #4
 8002c20:	621d      	str	r5, [r3, #32]
 8002c22:	6fe5      	ldr	r5, [r4, #124]	; 0x7c
 8002c24:	4335      	orrs	r5, r6
 8002c26:	67e5      	str	r5, [r4, #124]	; 0x7c
 8002c28:	4216      	tst	r6, r2
 8002c2a:	d000      	beq.n	8002c2e <HAL_UART_IRQHandler+0x46>
 8002c2c:	e070      	b.n	8002d10 <HAL_UART_IRQHandler+0x128>
 8002c2e:	0715      	lsls	r5, r2, #28
 8002c30:	d505      	bpl.n	8002c3e <HAL_UART_IRQHandler+0x56>
 8002c32:	068d      	lsls	r5, r1, #26
 8002c34:	d500      	bpl.n	8002c38 <HAL_UART_IRQHandler+0x50>
 8002c36:	e072      	b.n	8002d1e <HAL_UART_IRQHandler+0x136>
 8002c38:	2800      	cmp	r0, #0
 8002c3a:	d000      	beq.n	8002c3e <HAL_UART_IRQHandler+0x56>
 8002c3c:	e06f      	b.n	8002d1e <HAL_UART_IRQHandler+0x136>
 8002c3e:	2080      	movs	r0, #128	; 0x80
 8002c40:	0100      	lsls	r0, r0, #4
 8002c42:	4202      	tst	r2, r0
 8002c44:	d006      	beq.n	8002c54 <HAL_UART_IRQHandler+0x6c>
 8002c46:	014d      	lsls	r5, r1, #5
 8002c48:	d504      	bpl.n	8002c54 <HAL_UART_IRQHandler+0x6c>
 8002c4a:	2520      	movs	r5, #32
 8002c4c:	6218      	str	r0, [r3, #32]
 8002c4e:	6fe0      	ldr	r0, [r4, #124]	; 0x7c
 8002c50:	4328      	orrs	r0, r5
 8002c52:	67e0      	str	r0, [r4, #124]	; 0x7c
 8002c54:	6fe0      	ldr	r0, [r4, #124]	; 0x7c
 8002c56:	2800      	cmp	r0, #0
 8002c58:	d02b      	beq.n	8002cb2 <HAL_UART_IRQHandler+0xca>
 8002c5a:	2020      	movs	r0, #32
 8002c5c:	4210      	tst	r0, r2
 8002c5e:	d001      	beq.n	8002c64 <HAL_UART_IRQHandler+0x7c>
 8002c60:	4208      	tst	r0, r1
 8002c62:	d166      	bne.n	8002d32 <HAL_UART_IRQHandler+0x14a>
 8002c64:	6fe1      	ldr	r1, [r4, #124]	; 0x7c
 8002c66:	689a      	ldr	r2, [r3, #8]
 8002c68:	0652      	lsls	r2, r2, #25
 8002c6a:	d402      	bmi.n	8002c72 <HAL_UART_IRQHandler+0x8a>
 8002c6c:	2528      	movs	r5, #40	; 0x28
 8002c6e:	400d      	ands	r5, r1
 8002c70:	d067      	beq.n	8002d42 <HAL_UART_IRQHandler+0x15a>
 8002c72:	681a      	ldr	r2, [r3, #0]
 8002c74:	4936      	ldr	r1, [pc, #216]	; (8002d50 <HAL_UART_IRQHandler+0x168>)
 8002c76:	400a      	ands	r2, r1
 8002c78:	601a      	str	r2, [r3, #0]
 8002c7a:	689a      	ldr	r2, [r3, #8]
 8002c7c:	3123      	adds	r1, #35	; 0x23
 8002c7e:	31ff      	adds	r1, #255	; 0xff
 8002c80:	438a      	bics	r2, r1
 8002c82:	609a      	str	r2, [r3, #8]
 8002c84:	2220      	movs	r2, #32
 8002c86:	67a2      	str	r2, [r4, #120]	; 0x78
 8002c88:	2200      	movs	r2, #0
 8002c8a:	6622      	str	r2, [r4, #96]	; 0x60
 8002c8c:	689a      	ldr	r2, [r3, #8]
 8002c8e:	313f      	adds	r1, #63	; 0x3f
 8002c90:	4211      	tst	r1, r2
 8002c92:	d04a      	beq.n	8002d2a <HAL_UART_IRQHandler+0x142>
 8002c94:	689a      	ldr	r2, [r3, #8]
 8002c96:	6ee0      	ldr	r0, [r4, #108]	; 0x6c
 8002c98:	438a      	bics	r2, r1
 8002c9a:	609a      	str	r2, [r3, #8]
 8002c9c:	2800      	cmp	r0, #0
 8002c9e:	d044      	beq.n	8002d2a <HAL_UART_IRQHandler+0x142>
 8002ca0:	4b2c      	ldr	r3, [pc, #176]	; (8002d54 <HAL_UART_IRQHandler+0x16c>)
 8002ca2:	6343      	str	r3, [r0, #52]	; 0x34
 8002ca4:	f7fe fb26 	bl	80012f4 <HAL_DMA_Abort_IT>
 8002ca8:	2800      	cmp	r0, #0
 8002caa:	d002      	beq.n	8002cb2 <HAL_UART_IRQHandler+0xca>
 8002cac:	6ee0      	ldr	r0, [r4, #108]	; 0x6c
 8002cae:	6b43      	ldr	r3, [r0, #52]	; 0x34
 8002cb0:	4798      	blx	r3
 8002cb2:	bd70      	pop	{r4, r5, r6, pc}
 8002cb4:	2020      	movs	r0, #32
 8002cb6:	4210      	tst	r0, r2
 8002cb8:	d009      	beq.n	8002cce <HAL_UART_IRQHandler+0xe6>
 8002cba:	4208      	tst	r0, r1
 8002cbc:	d007      	beq.n	8002cce <HAL_UART_IRQHandler+0xe6>
 8002cbe:	6e23      	ldr	r3, [r4, #96]	; 0x60
 8002cc0:	2b00      	cmp	r3, #0
 8002cc2:	d11c      	bne.n	8002cfe <HAL_UART_IRQHandler+0x116>
 8002cc4:	e7f5      	b.n	8002cb2 <HAL_UART_IRQHandler+0xca>
 8002cc6:	3520      	adds	r5, #32
 8002cc8:	35ff      	adds	r5, #255	; 0xff
 8002cca:	4229      	tst	r1, r5
 8002ccc:	d198      	bne.n	8002c00 <HAL_UART_IRQHandler+0x18>
 8002cce:	2080      	movs	r0, #128	; 0x80
 8002cd0:	4210      	tst	r0, r2
 8002cd2:	d10f      	bne.n	8002cf4 <HAL_UART_IRQHandler+0x10c>
 8002cd4:	2040      	movs	r0, #64	; 0x40
 8002cd6:	4210      	tst	r0, r2
 8002cd8:	d0eb      	beq.n	8002cb2 <HAL_UART_IRQHandler+0xca>
 8002cda:	4208      	tst	r0, r1
 8002cdc:	d0e9      	beq.n	8002cb2 <HAL_UART_IRQHandler+0xca>
 8002cde:	681a      	ldr	r2, [r3, #0]
 8002ce0:	4382      	bics	r2, r0
 8002ce2:	601a      	str	r2, [r3, #0]
 8002ce4:	2320      	movs	r3, #32
 8002ce6:	6763      	str	r3, [r4, #116]	; 0x74
 8002ce8:	2300      	movs	r3, #0
 8002cea:	0020      	movs	r0, r4
 8002cec:	6663      	str	r3, [r4, #100]	; 0x64
 8002cee:	f7ff ff03 	bl	8002af8 <HAL_UART_TxCpltCallback>
 8002cf2:	e7de      	b.n	8002cb2 <HAL_UART_IRQHandler+0xca>
 8002cf4:	4208      	tst	r0, r1
 8002cf6:	d0ed      	beq.n	8002cd4 <HAL_UART_IRQHandler+0xec>
 8002cf8:	6e63      	ldr	r3, [r4, #100]	; 0x64
 8002cfa:	2b00      	cmp	r3, #0
 8002cfc:	d0d9      	beq.n	8002cb2 <HAL_UART_IRQHandler+0xca>
 8002cfe:	0020      	movs	r0, r4
 8002d00:	4798      	blx	r3
 8002d02:	e7d6      	b.n	8002cb2 <HAL_UART_IRQHandler+0xca>
 8002d04:	0755      	lsls	r5, r2, #29
 8002d06:	d400      	bmi.n	8002d0a <HAL_UART_IRQHandler+0x122>
 8002d08:	e791      	b.n	8002c2e <HAL_UART_IRQHandler+0x46>
 8002d0a:	2800      	cmp	r0, #0
 8002d0c:	d100      	bne.n	8002d10 <HAL_UART_IRQHandler+0x128>
 8002d0e:	e78e      	b.n	8002c2e <HAL_UART_IRQHandler+0x46>
 8002d10:	2504      	movs	r5, #4
 8002d12:	2602      	movs	r6, #2
 8002d14:	621d      	str	r5, [r3, #32]
 8002d16:	6fe5      	ldr	r5, [r4, #124]	; 0x7c
 8002d18:	4335      	orrs	r5, r6
 8002d1a:	67e5      	str	r5, [r4, #124]	; 0x7c
 8002d1c:	e787      	b.n	8002c2e <HAL_UART_IRQHandler+0x46>
 8002d1e:	2508      	movs	r5, #8
 8002d20:	621d      	str	r5, [r3, #32]
 8002d22:	6fe0      	ldr	r0, [r4, #124]	; 0x7c
 8002d24:	4328      	orrs	r0, r5
 8002d26:	67e0      	str	r0, [r4, #124]	; 0x7c
 8002d28:	e789      	b.n	8002c3e <HAL_UART_IRQHandler+0x56>
 8002d2a:	0020      	movs	r0, r4
 8002d2c:	f7ff ff28 	bl	8002b80 <HAL_UART_ErrorCallback>
 8002d30:	e7bf      	b.n	8002cb2 <HAL_UART_IRQHandler+0xca>
 8002d32:	6e22      	ldr	r2, [r4, #96]	; 0x60
 8002d34:	2a00      	cmp	r2, #0
 8002d36:	d100      	bne.n	8002d3a <HAL_UART_IRQHandler+0x152>
 8002d38:	e794      	b.n	8002c64 <HAL_UART_IRQHandler+0x7c>
 8002d3a:	0020      	movs	r0, r4
 8002d3c:	4790      	blx	r2
 8002d3e:	6823      	ldr	r3, [r4, #0]
 8002d40:	e790      	b.n	8002c64 <HAL_UART_IRQHandler+0x7c>
 8002d42:	0020      	movs	r0, r4
 8002d44:	f7ff ff1c 	bl	8002b80 <HAL_UART_ErrorCallback>
 8002d48:	67e5      	str	r5, [r4, #124]	; 0x7c
 8002d4a:	e7b2      	b.n	8002cb2 <HAL_UART_IRQHandler+0xca>
 8002d4c:	0000080f 	.word	0x0000080f
 8002d50:	fffffedf 	.word	0xfffffedf
 8002d54:	08002d59 	.word	0x08002d59

08002d58 <UART_DMAAbortOnError>:
 8002d58:	2300      	movs	r3, #0
 8002d5a:	225a      	movs	r2, #90	; 0x5a
 8002d5c:	b510      	push	{r4, lr}
 8002d5e:	6a40      	ldr	r0, [r0, #36]	; 0x24
 8002d60:	5283      	strh	r3, [r0, r2]
 8002d62:	3a08      	subs	r2, #8
 8002d64:	5283      	strh	r3, [r0, r2]
 8002d66:	f7ff ff0b 	bl	8002b80 <HAL_UART_ErrorCallback>
 8002d6a:	bd10      	pop	{r4, pc}

08002d6c <UART_AdvFeatureConfig>:
 8002d6c:	6a43      	ldr	r3, [r0, #36]	; 0x24
 8002d6e:	b530      	push	{r4, r5, lr}
 8002d70:	07da      	lsls	r2, r3, #31
 8002d72:	d506      	bpl.n	8002d82 <UART_AdvFeatureConfig+0x16>
 8002d74:	6801      	ldr	r1, [r0, #0]
 8002d76:	4c28      	ldr	r4, [pc, #160]	; (8002e18 <UART_AdvFeatureConfig+0xac>)
 8002d78:	684a      	ldr	r2, [r1, #4]
 8002d7a:	4022      	ands	r2, r4
 8002d7c:	6a84      	ldr	r4, [r0, #40]	; 0x28
 8002d7e:	4322      	orrs	r2, r4
 8002d80:	604a      	str	r2, [r1, #4]
 8002d82:	079a      	lsls	r2, r3, #30
 8002d84:	d506      	bpl.n	8002d94 <UART_AdvFeatureConfig+0x28>
 8002d86:	6801      	ldr	r1, [r0, #0]
 8002d88:	4c24      	ldr	r4, [pc, #144]	; (8002e1c <UART_AdvFeatureConfig+0xb0>)
 8002d8a:	684a      	ldr	r2, [r1, #4]
 8002d8c:	4022      	ands	r2, r4
 8002d8e:	6ac4      	ldr	r4, [r0, #44]	; 0x2c
 8002d90:	4322      	orrs	r2, r4
 8002d92:	604a      	str	r2, [r1, #4]
 8002d94:	075a      	lsls	r2, r3, #29
 8002d96:	d506      	bpl.n	8002da6 <UART_AdvFeatureConfig+0x3a>
 8002d98:	6801      	ldr	r1, [r0, #0]
 8002d9a:	4c21      	ldr	r4, [pc, #132]	; (8002e20 <UART_AdvFeatureConfig+0xb4>)
 8002d9c:	684a      	ldr	r2, [r1, #4]
 8002d9e:	4022      	ands	r2, r4
 8002da0:	6b04      	ldr	r4, [r0, #48]	; 0x30
 8002da2:	4322      	orrs	r2, r4
 8002da4:	604a      	str	r2, [r1, #4]
 8002da6:	071a      	lsls	r2, r3, #28
 8002da8:	d506      	bpl.n	8002db8 <UART_AdvFeatureConfig+0x4c>
 8002daa:	6801      	ldr	r1, [r0, #0]
 8002dac:	4c1d      	ldr	r4, [pc, #116]	; (8002e24 <UART_AdvFeatureConfig+0xb8>)
 8002dae:	684a      	ldr	r2, [r1, #4]
 8002db0:	4022      	ands	r2, r4
 8002db2:	6b44      	ldr	r4, [r0, #52]	; 0x34
 8002db4:	4322      	orrs	r2, r4
 8002db6:	604a      	str	r2, [r1, #4]
 8002db8:	06da      	lsls	r2, r3, #27
 8002dba:	d506      	bpl.n	8002dca <UART_AdvFeatureConfig+0x5e>
 8002dbc:	6801      	ldr	r1, [r0, #0]
 8002dbe:	4c1a      	ldr	r4, [pc, #104]	; (8002e28 <UART_AdvFeatureConfig+0xbc>)
 8002dc0:	688a      	ldr	r2, [r1, #8]
 8002dc2:	4022      	ands	r2, r4
 8002dc4:	6b84      	ldr	r4, [r0, #56]	; 0x38
 8002dc6:	4322      	orrs	r2, r4
 8002dc8:	608a      	str	r2, [r1, #8]
 8002dca:	069a      	lsls	r2, r3, #26
 8002dcc:	d506      	bpl.n	8002ddc <UART_AdvFeatureConfig+0x70>
 8002dce:	6801      	ldr	r1, [r0, #0]
 8002dd0:	4c16      	ldr	r4, [pc, #88]	; (8002e2c <UART_AdvFeatureConfig+0xc0>)
 8002dd2:	688a      	ldr	r2, [r1, #8]
 8002dd4:	4022      	ands	r2, r4
 8002dd6:	6bc4      	ldr	r4, [r0, #60]	; 0x3c
 8002dd8:	4322      	orrs	r2, r4
 8002dda:	608a      	str	r2, [r1, #8]
 8002ddc:	065a      	lsls	r2, r3, #25
 8002dde:	d50a      	bpl.n	8002df6 <UART_AdvFeatureConfig+0x8a>
 8002de0:	6801      	ldr	r1, [r0, #0]
 8002de2:	4d13      	ldr	r5, [pc, #76]	; (8002e30 <UART_AdvFeatureConfig+0xc4>)
 8002de4:	684a      	ldr	r2, [r1, #4]
 8002de6:	6c04      	ldr	r4, [r0, #64]	; 0x40
 8002de8:	402a      	ands	r2, r5
 8002dea:	4322      	orrs	r2, r4
 8002dec:	604a      	str	r2, [r1, #4]
 8002dee:	2280      	movs	r2, #128	; 0x80
 8002df0:	0352      	lsls	r2, r2, #13
 8002df2:	4294      	cmp	r4, r2
 8002df4:	d009      	beq.n	8002e0a <UART_AdvFeatureConfig+0x9e>
 8002df6:	061b      	lsls	r3, r3, #24
 8002df8:	d506      	bpl.n	8002e08 <UART_AdvFeatureConfig+0x9c>
 8002dfa:	6802      	ldr	r2, [r0, #0]
 8002dfc:	490d      	ldr	r1, [pc, #52]	; (8002e34 <UART_AdvFeatureConfig+0xc8>)
 8002dfe:	6853      	ldr	r3, [r2, #4]
 8002e00:	400b      	ands	r3, r1
 8002e02:	6c81      	ldr	r1, [r0, #72]	; 0x48
 8002e04:	430b      	orrs	r3, r1
 8002e06:	6053      	str	r3, [r2, #4]
 8002e08:	bd30      	pop	{r4, r5, pc}
 8002e0a:	684a      	ldr	r2, [r1, #4]
 8002e0c:	4c0a      	ldr	r4, [pc, #40]	; (8002e38 <UART_AdvFeatureConfig+0xcc>)
 8002e0e:	4022      	ands	r2, r4
 8002e10:	6c44      	ldr	r4, [r0, #68]	; 0x44
 8002e12:	4322      	orrs	r2, r4
 8002e14:	604a      	str	r2, [r1, #4]
 8002e16:	e7ee      	b.n	8002df6 <UART_AdvFeatureConfig+0x8a>
 8002e18:	fffdffff 	.word	0xfffdffff
 8002e1c:	fffeffff 	.word	0xfffeffff
 8002e20:	fffbffff 	.word	0xfffbffff
 8002e24:	ffff7fff 	.word	0xffff7fff
 8002e28:	ffffefff 	.word	0xffffefff
 8002e2c:	ffffdfff 	.word	0xffffdfff
 8002e30:	ffefffff 	.word	0xffefffff
 8002e34:	fff7ffff 	.word	0xfff7ffff
 8002e38:	ff9fffff 	.word	0xff9fffff

08002e3c <HAL_UART_Init>:
 8002e3c:	b5f8      	push	{r3, r4, r5, r6, r7, lr}
 8002e3e:	46ce      	mov	lr, r9
 8002e40:	4647      	mov	r7, r8
 8002e42:	0004      	movs	r4, r0
 8002e44:	b580      	push	{r7, lr}
 8002e46:	2800      	cmp	r0, #0
 8002e48:	d036      	beq.n	8002eb8 <HAL_UART_Init+0x7c>
 8002e4a:	6f43      	ldr	r3, [r0, #116]	; 0x74
 8002e4c:	2b00      	cmp	r3, #0
 8002e4e:	d02e      	beq.n	8002eae <HAL_UART_Init+0x72>
 8002e50:	2324      	movs	r3, #36	; 0x24
 8002e52:	2101      	movs	r1, #1
 8002e54:	6763      	str	r3, [r4, #116]	; 0x74
 8002e56:	6823      	ldr	r3, [r4, #0]
 8002e58:	6925      	ldr	r5, [r4, #16]
 8002e5a:	681a      	ldr	r2, [r3, #0]
 8002e5c:	69e0      	ldr	r0, [r4, #28]
 8002e5e:	438a      	bics	r2, r1
 8002e60:	601a      	str	r2, [r3, #0]
 8002e62:	68a2      	ldr	r2, [r4, #8]
 8002e64:	6819      	ldr	r1, [r3, #0]
 8002e66:	432a      	orrs	r2, r5
 8002e68:	6965      	ldr	r5, [r4, #20]
 8002e6a:	432a      	orrs	r2, r5
 8002e6c:	4d90      	ldr	r5, [pc, #576]	; (80030b0 <HAL_UART_Init+0x274>)
 8002e6e:	4302      	orrs	r2, r0
 8002e70:	4029      	ands	r1, r5
 8002e72:	430a      	orrs	r2, r1
 8002e74:	601a      	str	r2, [r3, #0]
 8002e76:	685a      	ldr	r2, [r3, #4]
 8002e78:	498e      	ldr	r1, [pc, #568]	; (80030b4 <HAL_UART_Init+0x278>)
 8002e7a:	6a25      	ldr	r5, [r4, #32]
 8002e7c:	400a      	ands	r2, r1
 8002e7e:	68e1      	ldr	r1, [r4, #12]
 8002e80:	430a      	orrs	r2, r1
 8002e82:	605a      	str	r2, [r3, #4]
 8002e84:	69a2      	ldr	r2, [r4, #24]
 8002e86:	6899      	ldr	r1, [r3, #8]
 8002e88:	432a      	orrs	r2, r5
 8002e8a:	4d8b      	ldr	r5, [pc, #556]	; (80030b8 <HAL_UART_Init+0x27c>)
 8002e8c:	4029      	ands	r1, r5
 8002e8e:	430a      	orrs	r2, r1
 8002e90:	609a      	str	r2, [r3, #8]
 8002e92:	4a8a      	ldr	r2, [pc, #552]	; (80030bc <HAL_UART_Init+0x280>)
 8002e94:	4293      	cmp	r3, r2
 8002e96:	d011      	beq.n	8002ebc <HAL_UART_Init+0x80>
 8002e98:	4a89      	ldr	r2, [pc, #548]	; (80030c0 <HAL_UART_Init+0x284>)
 8002e9a:	4293      	cmp	r3, r2
 8002e9c:	d027      	beq.n	8002eee <HAL_UART_Init+0xb2>
 8002e9e:	2300      	movs	r3, #0
 8002ea0:	2001      	movs	r0, #1
 8002ea2:	6623      	str	r3, [r4, #96]	; 0x60
 8002ea4:	6663      	str	r3, [r4, #100]	; 0x64
 8002ea6:	bc0c      	pop	{r2, r3}
 8002ea8:	4690      	mov	r8, r2
 8002eaa:	4699      	mov	r9, r3
 8002eac:	bdf8      	pop	{r3, r4, r5, r6, r7, pc}
 8002eae:	2270      	movs	r2, #112	; 0x70
 8002eb0:	5483      	strb	r3, [r0, r2]
 8002eb2:	f003 f85f 	bl	8005f74 <HAL_UART_MspInit>
 8002eb6:	e7cb      	b.n	8002e50 <HAL_UART_Init+0x14>
 8002eb8:	2001      	movs	r0, #1
 8002eba:	e7f4      	b.n	8002ea6 <HAL_UART_Init+0x6a>
 8002ebc:	4b81      	ldr	r3, [pc, #516]	; (80030c4 <HAL_UART_Init+0x288>)
 8002ebe:	6b1a      	ldr	r2, [r3, #48]	; 0x30
 8002ec0:	2303      	movs	r3, #3
 8002ec2:	4013      	ands	r3, r2
 8002ec4:	4a80      	ldr	r2, [pc, #512]	; (80030c8 <HAL_UART_Init+0x28c>)
 8002ec6:	5cd3      	ldrb	r3, [r2, r3]
 8002ec8:	2280      	movs	r2, #128	; 0x80
 8002eca:	0212      	lsls	r2, r2, #8
 8002ecc:	4290      	cmp	r0, r2
 8002ece:	d100      	bne.n	8002ed2 <HAL_UART_Init+0x96>
 8002ed0:	e0ae      	b.n	8003030 <HAL_UART_Init+0x1f4>
 8002ed2:	2b02      	cmp	r3, #2
 8002ed4:	d100      	bne.n	8002ed8 <HAL_UART_Init+0x9c>
 8002ed6:	e091      	b.n	8002ffc <HAL_UART_Init+0x1c0>
 8002ed8:	d800      	bhi.n	8002edc <HAL_UART_Init+0xa0>
 8002eda:	e0e4      	b.n	80030a6 <HAL_UART_Init+0x26a>
 8002edc:	2b04      	cmp	r3, #4
 8002ede:	d042      	beq.n	8002f66 <HAL_UART_Init+0x12a>
 8002ee0:	2b08      	cmp	r3, #8
 8002ee2:	d1dc      	bne.n	8002e9e <HAL_UART_Init+0x62>
 8002ee4:	6863      	ldr	r3, [r4, #4]
 8002ee6:	0858      	lsrs	r0, r3, #1
 8002ee8:	2380      	movs	r3, #128	; 0x80
 8002eea:	021b      	lsls	r3, r3, #8
 8002eec:	e089      	b.n	8003002 <HAL_UART_Init+0x1c6>
 8002eee:	2380      	movs	r3, #128	; 0x80
 8002ef0:	021b      	lsls	r3, r3, #8
 8002ef2:	4298      	cmp	r0, r3
 8002ef4:	d100      	bne.n	8002ef8 <HAL_UART_Init+0xbc>
 8002ef6:	e0c3      	b.n	8003080 <HAL_UART_Init+0x244>
 8002ef8:	f7ff fa8a 	bl	8002410 <HAL_RCC_GetPCLK1Freq>
 8002efc:	6863      	ldr	r3, [r4, #4]
 8002efe:	6861      	ldr	r1, [r4, #4]
 8002f00:	085b      	lsrs	r3, r3, #1
 8002f02:	1818      	adds	r0, r3, r0
 8002f04:	f7fd f908 	bl	8000118 <__udivsi3>
 8002f08:	0400      	lsls	r0, r0, #16
 8002f0a:	0c00      	lsrs	r0, r0, #16
 8002f0c:	0003      	movs	r3, r0
 8002f0e:	4a6f      	ldr	r2, [pc, #444]	; (80030cc <HAL_UART_Init+0x290>)
 8002f10:	3b10      	subs	r3, #16
 8002f12:	4293      	cmp	r3, r2
 8002f14:	d8c3      	bhi.n	8002e9e <HAL_UART_Init+0x62>
 8002f16:	2200      	movs	r2, #0
 8002f18:	6823      	ldr	r3, [r4, #0]
 8002f1a:	60d8      	str	r0, [r3, #12]
 8002f1c:	6622      	str	r2, [r4, #96]	; 0x60
 8002f1e:	6662      	str	r2, [r4, #100]	; 0x64
 8002f20:	6a62      	ldr	r2, [r4, #36]	; 0x24
 8002f22:	2a00      	cmp	r2, #0
 8002f24:	d14c      	bne.n	8002fc0 <HAL_UART_Init+0x184>
 8002f26:	2508      	movs	r5, #8
 8002f28:	685a      	ldr	r2, [r3, #4]
 8002f2a:	4969      	ldr	r1, [pc, #420]	; (80030d0 <HAL_UART_Init+0x294>)
 8002f2c:	400a      	ands	r2, r1
 8002f2e:	2101      	movs	r1, #1
 8002f30:	605a      	str	r2, [r3, #4]
 8002f32:	689a      	ldr	r2, [r3, #8]
 8002f34:	43aa      	bics	r2, r5
 8002f36:	609a      	str	r2, [r3, #8]
 8002f38:	681a      	ldr	r2, [r3, #0]
 8002f3a:	430a      	orrs	r2, r1
 8002f3c:	601a      	str	r2, [r3, #0]
 8002f3e:	2300      	movs	r3, #0
 8002f40:	67e3      	str	r3, [r4, #124]	; 0x7c
 8002f42:	f7fe f913 	bl	800116c <HAL_GetTick>
 8002f46:	6823      	ldr	r3, [r4, #0]
 8002f48:	0006      	movs	r6, r0
 8002f4a:	681a      	ldr	r2, [r3, #0]
 8002f4c:	4215      	tst	r5, r2
 8002f4e:	d10d      	bne.n	8002f6c <HAL_UART_Init+0x130>
 8002f50:	681a      	ldr	r2, [r3, #0]
 8002f52:	0752      	lsls	r2, r2, #29
 8002f54:	d439      	bmi.n	8002fca <HAL_UART_Init+0x18e>
 8002f56:	2320      	movs	r3, #32
 8002f58:	2200      	movs	r2, #0
 8002f5a:	6763      	str	r3, [r4, #116]	; 0x74
 8002f5c:	67a3      	str	r3, [r4, #120]	; 0x78
 8002f5e:	3350      	adds	r3, #80	; 0x50
 8002f60:	54e2      	strb	r2, [r4, r3]
 8002f62:	2000      	movs	r0, #0
 8002f64:	e79f      	b.n	8002ea6 <HAL_UART_Init+0x6a>
 8002f66:	f7ff fa1d 	bl	80023a4 <HAL_RCC_GetSysClockFreq>
 8002f6a:	e7c7      	b.n	8002efc <HAL_UART_Init+0xc0>
 8002f6c:	4a59      	ldr	r2, [pc, #356]	; (80030d4 <HAL_UART_Init+0x298>)
 8002f6e:	2780      	movs	r7, #128	; 0x80
 8002f70:	4690      	mov	r8, r2
 8002f72:	2204      	movs	r2, #4
 8002f74:	4691      	mov	r9, r2
 8002f76:	03bf      	lsls	r7, r7, #14
 8002f78:	69dd      	ldr	r5, [r3, #28]
 8002f7a:	403d      	ands	r5, r7
 8002f7c:	d1e8      	bne.n	8002f50 <HAL_UART_Init+0x114>
 8002f7e:	f7fe f8f5 	bl	800116c <HAL_GetTick>
 8002f82:	6823      	ldr	r3, [r4, #0]
 8002f84:	1b80      	subs	r0, r0, r6
 8002f86:	681a      	ldr	r2, [r3, #0]
 8002f88:	4540      	cmp	r0, r8
 8002f8a:	d842      	bhi.n	8003012 <HAL_UART_Init+0x1d6>
 8002f8c:	4649      	mov	r1, r9
 8002f8e:	4211      	tst	r1, r2
 8002f90:	d0f2      	beq.n	8002f78 <HAL_UART_Init+0x13c>
 8002f92:	2280      	movs	r2, #128	; 0x80
 8002f94:	69d9      	ldr	r1, [r3, #28]
 8002f96:	0112      	lsls	r2, r2, #4
 8002f98:	4211      	tst	r1, r2
 8002f9a:	d0ed      	beq.n	8002f78 <HAL_UART_Init+0x13c>
 8002f9c:	621a      	str	r2, [r3, #32]
 8002f9e:	681a      	ldr	r2, [r3, #0]
 8002fa0:	494d      	ldr	r1, [pc, #308]	; (80030d8 <HAL_UART_Init+0x29c>)
 8002fa2:	2003      	movs	r0, #3
 8002fa4:	400a      	ands	r2, r1
 8002fa6:	601a      	str	r2, [r3, #0]
 8002fa8:	689a      	ldr	r2, [r3, #8]
 8002faa:	31a3      	adds	r1, #163	; 0xa3
 8002fac:	31ff      	adds	r1, #255	; 0xff
 8002fae:	438a      	bics	r2, r1
 8002fb0:	609a      	str	r2, [r3, #8]
 8002fb2:	2320      	movs	r3, #32
 8002fb4:	6763      	str	r3, [r4, #116]	; 0x74
 8002fb6:	67a3      	str	r3, [r4, #120]	; 0x78
 8002fb8:	67e3      	str	r3, [r4, #124]	; 0x7c
 8002fba:	3350      	adds	r3, #80	; 0x50
 8002fbc:	54e5      	strb	r5, [r4, r3]
 8002fbe:	e772      	b.n	8002ea6 <HAL_UART_Init+0x6a>
 8002fc0:	0020      	movs	r0, r4
 8002fc2:	f7ff fed3 	bl	8002d6c <UART_AdvFeatureConfig>
 8002fc6:	6823      	ldr	r3, [r4, #0]
 8002fc8:	e7ad      	b.n	8002f26 <HAL_UART_Init+0xea>
 8002fca:	4a42      	ldr	r2, [pc, #264]	; (80030d4 <HAL_UART_Init+0x298>)
 8002fcc:	2780      	movs	r7, #128	; 0x80
 8002fce:	4690      	mov	r8, r2
 8002fd0:	2204      	movs	r2, #4
 8002fd2:	4691      	mov	r9, r2
 8002fd4:	03ff      	lsls	r7, r7, #15
 8002fd6:	69dd      	ldr	r5, [r3, #28]
 8002fd8:	403d      	ands	r5, r7
 8002fda:	d1bc      	bne.n	8002f56 <HAL_UART_Init+0x11a>
 8002fdc:	f7fe f8c6 	bl	800116c <HAL_GetTick>
 8002fe0:	6823      	ldr	r3, [r4, #0]
 8002fe2:	1b80      	subs	r0, r0, r6
 8002fe4:	681a      	ldr	r2, [r3, #0]
 8002fe6:	4540      	cmp	r0, r8
 8002fe8:	d813      	bhi.n	8003012 <HAL_UART_Init+0x1d6>
 8002fea:	4649      	mov	r1, r9
 8002fec:	4211      	tst	r1, r2
 8002fee:	d0f2      	beq.n	8002fd6 <HAL_UART_Init+0x19a>
 8002ff0:	2280      	movs	r2, #128	; 0x80
 8002ff2:	69d9      	ldr	r1, [r3, #28]
 8002ff4:	0112      	lsls	r2, r2, #4
 8002ff6:	4211      	tst	r1, r2
 8002ff8:	d0ed      	beq.n	8002fd6 <HAL_UART_Init+0x19a>
 8002ffa:	e7cf      	b.n	8002f9c <HAL_UART_Init+0x160>
 8002ffc:	6863      	ldr	r3, [r4, #4]
 8002ffe:	0858      	lsrs	r0, r3, #1
 8003000:	4b36      	ldr	r3, [pc, #216]	; (80030dc <HAL_UART_Init+0x2a0>)
 8003002:	469c      	mov	ip, r3
 8003004:	6861      	ldr	r1, [r4, #4]
 8003006:	4460      	add	r0, ip
 8003008:	f7fd f886 	bl	8000118 <__udivsi3>
 800300c:	0400      	lsls	r0, r0, #16
 800300e:	0c00      	lsrs	r0, r0, #16
 8003010:	e77c      	b.n	8002f0c <HAL_UART_Init+0xd0>
 8003012:	4931      	ldr	r1, [pc, #196]	; (80030d8 <HAL_UART_Init+0x29c>)
 8003014:	2003      	movs	r0, #3
 8003016:	400a      	ands	r2, r1
 8003018:	601a      	str	r2, [r3, #0]
 800301a:	689a      	ldr	r2, [r3, #8]
 800301c:	31a3      	adds	r1, #163	; 0xa3
 800301e:	31ff      	adds	r1, #255	; 0xff
 8003020:	438a      	bics	r2, r1
 8003022:	609a      	str	r2, [r3, #8]
 8003024:	2320      	movs	r3, #32
 8003026:	6763      	str	r3, [r4, #116]	; 0x74
 8003028:	67a3      	str	r3, [r4, #120]	; 0x78
 800302a:	3350      	adds	r3, #80	; 0x50
 800302c:	54e5      	strb	r5, [r4, r3]
 800302e:	e73a      	b.n	8002ea6 <HAL_UART_Init+0x6a>
 8003030:	2b02      	cmp	r3, #2
 8003032:	d034      	beq.n	800309e <HAL_UART_Init+0x262>
 8003034:	d921      	bls.n	800307a <HAL_UART_Init+0x23e>
 8003036:	2b04      	cmp	r3, #4
 8003038:	d02e      	beq.n	8003098 <HAL_UART_Init+0x25c>
 800303a:	2b08      	cmp	r3, #8
 800303c:	d000      	beq.n	8003040 <HAL_UART_Init+0x204>
 800303e:	e72e      	b.n	8002e9e <HAL_UART_Init+0x62>
 8003040:	6863      	ldr	r3, [r4, #4]
 8003042:	0858      	lsrs	r0, r3, #1
 8003044:	2380      	movs	r3, #128	; 0x80
 8003046:	025b      	lsls	r3, r3, #9
 8003048:	469c      	mov	ip, r3
 800304a:	6861      	ldr	r1, [r4, #4]
 800304c:	4460      	add	r0, ip
 800304e:	f7fd f863 	bl	8000118 <__udivsi3>
 8003052:	0400      	lsls	r0, r0, #16
 8003054:	0c00      	lsrs	r0, r0, #16
 8003056:	0003      	movs	r3, r0
 8003058:	4a1c      	ldr	r2, [pc, #112]	; (80030cc <HAL_UART_Init+0x290>)
 800305a:	3b10      	subs	r3, #16
 800305c:	4293      	cmp	r3, r2
 800305e:	d900      	bls.n	8003062 <HAL_UART_Init+0x226>
 8003060:	e71d      	b.n	8002e9e <HAL_UART_Init+0x62>
 8003062:	230f      	movs	r3, #15
 8003064:	0002      	movs	r2, r0
 8003066:	0700      	lsls	r0, r0, #28
 8003068:	439a      	bics	r2, r3
 800306a:	0f40      	lsrs	r0, r0, #29
 800306c:	4310      	orrs	r0, r2
 800306e:	2200      	movs	r2, #0
 8003070:	6823      	ldr	r3, [r4, #0]
 8003072:	60d8      	str	r0, [r3, #12]
 8003074:	6622      	str	r2, [r4, #96]	; 0x60
 8003076:	6662      	str	r2, [r4, #100]	; 0x64
 8003078:	e752      	b.n	8002f20 <HAL_UART_Init+0xe4>
 800307a:	2b00      	cmp	r3, #0
 800307c:	d000      	beq.n	8003080 <HAL_UART_Init+0x244>
 800307e:	e70e      	b.n	8002e9e <HAL_UART_Init+0x62>
 8003080:	f7ff f9c6 	bl	8002410 <HAL_RCC_GetPCLK1Freq>
 8003084:	6863      	ldr	r3, [r4, #4]
 8003086:	0040      	lsls	r0, r0, #1
 8003088:	085b      	lsrs	r3, r3, #1
 800308a:	18c0      	adds	r0, r0, r3
 800308c:	6861      	ldr	r1, [r4, #4]
 800308e:	f7fd f843 	bl	8000118 <__udivsi3>
 8003092:	0400      	lsls	r0, r0, #16
 8003094:	0c00      	lsrs	r0, r0, #16
 8003096:	e7de      	b.n	8003056 <HAL_UART_Init+0x21a>
 8003098:	f7ff f984 	bl	80023a4 <HAL_RCC_GetSysClockFreq>
 800309c:	e7f2      	b.n	8003084 <HAL_UART_Init+0x248>
 800309e:	6863      	ldr	r3, [r4, #4]
 80030a0:	0858      	lsrs	r0, r3, #1
 80030a2:	4b0f      	ldr	r3, [pc, #60]	; (80030e0 <HAL_UART_Init+0x2a4>)
 80030a4:	e7d0      	b.n	8003048 <HAL_UART_Init+0x20c>
 80030a6:	2b00      	cmp	r3, #0
 80030a8:	d100      	bne.n	80030ac <HAL_UART_Init+0x270>
 80030aa:	e725      	b.n	8002ef8 <HAL_UART_Init+0xbc>
 80030ac:	e6f7      	b.n	8002e9e <HAL_UART_Init+0x62>
 80030ae:	46c0      	nop			; (mov r8, r8)
 80030b0:	ffff69f3 	.word	0xffff69f3
 80030b4:	ffffcfff 	.word	0xffffcfff
 80030b8:	fffff4ff 	.word	0xfffff4ff
 80030bc:	40013800 	.word	0x40013800
 80030c0:	40004400 	.word	0x40004400
 80030c4:	40021000 	.word	0x40021000
 80030c8:	08007744 	.word	0x08007744
 80030cc:	0000ffef 	.word	0x0000ffef
 80030d0:	fffff7ff 	.word	0xfffff7ff
 80030d4:	01ffffff 	.word	0x01ffffff
 80030d8:	fffffe5f 	.word	0xfffffe5f
 80030dc:	007a1200 	.word	0x007a1200
 80030e0:	00f42400 	.word	0x00f42400

080030e4 <ble_init>:
 80030e4:	b510      	push	{r4, lr}
 80030e6:	0004      	movs	r4, r0
 80030e8:	f002 ff44 	bl	8005f74 <HAL_UART_MspInit>
 80030ec:	2279      	movs	r2, #121	; 0x79
 80030ee:	4902      	ldr	r1, [pc, #8]	; (80030f8 <ble_init+0x14>)
 80030f0:	0020      	movs	r0, r4
 80030f2:	f7ff fca7 	bl	8002a44 <HAL_UART_Receive_DMA>
 80030f6:	bd10      	pop	{r4, pc}
 80030f8:	20000d78 	.word	0x20000d78

080030fc <ble_send>:
 80030fc:	b510      	push	{r4, lr}
 80030fe:	22ed      	movs	r2, #237	; 0xed
 8003100:	f7ff fc4a 	bl	8002998 <HAL_UART_Transmit_DMA>
 8003104:	bd10      	pop	{r4, pc}
 8003106:	46c0      	nop			; (mov r8, r8)

08003108 <gps_init>:
 8003108:	b5f0      	push	{r4, r5, r6, r7, lr}
 800310a:	46c6      	mov	lr, r8
 800310c:	b500      	push	{lr}
 800310e:	4680      	mov	r8, r0
 8003110:	b09c      	sub	sp, #112	; 0x70
 8003112:	2064      	movs	r0, #100	; 0x64
 8003114:	f7fe f830 	bl	8001178 <HAL_Delay>
 8003118:	4c38      	ldr	r4, [pc, #224]	; (80031fc <gps_init+0xf4>)
 800311a:	ad0a      	add	r5, sp, #40	; 0x28
 800311c:	0022      	movs	r2, r4
 800311e:	002b      	movs	r3, r5
 8003120:	ca43      	ldmia	r2!, {r0, r1, r6}
 8003122:	c343      	stmia	r3!, {r0, r1, r6}
 8003124:	6811      	ldr	r1, [r2, #0]
 8003126:	466e      	mov	r6, sp
 8003128:	6019      	str	r1, [r3, #0]
 800312a:	8891      	ldrh	r1, [r2, #4]
 800312c:	a80f      	add	r0, sp, #60	; 0x3c
 800312e:	8099      	strh	r1, [r3, #4]
 8003130:	0021      	movs	r1, r4
 8003132:	7992      	ldrb	r2, [r2, #6]
 8003134:	3114      	adds	r1, #20
 8003136:	719a      	strb	r2, [r3, #6]
 8003138:	2233      	movs	r2, #51	; 0x33
 800313a:	f004 fa35 	bl	80075a8 <memcpy>
 800313e:	0023      	movs	r3, r4
 8003140:	0032      	movs	r2, r6
 8003142:	3348      	adds	r3, #72	; 0x48
 8003144:	cb83      	ldmia	r3!, {r0, r1, r7}
 8003146:	c283      	stmia	r2!, {r0, r1, r7}
 8003148:	6819      	ldr	r1, [r3, #0]
 800314a:	af05      	add	r7, sp, #20
 800314c:	6011      	str	r1, [r2, #0]
 800314e:	791b      	ldrb	r3, [r3, #4]
 8003150:	345c      	adds	r4, #92	; 0x5c
 8003152:	7113      	strb	r3, [r2, #4]
 8003154:	003b      	movs	r3, r7
 8003156:	cc07      	ldmia	r4!, {r0, r1, r2}
 8003158:	c307      	stmia	r3!, {r0, r1, r2}
 800315a:	6822      	ldr	r2, [r4, #0]
 800315c:	0029      	movs	r1, r5
 800315e:	601a      	str	r2, [r3, #0]
 8003160:	7922      	ldrb	r2, [r4, #4]
 8003162:	4640      	mov	r0, r8
 8003164:	711a      	strb	r2, [r3, #4]
 8003166:	4b26      	ldr	r3, [pc, #152]	; (8003200 <gps_init+0xf8>)
 8003168:	4a26      	ldr	r2, [pc, #152]	; (8003204 <gps_init+0xfc>)
 800316a:	6013      	str	r3, [r2, #0]
 800316c:	4a26      	ldr	r2, [pc, #152]	; (8003208 <gps_init+0x100>)
 800316e:	6013      	str	r3, [r2, #0]
 8003170:	23fa      	movs	r3, #250	; 0xfa
 8003172:	2213      	movs	r2, #19
 8003174:	00db      	lsls	r3, r3, #3
 8003176:	f7ff fb2f 	bl	80027d8 <HAL_UART_Transmit>
 800317a:	2800      	cmp	r0, #0
 800317c:	d004      	beq.n	8003188 <gps_init+0x80>
 800317e:	2000      	movs	r0, #0
 8003180:	b01c      	add	sp, #112	; 0x70
 8003182:	bc04      	pop	{r2}
 8003184:	4690      	mov	r8, r2
 8003186:	bdf0      	pop	{r4, r5, r6, r7, pc}
 8003188:	23e1      	movs	r3, #225	; 0xe1
 800318a:	4642      	mov	r2, r8
 800318c:	021b      	lsls	r3, r3, #8
 800318e:	6053      	str	r3, [r2, #4]
 8003190:	4640      	mov	r0, r8
 8003192:	f7ff fe53 	bl	8002e3c <HAL_UART_Init>
 8003196:	2800      	cmp	r0, #0
 8003198:	d1f1      	bne.n	800317e <gps_init+0x76>
 800319a:	3064      	adds	r0, #100	; 0x64
 800319c:	f7fd ffec 	bl	8001178 <HAL_Delay>
 80031a0:	23fa      	movs	r3, #250	; 0xfa
 80031a2:	2233      	movs	r2, #51	; 0x33
 80031a4:	00db      	lsls	r3, r3, #3
 80031a6:	a90f      	add	r1, sp, #60	; 0x3c
 80031a8:	4640      	mov	r0, r8
 80031aa:	f7ff fb15 	bl	80027d8 <HAL_UART_Transmit>
 80031ae:	2800      	cmp	r0, #0
 80031b0:	d1e5      	bne.n	800317e <gps_init+0x76>
 80031b2:	3064      	adds	r0, #100	; 0x64
 80031b4:	f7fd ffe0 	bl	8001178 <HAL_Delay>
 80031b8:	23fa      	movs	r3, #250	; 0xfa
 80031ba:	2211      	movs	r2, #17
 80031bc:	00db      	lsls	r3, r3, #3
 80031be:	0031      	movs	r1, r6
 80031c0:	4640      	mov	r0, r8
 80031c2:	f7ff fb09 	bl	80027d8 <HAL_UART_Transmit>
 80031c6:	2800      	cmp	r0, #0
 80031c8:	d1d9      	bne.n	800317e <gps_init+0x76>
 80031ca:	3064      	adds	r0, #100	; 0x64
 80031cc:	f7fd ffd4 	bl	8001178 <HAL_Delay>
 80031d0:	23fa      	movs	r3, #250	; 0xfa
 80031d2:	2211      	movs	r2, #17
 80031d4:	00db      	lsls	r3, r3, #3
 80031d6:	0039      	movs	r1, r7
 80031d8:	4640      	mov	r0, r8
 80031da:	f7ff fafd 	bl	80027d8 <HAL_UART_Transmit>
 80031de:	2800      	cmp	r0, #0
 80031e0:	d1cd      	bne.n	800317e <gps_init+0x76>
 80031e2:	3064      	adds	r0, #100	; 0x64
 80031e4:	f7fd ffc8 	bl	8001178 <HAL_Delay>
 80031e8:	4640      	mov	r0, r8
 80031ea:	f002 fec3 	bl	8005f74 <HAL_UART_MspInit>
 80031ee:	2240      	movs	r2, #64	; 0x40
 80031f0:	4906      	ldr	r1, [pc, #24]	; (800320c <gps_init+0x104>)
 80031f2:	4640      	mov	r0, r8
 80031f4:	f7ff fc26 	bl	8002a44 <HAL_UART_Receive_DMA>
 80031f8:	2001      	movs	r0, #1
 80031fa:	e7c1      	b.n	8003180 <gps_init+0x78>
 80031fc:	08007614 	.word	0x08007614
 8003200:	2000100c 	.word	0x2000100c
 8003204:	20000fac 	.word	0x20000fac
 8003208:	20000f70 	.word	0x20000f70
 800320c:	20000fb8 	.word	0x20000fb8

08003210 <gps_recieve_full>:
 8003210:	b510      	push	{r4, lr}
 8003212:	4c08      	ldr	r4, [pc, #32]	; (8003234 <gps_recieve_full+0x24>)
 8003214:	2220      	movs	r2, #32
 8003216:	4908      	ldr	r1, [pc, #32]	; (8003238 <gps_recieve_full+0x28>)
 8003218:	6820      	ldr	r0, [r4, #0]
 800321a:	f004 f9c5 	bl	80075a8 <memcpy>
 800321e:	6823      	ldr	r3, [r4, #0]
 8003220:	4a06      	ldr	r2, [pc, #24]	; (800323c <gps_recieve_full+0x2c>)
 8003222:	4293      	cmp	r3, r2
 8003224:	d002      	beq.n	800322c <gps_recieve_full+0x1c>
 8003226:	3320      	adds	r3, #32
 8003228:	6023      	str	r3, [r4, #0]
 800322a:	bd10      	pop	{r4, pc}
 800322c:	4a04      	ldr	r2, [pc, #16]	; (8003240 <gps_recieve_full+0x30>)
 800322e:	4694      	mov	ip, r2
 8003230:	4463      	add	r3, ip
 8003232:	e7f9      	b.n	8003228 <gps_recieve_full+0x18>
 8003234:	20000fac 	.word	0x20000fac
 8003238:	20000fd8 	.word	0x20000fd8
 800323c:	200013cc 	.word	0x200013cc
 8003240:	fffffc40 	.word	0xfffffc40

08003244 <gps_recieve_half>:
 8003244:	b510      	push	{r4, lr}
 8003246:	4c08      	ldr	r4, [pc, #32]	; (8003268 <gps_recieve_half+0x24>)
 8003248:	2220      	movs	r2, #32
 800324a:	4908      	ldr	r1, [pc, #32]	; (800326c <gps_recieve_half+0x28>)
 800324c:	6820      	ldr	r0, [r4, #0]
 800324e:	f004 f9ab 	bl	80075a8 <memcpy>
 8003252:	6823      	ldr	r3, [r4, #0]
 8003254:	4a06      	ldr	r2, [pc, #24]	; (8003270 <gps_recieve_half+0x2c>)
 8003256:	4293      	cmp	r3, r2
 8003258:	d002      	beq.n	8003260 <gps_recieve_half+0x1c>
 800325a:	3320      	adds	r3, #32
 800325c:	6023      	str	r3, [r4, #0]
 800325e:	bd10      	pop	{r4, pc}
 8003260:	4a04      	ldr	r2, [pc, #16]	; (8003274 <gps_recieve_half+0x30>)
 8003262:	4694      	mov	ip, r2
 8003264:	4463      	add	r3, ip
 8003266:	e7f9      	b.n	800325c <gps_recieve_half+0x18>
 8003268:	20000fac 	.word	0x20000fac
 800326c:	20000fb8 	.word	0x20000fb8
 8003270:	200013cc 	.word	0x200013cc
 8003274:	fffffc40 	.word	0xfffffc40

08003278 <gps_get_data>:
 8003278:	2300      	movs	r3, #0
 800327a:	b530      	push	{r4, r5, lr}
 800327c:	4816      	ldr	r0, [pc, #88]	; (80032d8 <gps_get_data+0x60>)
 800327e:	4d17      	ldr	r5, [pc, #92]	; (80032dc <gps_get_data+0x64>)
 8003280:	6003      	str	r3, [r0, #0]
 8003282:	6043      	str	r3, [r0, #4]
 8003284:	4a16      	ldr	r2, [pc, #88]	; (80032e0 <gps_get_data+0x68>)
 8003286:	682b      	ldr	r3, [r5, #0]
 8003288:	4293      	cmp	r3, r2
 800328a:	d020      	beq.n	80032ce <gps_get_data+0x56>
 800328c:	4a15      	ldr	r2, [pc, #84]	; (80032e4 <gps_get_data+0x6c>)
 800328e:	4c16      	ldr	r4, [pc, #88]	; (80032e8 <gps_get_data+0x70>)
 8003290:	6811      	ldr	r1, [r2, #0]
 8003292:	602b      	str	r3, [r5, #0]
 8003294:	4299      	cmp	r1, r3
 8003296:	d009      	beq.n	80032ac <gps_get_data+0x34>
 8003298:	781a      	ldrb	r2, [r3, #0]
 800329a:	2a24      	cmp	r2, #36	; 0x24
 800329c:	d007      	beq.n	80032ae <gps_get_data+0x36>
 800329e:	2a0a      	cmp	r2, #10
 80032a0:	d00c      	beq.n	80032bc <gps_get_data+0x44>
 80032a2:	42a3      	cmp	r3, r4
 80032a4:	d006      	beq.n	80032b4 <gps_get_data+0x3c>
 80032a6:	3301      	adds	r3, #1
 80032a8:	4299      	cmp	r1, r3
 80032aa:	d1f5      	bne.n	8003298 <gps_get_data+0x20>
 80032ac:	bd30      	pop	{r4, r5, pc}
 80032ae:	6003      	str	r3, [r0, #0]
 80032b0:	42a3      	cmp	r3, r4
 80032b2:	d1f8      	bne.n	80032a6 <gps_get_data+0x2e>
 80032b4:	4a0d      	ldr	r2, [pc, #52]	; (80032ec <gps_get_data+0x74>)
 80032b6:	4694      	mov	ip, r2
 80032b8:	4463      	add	r3, ip
 80032ba:	e7eb      	b.n	8003294 <gps_get_data+0x1c>
 80032bc:	6802      	ldr	r2, [r0, #0]
 80032be:	3301      	adds	r3, #1
 80032c0:	2a00      	cmp	r2, #0
 80032c2:	d002      	beq.n	80032ca <gps_get_data+0x52>
 80032c4:	6043      	str	r3, [r0, #4]
 80032c6:	2b00      	cmp	r3, #0
 80032c8:	d0f0      	beq.n	80032ac <gps_get_data+0x34>
 80032ca:	602b      	str	r3, [r5, #0]
 80032cc:	e7ee      	b.n	80032ac <gps_get_data+0x34>
 80032ce:	4a08      	ldr	r2, [pc, #32]	; (80032f0 <gps_get_data+0x78>)
 80032d0:	4694      	mov	ip, r2
 80032d2:	4463      	add	r3, ip
 80032d4:	e7da      	b.n	800328c <gps_get_data+0x14>
 80032d6:	46c0      	nop			; (mov r8, r8)
 80032d8:	200014a8 	.word	0x200014a8
 80032dc:	20000f70 	.word	0x20000f70
 80032e0:	2000140c 	.word	0x2000140c
 80032e4:	20000fac 	.word	0x20000fac
 80032e8:	2000140b 	.word	0x2000140b
 80032ec:	fffffc01 	.word	0xfffffc01
 80032f0:	fffffc00 	.word	0xfffffc00

080032f4 <sendCommands16.constprop.9>:
 80032f4:	b5f0      	push	{r4, r5, r6, r7, lr}
 80032f6:	46de      	mov	lr, fp
 80032f8:	464e      	mov	r6, r9
 80032fa:	4657      	mov	r7, sl
 80032fc:	4645      	mov	r5, r8
 80032fe:	b5e0      	push	{r5, r6, r7, lr}
 8003300:	0005      	movs	r5, r0
 8003302:	2090      	movs	r0, #144	; 0x90
 8003304:	b085      	sub	sp, #20
 8003306:	000c      	movs	r4, r1
 8003308:	2200      	movs	r2, #0
 800330a:	2110      	movs	r1, #16
 800330c:	05c0      	lsls	r0, r0, #23
 800330e:	f7fe f945 	bl	800159c <HAL_GPIO_WritePin>
 8003312:	2090      	movs	r0, #144	; 0x90
 8003314:	4e7b      	ldr	r6, [pc, #492]	; (8003504 <sendCommands16.constprop.9+0x210>)
 8003316:	2200      	movs	r2, #0
 8003318:	2120      	movs	r1, #32
 800331a:	05c0      	lsls	r0, r0, #23
 800331c:	f7fe f93e 	bl	800159c <HAL_GPIO_WritePin>
 8003320:	2200      	movs	r2, #0
 8003322:	2110      	movs	r1, #16
 8003324:	0030      	movs	r0, r6
 8003326:	f7fe f939 	bl	800159c <HAL_GPIO_WritePin>
 800332a:	23f0      	movs	r3, #240	; 0xf0
 800332c:	4f76      	ldr	r7, [pc, #472]	; (8003508 <sendCommands16.constprop.9+0x214>)
 800332e:	021b      	lsls	r3, r3, #8
 8003330:	62bb      	str	r3, [r7, #40]	; 0x28
 8003332:	4699      	mov	r9, r3
 8003334:	23f0      	movs	r3, #240	; 0xf0
 8003336:	2180      	movs	r1, #128	; 0x80
 8003338:	009b      	lsls	r3, r3, #2
 800333a:	62b3      	str	r3, [r6, #40]	; 0x28
 800333c:	69b2      	ldr	r2, [r6, #24]
 800333e:	022b      	lsls	r3, r5, #8
 8003340:	0049      	lsls	r1, r1, #1
 8003342:	400b      	ands	r3, r1
 8003344:	4313      	orrs	r3, r2
 8003346:	61b3      	str	r3, [r6, #24]
 8003348:	2340      	movs	r3, #64	; 0x40
 800334a:	2080      	movs	r0, #128	; 0x80
 800334c:	69b1      	ldr	r1, [r6, #24]
 800334e:	016a      	lsls	r2, r5, #5
 8003350:	4013      	ands	r3, r2
 8003352:	430b      	orrs	r3, r1
 8003354:	61b3      	str	r3, [r6, #24]
 8003356:	69b9      	ldr	r1, [r7, #24]
 8003358:	032b      	lsls	r3, r5, #12
 800335a:	01c0      	lsls	r0, r0, #7
 800335c:	4003      	ands	r3, r0
 800335e:	430b      	orrs	r3, r1
 8003360:	2180      	movs	r1, #128	; 0x80
 8003362:	61bb      	str	r3, [r7, #24]
 8003364:	69b8      	ldr	r0, [r7, #24]
 8003366:	026b      	lsls	r3, r5, #9
 8003368:	0149      	lsls	r1, r1, #5
 800336a:	4019      	ands	r1, r3
 800336c:	4301      	orrs	r1, r0
 800336e:	2080      	movs	r0, #128	; 0x80
 8003370:	61b9      	str	r1, [r7, #24]
 8003372:	69b1      	ldr	r1, [r6, #24]
 8003374:	0080      	lsls	r0, r0, #2
 8003376:	4002      	ands	r2, r0
 8003378:	430a      	orrs	r2, r1
 800337a:	61b2      	str	r2, [r6, #24]
 800337c:	2280      	movs	r2, #128	; 0x80
 800337e:	69b1      	ldr	r1, [r6, #24]
 8003380:	00a8      	lsls	r0, r5, #2
 8003382:	4002      	ands	r2, r0
 8003384:	430a      	orrs	r2, r1
 8003386:	2180      	movs	r1, #128	; 0x80
 8003388:	61b2      	str	r2, [r6, #24]
 800338a:	69ba      	ldr	r2, [r7, #24]
 800338c:	0209      	lsls	r1, r1, #8
 800338e:	400b      	ands	r3, r1
 8003390:	4313      	orrs	r3, r2
 8003392:	2280      	movs	r2, #128	; 0x80
 8003394:	61bb      	str	r3, [r7, #24]
 8003396:	69bb      	ldr	r3, [r7, #24]
 8003398:	0192      	lsls	r2, r2, #6
 800339a:	01ad      	lsls	r5, r5, #6
 800339c:	4015      	ands	r5, r2
 800339e:	431d      	orrs	r5, r3
 80033a0:	61bd      	str	r5, [r7, #24]
 80033a2:	2201      	movs	r2, #1
 80033a4:	2110      	movs	r1, #16
 80033a6:	0030      	movs	r0, r6
 80033a8:	f7fe f8f8 	bl	800159c <HAL_GPIO_WritePin>
 80033ac:	2090      	movs	r0, #144	; 0x90
 80033ae:	2201      	movs	r2, #1
 80033b0:	2120      	movs	r1, #32
 80033b2:	05c0      	lsls	r0, r0, #23
 80033b4:	f7fe f8f2 	bl	800159c <HAL_GPIO_WritePin>
 80033b8:	0023      	movs	r3, r4
 80033ba:	3304      	adds	r3, #4
 80033bc:	9302      	str	r3, [sp, #8]
 80033be:	464b      	mov	r3, r9
 80033c0:	003d      	movs	r5, r7
 80033c2:	9303      	str	r3, [sp, #12]
 80033c4:	9401      	str	r4, [sp, #4]
 80033c6:	2200      	movs	r2, #0
 80033c8:	2110      	movs	r1, #16
 80033ca:	484e      	ldr	r0, [pc, #312]	; (8003504 <sendCommands16.constprop.9+0x210>)
 80033cc:	f7fe f8e6 	bl	800159c <HAL_GPIO_WritePin>
 80033d0:	21f0      	movs	r1, #240	; 0xf0
 80033d2:	2080      	movs	r0, #128	; 0x80
 80033d4:	9f03      	ldr	r7, [sp, #12]
 80033d6:	9a01      	ldr	r2, [sp, #4]
 80033d8:	0089      	lsls	r1, r1, #2
 80033da:	8812      	ldrh	r2, [r2, #0]
 80033dc:	62af      	str	r7, [r5, #40]	; 0x28
 80033de:	62b1      	str	r1, [r6, #40]	; 0x28
 80033e0:	0040      	lsls	r0, r0, #1
 80033e2:	468b      	mov	fp, r1
 80033e4:	69b1      	ldr	r1, [r6, #24]
 80033e6:	0a13      	lsrs	r3, r2, #8
 80033e8:	4002      	ands	r2, r0
 80033ea:	430a      	orrs	r2, r1
 80033ec:	61b2      	str	r2, [r6, #24]
 80033ee:	2240      	movs	r2, #64	; 0x40
 80033f0:	2480      	movs	r4, #128	; 0x80
 80033f2:	0159      	lsls	r1, r3, #5
 80033f4:	4682      	mov	sl, r0
 80033f6:	69b0      	ldr	r0, [r6, #24]
 80033f8:	400a      	ands	r2, r1
 80033fa:	4302      	orrs	r2, r0
 80033fc:	61b2      	str	r2, [r6, #24]
 80033fe:	69a8      	ldr	r0, [r5, #24]
 8003400:	031a      	lsls	r2, r3, #12
 8003402:	01e4      	lsls	r4, r4, #7
 8003404:	4022      	ands	r2, r4
 8003406:	4302      	orrs	r2, r0
 8003408:	2080      	movs	r0, #128	; 0x80
 800340a:	61aa      	str	r2, [r5, #24]
 800340c:	69ac      	ldr	r4, [r5, #24]
 800340e:	025a      	lsls	r2, r3, #9
 8003410:	0140      	lsls	r0, r0, #5
 8003412:	4010      	ands	r0, r2
 8003414:	4320      	orrs	r0, r4
 8003416:	2480      	movs	r4, #128	; 0x80
 8003418:	61a8      	str	r0, [r5, #24]
 800341a:	69b0      	ldr	r0, [r6, #24]
 800341c:	00a4      	lsls	r4, r4, #2
 800341e:	4021      	ands	r1, r4
 8003420:	4301      	orrs	r1, r0
 8003422:	61b1      	str	r1, [r6, #24]
 8003424:	3c81      	subs	r4, #129	; 0x81
 8003426:	69b0      	ldr	r0, [r6, #24]
 8003428:	0099      	lsls	r1, r3, #2
 800342a:	3cff      	subs	r4, #255	; 0xff
 800342c:	4021      	ands	r1, r4
 800342e:	4301      	orrs	r1, r0
 8003430:	2080      	movs	r0, #128	; 0x80
 8003432:	61b1      	str	r1, [r6, #24]
 8003434:	69a9      	ldr	r1, [r5, #24]
 8003436:	0200      	lsls	r0, r0, #8
 8003438:	4002      	ands	r2, r0
 800343a:	430a      	orrs	r2, r1
 800343c:	2180      	movs	r1, #128	; 0x80
 800343e:	61aa      	str	r2, [r5, #24]
 8003440:	69aa      	ldr	r2, [r5, #24]
 8003442:	0189      	lsls	r1, r1, #6
 8003444:	019b      	lsls	r3, r3, #6
 8003446:	400b      	ands	r3, r1
 8003448:	4313      	orrs	r3, r2
 800344a:	61ab      	str	r3, [r5, #24]
 800344c:	4681      	mov	r9, r0
 800344e:	4688      	mov	r8, r1
 8003450:	2201      	movs	r2, #1
 8003452:	2110      	movs	r1, #16
 8003454:	482b      	ldr	r0, [pc, #172]	; (8003504 <sendCommands16.constprop.9+0x210>)
 8003456:	f7fe f8a1 	bl	800159c <HAL_GPIO_WritePin>
 800345a:	2200      	movs	r2, #0
 800345c:	2110      	movs	r1, #16
 800345e:	4829      	ldr	r0, [pc, #164]	; (8003504 <sendCommands16.constprop.9+0x210>)
 8003460:	f7fe f89c 	bl	800159c <HAL_GPIO_WritePin>
 8003464:	9a01      	ldr	r2, [sp, #4]
 8003466:	4650      	mov	r0, sl
 8003468:	7813      	ldrb	r3, [r2, #0]
 800346a:	465a      	mov	r2, fp
 800346c:	62af      	str	r7, [r5, #40]	; 0x28
 800346e:	62b2      	str	r2, [r6, #40]	; 0x28
 8003470:	69b1      	ldr	r1, [r6, #24]
 8003472:	021a      	lsls	r2, r3, #8
 8003474:	4002      	ands	r2, r0
 8003476:	430a      	orrs	r2, r1
 8003478:	61b2      	str	r2, [r6, #24]
 800347a:	2240      	movs	r2, #64	; 0x40
 800347c:	2780      	movs	r7, #128	; 0x80
 800347e:	69b0      	ldr	r0, [r6, #24]
 8003480:	0159      	lsls	r1, r3, #5
 8003482:	400a      	ands	r2, r1
 8003484:	4302      	orrs	r2, r0
 8003486:	61b2      	str	r2, [r6, #24]
 8003488:	69a8      	ldr	r0, [r5, #24]
 800348a:	031a      	lsls	r2, r3, #12
 800348c:	01ff      	lsls	r7, r7, #7
 800348e:	403a      	ands	r2, r7
 8003490:	4302      	orrs	r2, r0
 8003492:	61aa      	str	r2, [r5, #24]
 8003494:	69aa      	ldr	r2, [r5, #24]
 8003496:	2080      	movs	r0, #128	; 0x80
 8003498:	4694      	mov	ip, r2
 800349a:	4667      	mov	r7, ip
 800349c:	025a      	lsls	r2, r3, #9
 800349e:	0140      	lsls	r0, r0, #5
 80034a0:	4010      	ands	r0, r2
 80034a2:	4338      	orrs	r0, r7
 80034a4:	2780      	movs	r7, #128	; 0x80
 80034a6:	61a8      	str	r0, [r5, #24]
 80034a8:	69b0      	ldr	r0, [r6, #24]
 80034aa:	00bf      	lsls	r7, r7, #2
 80034ac:	4039      	ands	r1, r7
 80034ae:	4301      	orrs	r1, r0
 80034b0:	0098      	lsls	r0, r3, #2
 80034b2:	4004      	ands	r4, r0
 80034b4:	4648      	mov	r0, r9
 80034b6:	61b1      	str	r1, [r6, #24]
 80034b8:	69b1      	ldr	r1, [r6, #24]
 80034ba:	4002      	ands	r2, r0
 80034bc:	430c      	orrs	r4, r1
 80034be:	61b4      	str	r4, [r6, #24]
 80034c0:	69a9      	ldr	r1, [r5, #24]
 80034c2:	019b      	lsls	r3, r3, #6
 80034c4:	430a      	orrs	r2, r1
 80034c6:	4641      	mov	r1, r8
 80034c8:	61aa      	str	r2, [r5, #24]
 80034ca:	69aa      	ldr	r2, [r5, #24]
 80034cc:	400b      	ands	r3, r1
 80034ce:	4313      	orrs	r3, r2
 80034d0:	61ab      	str	r3, [r5, #24]
 80034d2:	2201      	movs	r2, #1
 80034d4:	2110      	movs	r1, #16
 80034d6:	480b      	ldr	r0, [pc, #44]	; (8003504 <sendCommands16.constprop.9+0x210>)
 80034d8:	f7fe f860 	bl	800159c <HAL_GPIO_WritePin>
 80034dc:	9a01      	ldr	r2, [sp, #4]
 80034de:	9b02      	ldr	r3, [sp, #8]
 80034e0:	3202      	adds	r2, #2
 80034e2:	9201      	str	r2, [sp, #4]
 80034e4:	429a      	cmp	r2, r3
 80034e6:	d000      	beq.n	80034ea <sendCommands16.constprop.9+0x1f6>
 80034e8:	e76d      	b.n	80033c6 <sendCommands16.constprop.9+0xd2>
 80034ea:	2090      	movs	r0, #144	; 0x90
 80034ec:	2201      	movs	r2, #1
 80034ee:	2110      	movs	r1, #16
 80034f0:	05c0      	lsls	r0, r0, #23
 80034f2:	f7fe f853 	bl	800159c <HAL_GPIO_WritePin>
 80034f6:	b005      	add	sp, #20
 80034f8:	bc3c      	pop	{r2, r3, r4, r5}
 80034fa:	4690      	mov	r8, r2
 80034fc:	4699      	mov	r9, r3
 80034fe:	46a2      	mov	sl, r4
 8003500:	46ab      	mov	fp, r5
 8003502:	bdf0      	pop	{r4, r5, r6, r7, pc}
 8003504:	48000800 	.word	0x48000800
 8003508:	48000400 	.word	0x48000400

0800350c <writePixel.part.0>:
 800350c:	b5f0      	push	{r4, r5, r6, r7, lr}
 800350e:	46de      	mov	lr, fp
 8003510:	4657      	mov	r7, sl
 8003512:	464e      	mov	r6, r9
 8003514:	4645      	mov	r5, r8
 8003516:	b5e0      	push	{r5, r6, r7, lr}
 8003518:	2790      	movs	r7, #144	; 0x90
 800351a:	b085      	sub	sp, #20
 800351c:	ab02      	add	r3, sp, #8
 800351e:	ac03      	add	r4, sp, #12
 8003520:	b280      	uxth	r0, r0
 8003522:	b289      	uxth	r1, r1
 8003524:	8018      	strh	r0, [r3, #0]
 8003526:	8058      	strh	r0, [r3, #2]
 8003528:	8021      	strh	r1, [r4, #0]
 800352a:	8061      	strh	r1, [r4, #2]
 800352c:	202a      	movs	r0, #42	; 0x2a
 800352e:	0019      	movs	r1, r3
 8003530:	05ff      	lsls	r7, r7, #23
 8003532:	9201      	str	r2, [sp, #4]
 8003534:	f7ff fede 	bl	80032f4 <sendCommands16.constprop.9>
 8003538:	0021      	movs	r1, r4
 800353a:	202b      	movs	r0, #43	; 0x2b
 800353c:	4c6d      	ldr	r4, [pc, #436]	; (80036f4 <writePixel.part.0+0x1e8>)
 800353e:	f7ff fed9 	bl	80032f4 <sendCommands16.constprop.9>
 8003542:	0038      	movs	r0, r7
 8003544:	2200      	movs	r2, #0
 8003546:	2110      	movs	r1, #16
 8003548:	f7fe f828 	bl	800159c <HAL_GPIO_WritePin>
 800354c:	0038      	movs	r0, r7
 800354e:	2200      	movs	r2, #0
 8003550:	2120      	movs	r1, #32
 8003552:	f7fe f823 	bl	800159c <HAL_GPIO_WritePin>
 8003556:	0020      	movs	r0, r4
 8003558:	2200      	movs	r2, #0
 800355a:	2110      	movs	r1, #16
 800355c:	f7fe f81e 	bl	800159c <HAL_GPIO_WritePin>
 8003560:	23f0      	movs	r3, #240	; 0xf0
 8003562:	4d65      	ldr	r5, [pc, #404]	; (80036f8 <writePixel.part.0+0x1ec>)
 8003564:	021b      	lsls	r3, r3, #8
 8003566:	62ab      	str	r3, [r5, #40]	; 0x28
 8003568:	4698      	mov	r8, r3
 800356a:	23f0      	movs	r3, #240	; 0xf0
 800356c:	2280      	movs	r2, #128	; 0x80
 800356e:	009b      	lsls	r3, r3, #2
 8003570:	62a3      	str	r3, [r4, #40]	; 0x28
 8003572:	001e      	movs	r6, r3
 8003574:	69a3      	ldr	r3, [r4, #24]
 8003576:	01d2      	lsls	r2, r2, #7
 8003578:	61a3      	str	r3, [r4, #24]
 800357a:	69a3      	ldr	r3, [r4, #24]
 800357c:	4693      	mov	fp, r2
 800357e:	61a3      	str	r3, [r4, #24]
 8003580:	69ab      	ldr	r3, [r5, #24]
 8003582:	0020      	movs	r0, r4
 8003584:	4313      	orrs	r3, r2
 8003586:	2280      	movs	r2, #128	; 0x80
 8003588:	61ab      	str	r3, [r5, #24]
 800358a:	69ab      	ldr	r3, [r5, #24]
 800358c:	0152      	lsls	r2, r2, #5
 800358e:	4692      	mov	sl, r2
 8003590:	4313      	orrs	r3, r2
 8003592:	2280      	movs	r2, #128	; 0x80
 8003594:	61ab      	str	r3, [r5, #24]
 8003596:	69a3      	ldr	r3, [r4, #24]
 8003598:	4691      	mov	r9, r2
 800359a:	61a3      	str	r3, [r4, #24]
 800359c:	69a3      	ldr	r3, [r4, #24]
 800359e:	2110      	movs	r1, #16
 80035a0:	4313      	orrs	r3, r2
 80035a2:	61a3      	str	r3, [r4, #24]
 80035a4:	69ab      	ldr	r3, [r5, #24]
 80035a6:	3a7f      	subs	r2, #127	; 0x7f
 80035a8:	61ab      	str	r3, [r5, #24]
 80035aa:	69ab      	ldr	r3, [r5, #24]
 80035ac:	61ab      	str	r3, [r5, #24]
 80035ae:	f7fd fff5 	bl	800159c <HAL_GPIO_WritePin>
 80035b2:	0038      	movs	r0, r7
 80035b4:	2201      	movs	r2, #1
 80035b6:	2110      	movs	r1, #16
 80035b8:	f7fd fff0 	bl	800159c <HAL_GPIO_WritePin>
 80035bc:	0038      	movs	r0, r7
 80035be:	2200      	movs	r2, #0
 80035c0:	2110      	movs	r1, #16
 80035c2:	f7fd ffeb 	bl	800159c <HAL_GPIO_WritePin>
 80035c6:	0038      	movs	r0, r7
 80035c8:	2201      	movs	r2, #1
 80035ca:	2120      	movs	r1, #32
 80035cc:	f7fd ffe6 	bl	800159c <HAL_GPIO_WritePin>
 80035d0:	0020      	movs	r0, r4
 80035d2:	2200      	movs	r2, #0
 80035d4:	2110      	movs	r1, #16
 80035d6:	f7fd ffe1 	bl	800159c <HAL_GPIO_WritePin>
 80035da:	4642      	mov	r2, r8
 80035dc:	62aa      	str	r2, [r5, #40]	; 0x28
 80035de:	2280      	movs	r2, #128	; 0x80
 80035e0:	62a6      	str	r6, [r4, #40]	; 0x28
 80035e2:	9801      	ldr	r0, [sp, #4]
 80035e4:	69a1      	ldr	r1, [r4, #24]
 80035e6:	0052      	lsls	r2, r2, #1
 80035e8:	4002      	ands	r2, r0
 80035ea:	430a      	orrs	r2, r1
 80035ec:	61a2      	str	r2, [r4, #24]
 80035ee:	2240      	movs	r2, #64	; 0x40
 80035f0:	465e      	mov	r6, fp
 80035f2:	0a03      	lsrs	r3, r0, #8
 80035f4:	0159      	lsls	r1, r3, #5
 80035f6:	69a0      	ldr	r0, [r4, #24]
 80035f8:	400a      	ands	r2, r1
 80035fa:	4302      	orrs	r2, r0
 80035fc:	61a2      	str	r2, [r4, #24]
 80035fe:	69a8      	ldr	r0, [r5, #24]
 8003600:	031a      	lsls	r2, r3, #12
 8003602:	4032      	ands	r2, r6
 8003604:	4302      	orrs	r2, r0
 8003606:	61aa      	str	r2, [r5, #24]
 8003608:	69aa      	ldr	r2, [r5, #24]
 800360a:	4650      	mov	r0, sl
 800360c:	4694      	mov	ip, r2
 800360e:	4666      	mov	r6, ip
 8003610:	025a      	lsls	r2, r3, #9
 8003612:	4010      	ands	r0, r2
 8003614:	4330      	orrs	r0, r6
 8003616:	2680      	movs	r6, #128	; 0x80
 8003618:	00b6      	lsls	r6, r6, #2
 800361a:	4031      	ands	r1, r6
 800361c:	464e      	mov	r6, r9
 800361e:	61a8      	str	r0, [r5, #24]
 8003620:	69a0      	ldr	r0, [r4, #24]
 8003622:	4301      	orrs	r1, r0
 8003624:	61a1      	str	r1, [r4, #24]
 8003626:	69a0      	ldr	r0, [r4, #24]
 8003628:	0099      	lsls	r1, r3, #2
 800362a:	4031      	ands	r1, r6
 800362c:	4301      	orrs	r1, r0
 800362e:	2080      	movs	r0, #128	; 0x80
 8003630:	61a1      	str	r1, [r4, #24]
 8003632:	69a9      	ldr	r1, [r5, #24]
 8003634:	0200      	lsls	r0, r0, #8
 8003636:	4002      	ands	r2, r0
 8003638:	430a      	orrs	r2, r1
 800363a:	2180      	movs	r1, #128	; 0x80
 800363c:	61aa      	str	r2, [r5, #24]
 800363e:	69aa      	ldr	r2, [r5, #24]
 8003640:	0189      	lsls	r1, r1, #6
 8003642:	019b      	lsls	r3, r3, #6
 8003644:	400b      	ands	r3, r1
 8003646:	4313      	orrs	r3, r2
 8003648:	61ab      	str	r3, [r5, #24]
 800364a:	0020      	movs	r0, r4
 800364c:	2201      	movs	r2, #1
 800364e:	2110      	movs	r1, #16
 8003650:	f7fd ffa4 	bl	800159c <HAL_GPIO_WritePin>
 8003654:	0020      	movs	r0, r4
 8003656:	2200      	movs	r2, #0
 8003658:	2110      	movs	r1, #16
 800365a:	f7fd ff9f 	bl	800159c <HAL_GPIO_WritePin>
 800365e:	23f0      	movs	r3, #240	; 0xf0
 8003660:	4642      	mov	r2, r8
 8003662:	009b      	lsls	r3, r3, #2
 8003664:	62aa      	str	r2, [r5, #40]	; 0x28
 8003666:	62a3      	str	r3, [r4, #40]	; 0x28
 8003668:	466b      	mov	r3, sp
 800366a:	2180      	movs	r1, #128	; 0x80
 800366c:	791e      	ldrb	r6, [r3, #4]
 800366e:	69a2      	ldr	r2, [r4, #24]
 8003670:	0233      	lsls	r3, r6, #8
 8003672:	0049      	lsls	r1, r1, #1
 8003674:	400b      	ands	r3, r1
 8003676:	4313      	orrs	r3, r2
 8003678:	61a3      	str	r3, [r4, #24]
 800367a:	2340      	movs	r3, #64	; 0x40
 800367c:	4658      	mov	r0, fp
 800367e:	69a2      	ldr	r2, [r4, #24]
 8003680:	0171      	lsls	r1, r6, #5
 8003682:	400b      	ands	r3, r1
 8003684:	4313      	orrs	r3, r2
 8003686:	61a3      	str	r3, [r4, #24]
 8003688:	69aa      	ldr	r2, [r5, #24]
 800368a:	0333      	lsls	r3, r6, #12
 800368c:	4003      	ands	r3, r0
 800368e:	4313      	orrs	r3, r2
 8003690:	61ab      	str	r3, [r5, #24]
 8003692:	4653      	mov	r3, sl
 8003694:	69a8      	ldr	r0, [r5, #24]
 8003696:	0272      	lsls	r2, r6, #9
 8003698:	4013      	ands	r3, r2
 800369a:	4303      	orrs	r3, r0
 800369c:	2080      	movs	r0, #128	; 0x80
 800369e:	0080      	lsls	r0, r0, #2
 80036a0:	4001      	ands	r1, r0
 80036a2:	4648      	mov	r0, r9
 80036a4:	61ab      	str	r3, [r5, #24]
 80036a6:	69a3      	ldr	r3, [r4, #24]
 80036a8:	4319      	orrs	r1, r3
 80036aa:	00b3      	lsls	r3, r6, #2
 80036ac:	4003      	ands	r3, r0
 80036ae:	2080      	movs	r0, #128	; 0x80
 80036b0:	61a1      	str	r1, [r4, #24]
 80036b2:	69a1      	ldr	r1, [r4, #24]
 80036b4:	0200      	lsls	r0, r0, #8
 80036b6:	430b      	orrs	r3, r1
 80036b8:	2180      	movs	r1, #128	; 0x80
 80036ba:	61a3      	str	r3, [r4, #24]
 80036bc:	69ab      	ldr	r3, [r5, #24]
 80036be:	4002      	ands	r2, r0
 80036c0:	431a      	orrs	r2, r3
 80036c2:	61aa      	str	r2, [r5, #24]
 80036c4:	69ab      	ldr	r3, [r5, #24]
 80036c6:	0189      	lsls	r1, r1, #6
 80036c8:	01b6      	lsls	r6, r6, #6
 80036ca:	400e      	ands	r6, r1
 80036cc:	431e      	orrs	r6, r3
 80036ce:	0020      	movs	r0, r4
 80036d0:	61ae      	str	r6, [r5, #24]
 80036d2:	2201      	movs	r2, #1
 80036d4:	2110      	movs	r1, #16
 80036d6:	f7fd ff61 	bl	800159c <HAL_GPIO_WritePin>
 80036da:	2201      	movs	r2, #1
 80036dc:	2110      	movs	r1, #16
 80036de:	0038      	movs	r0, r7
 80036e0:	f7fd ff5c 	bl	800159c <HAL_GPIO_WritePin>
 80036e4:	b005      	add	sp, #20
 80036e6:	bc3c      	pop	{r2, r3, r4, r5}
 80036e8:	4690      	mov	r8, r2
 80036ea:	4699      	mov	r9, r3
 80036ec:	46a2      	mov	sl, r4
 80036ee:	46ab      	mov	fp, r5
 80036f0:	bdf0      	pop	{r4, r5, r6, r7, pc}
 80036f2:	46c0      	nop			; (mov r8, r8)
 80036f4:	48000800 	.word	0x48000800
 80036f8:	48000400 	.word	0x48000400

080036fc <fillRect.part.1>:
 80036fc:	b5f0      	push	{r4, r5, r6, r7, lr}
 80036fe:	4645      	mov	r5, r8
 8003700:	46de      	mov	lr, fp
 8003702:	4657      	mov	r7, sl
 8003704:	464e      	mov	r6, r9
 8003706:	b5e0      	push	{r5, r6, r7, lr}
 8003708:	b083      	sub	sp, #12
 800370a:	9100      	str	r1, [sp, #0]
 800370c:	a90c      	add	r1, sp, #48	; 0x30
 800370e:	8809      	ldrh	r1, [r1, #0]
 8003710:	0004      	movs	r4, r0
 8003712:	4688      	mov	r8, r1
 8003714:	2a00      	cmp	r2, #0
 8003716:	da05      	bge.n	8003724 <fillRect.part.1+0x28>
 8003718:	b292      	uxth	r2, r2
 800371a:	3401      	adds	r4, #1
 800371c:	1914      	adds	r4, r2, r4
 800371e:	4252      	negs	r2, r2
 8003720:	b224      	sxth	r4, r4
 8003722:	b212      	sxth	r2, r2
 8003724:	4d3d      	ldr	r5, [pc, #244]	; (800381c <fillRect.part.1+0x120>)
 8003726:	2000      	movs	r0, #0
 8003728:	5e29      	ldrsh	r1, [r5, r0]
 800372a:	42a1      	cmp	r1, r4
 800372c:	dd54      	ble.n	80037d8 <fillRect.part.1+0xdc>
 800372e:	2b00      	cmp	r3, #0
 8003730:	db59      	blt.n	80037e6 <fillRect.part.1+0xea>
 8003732:	483b      	ldr	r0, [pc, #236]	; (8003820 <fillRect.part.1+0x124>)
 8003734:	4683      	mov	fp, r0
 8003736:	2600      	movs	r6, #0
 8003738:	5f80      	ldrsh	r0, [r0, r6]
 800373a:	9e00      	ldr	r6, [sp, #0]
 800373c:	42b0      	cmp	r0, r6
 800373e:	dd4b      	ble.n	80037d8 <fillRect.part.1+0xdc>
 8003740:	18a7      	adds	r7, r4, r2
 8003742:	b2bf      	uxth	r7, r7
 8003744:	46b9      	mov	r9, r7
 8003746:	3f01      	subs	r7, #1
 8003748:	b23f      	sxth	r7, r7
 800374a:	46bc      	mov	ip, r7
 800374c:	2f00      	cmp	r7, #0
 800374e:	db43      	blt.n	80037d8 <fillRect.part.1+0xdc>
 8003750:	b2b7      	uxth	r7, r6
 8003752:	18fe      	adds	r6, r7, r3
 8003754:	b2b6      	uxth	r6, r6
 8003756:	9601      	str	r6, [sp, #4]
 8003758:	3e01      	subs	r6, #1
 800375a:	b236      	sxth	r6, r6
 800375c:	46b2      	mov	sl, r6
 800375e:	2e00      	cmp	r6, #0
 8003760:	db3a      	blt.n	80037d8 <fillRect.part.1+0xdc>
 8003762:	2c00      	cmp	r4, #0
 8003764:	da02      	bge.n	800376c <fillRect.part.1+0x70>
 8003766:	464a      	mov	r2, r9
 8003768:	2400      	movs	r4, #0
 800376a:	b212      	sxth	r2, r2
 800376c:	9e00      	ldr	r6, [sp, #0]
 800376e:	46a1      	mov	r9, r4
 8003770:	2e00      	cmp	r6, #0
 8003772:	da05      	bge.n	8003780 <fillRect.part.1+0x84>
 8003774:	466b      	mov	r3, sp
 8003776:	2604      	movs	r6, #4
 8003778:	5f9b      	ldrsh	r3, [r3, r6]
 800377a:	2600      	movs	r6, #0
 800377c:	2700      	movs	r7, #0
 800377e:	9600      	str	r6, [sp, #0]
 8003780:	4561      	cmp	r1, ip
 8003782:	dc01      	bgt.n	8003788 <fillRect.part.1+0x8c>
 8003784:	1b0a      	subs	r2, r1, r4
 8003786:	b212      	sxth	r2, r2
 8003788:	4550      	cmp	r0, sl
 800378a:	dc01      	bgt.n	8003790 <fillRect.part.1+0x94>
 800378c:	1bc3      	subs	r3, r0, r7
 800378e:	b21b      	sxth	r3, r3
 8003790:	4692      	mov	sl, r2
 8003792:	44ca      	add	sl, r9
 8003794:	45ca      	cmp	sl, r9
 8003796:	dd1f      	ble.n	80037d8 <fillRect.part.1+0xdc>
 8003798:	9a00      	ldr	r2, [sp, #0]
 800379a:	4691      	mov	r9, r2
 800379c:	189f      	adds	r7, r3, r2
 800379e:	454f      	cmp	r7, r9
 80037a0:	dd16      	ble.n	80037d0 <fillRect.part.1+0xd4>
 80037a2:	464e      	mov	r6, r9
 80037a4:	2c00      	cmp	r4, #0
 80037a6:	db2e      	blt.n	8003806 <fillRect.part.1+0x10a>
 80037a8:	2200      	movs	r2, #0
 80037aa:	5eab      	ldrsh	r3, [r5, r2]
 80037ac:	42a3      	cmp	r3, r4
 80037ae:	dd0b      	ble.n	80037c8 <fillRect.part.1+0xcc>
 80037b0:	2e00      	cmp	r6, #0
 80037b2:	db09      	blt.n	80037c8 <fillRect.part.1+0xcc>
 80037b4:	465b      	mov	r3, fp
 80037b6:	2200      	movs	r2, #0
 80037b8:	5e9b      	ldrsh	r3, [r3, r2]
 80037ba:	42b3      	cmp	r3, r6
 80037bc:	dd04      	ble.n	80037c8 <fillRect.part.1+0xcc>
 80037be:	4642      	mov	r2, r8
 80037c0:	0031      	movs	r1, r6
 80037c2:	0020      	movs	r0, r4
 80037c4:	f7ff fea2 	bl	800350c <writePixel.part.0>
 80037c8:	3601      	adds	r6, #1
 80037ca:	b236      	sxth	r6, r6
 80037cc:	42be      	cmp	r6, r7
 80037ce:	dbeb      	blt.n	80037a8 <fillRect.part.1+0xac>
 80037d0:	3401      	adds	r4, #1
 80037d2:	b224      	sxth	r4, r4
 80037d4:	4554      	cmp	r4, sl
 80037d6:	dbe2      	blt.n	800379e <fillRect.part.1+0xa2>
 80037d8:	b003      	add	sp, #12
 80037da:	bc3c      	pop	{r2, r3, r4, r5}
 80037dc:	4690      	mov	r8, r2
 80037de:	4699      	mov	r9, r3
 80037e0:	46a2      	mov	sl, r4
 80037e2:	46ab      	mov	fp, r5
 80037e4:	bdf0      	pop	{r4, r5, r6, r7, pc}
 80037e6:	9e00      	ldr	r6, [sp, #0]
 80037e8:	b29b      	uxth	r3, r3
 80037ea:	3601      	adds	r6, #1
 80037ec:	199e      	adds	r6, r3, r6
 80037ee:	b230      	sxth	r0, r6
 80037f0:	9000      	str	r0, [sp, #0]
 80037f2:	480b      	ldr	r0, [pc, #44]	; (8003820 <fillRect.part.1+0x124>)
 80037f4:	425b      	negs	r3, r3
 80037f6:	4683      	mov	fp, r0
 80037f8:	2600      	movs	r6, #0
 80037fa:	5f80      	ldrsh	r0, [r0, r6]
 80037fc:	9e00      	ldr	r6, [sp, #0]
 80037fe:	b21b      	sxth	r3, r3
 8003800:	42b0      	cmp	r0, r6
 8003802:	dc9d      	bgt.n	8003740 <fillRect.part.1+0x44>
 8003804:	e7e8      	b.n	80037d8 <fillRect.part.1+0xdc>
 8003806:	464b      	mov	r3, r9
 8003808:	3301      	adds	r3, #1
 800380a:	b21b      	sxth	r3, r3
 800380c:	429f      	cmp	r7, r3
 800380e:	dcfb      	bgt.n	8003808 <fillRect.part.1+0x10c>
 8003810:	3401      	adds	r4, #1
 8003812:	b224      	sxth	r4, r4
 8003814:	4554      	cmp	r4, sl
 8003816:	dbc2      	blt.n	800379e <fillRect.part.1+0xa2>
 8003818:	e7de      	b.n	80037d8 <fillRect.part.1+0xdc>
 800381a:	46c0      	nop			; (mov r8, r8)
 800381c:	20001410 	.word	0x20001410
 8003820:	20001490 	.word	0x20001490

08003824 <fillScreen>:
 8003824:	b5f0      	push	{r4, r5, r6, r7, lr}
 8003826:	4645      	mov	r5, r8
 8003828:	464e      	mov	r6, r9
 800382a:	46de      	mov	lr, fp
 800382c:	4657      	mov	r7, sl
 800382e:	b5e0      	push	{r5, r6, r7, lr}
 8003830:	4b38      	ldr	r3, [pc, #224]	; (8003914 <fillScreen+0xf0>)
 8003832:	4e39      	ldr	r6, [pc, #228]	; (8003918 <fillScreen+0xf4>)
 8003834:	8018      	strh	r0, [r3, #0]
 8003836:	2300      	movs	r3, #0
 8003838:	5ef5      	ldrsh	r5, [r6, r3]
 800383a:	b083      	sub	sp, #12
 800383c:	4680      	mov	r8, r0
 800383e:	2d00      	cmp	r5, #0
 8003840:	d005      	beq.n	800384e <fillScreen+0x2a>
 8003842:	4b36      	ldr	r3, [pc, #216]	; (800391c <fillScreen+0xf8>)
 8003844:	4699      	mov	r9, r3
 8003846:	2700      	movs	r7, #0
 8003848:	5fdf      	ldrsh	r7, [r3, r7]
 800384a:	2f00      	cmp	r7, #0
 800384c:	d106      	bne.n	800385c <fillScreen+0x38>
 800384e:	b003      	add	sp, #12
 8003850:	bc3c      	pop	{r2, r3, r4, r5}
 8003852:	4690      	mov	r8, r2
 8003854:	4699      	mov	r9, r3
 8003856:	46a2      	mov	sl, r4
 8003858:	46ab      	mov	fp, r5
 800385a:	bdf0      	pop	{r4, r5, r6, r7, pc}
 800385c:	2d00      	cmp	r5, #0
 800385e:	db4a      	blt.n	80038f6 <fillScreen+0xd2>
 8003860:	002b      	movs	r3, r5
 8003862:	2200      	movs	r2, #0
 8003864:	4295      	cmp	r5, r2
 8003866:	ddf2      	ble.n	800384e <fillScreen+0x2a>
 8003868:	2f00      	cmp	r7, #0
 800386a:	db4a      	blt.n	8003902 <fillScreen+0xde>
 800386c:	46bc      	mov	ip, r7
 800386e:	2100      	movs	r1, #0
 8003870:	18d4      	adds	r4, r2, r3
 8003872:	b2a0      	uxth	r0, r4
 8003874:	9001      	str	r0, [sp, #4]
 8003876:	3801      	subs	r0, #1
 8003878:	b200      	sxth	r0, r0
 800387a:	2800      	cmp	r0, #0
 800387c:	dbe7      	blt.n	800384e <fillScreen+0x2a>
 800387e:	468b      	mov	fp, r1
 8003880:	44e3      	add	fp, ip
 8003882:	465c      	mov	r4, fp
 8003884:	b2a4      	uxth	r4, r4
 8003886:	46a3      	mov	fp, r4
 8003888:	2401      	movs	r4, #1
 800388a:	4264      	negs	r4, r4
 800388c:	445c      	add	r4, fp
 800388e:	b224      	sxth	r4, r4
 8003890:	46a2      	mov	sl, r4
 8003892:	2c00      	cmp	r4, #0
 8003894:	dbdb      	blt.n	800384e <fillScreen+0x2a>
 8003896:	2a00      	cmp	r2, #0
 8003898:	d001      	beq.n	800389e <fillScreen+0x7a>
 800389a:	9b01      	ldr	r3, [sp, #4]
 800389c:	b21b      	sxth	r3, r3
 800389e:	2900      	cmp	r1, #0
 80038a0:	d002      	beq.n	80038a8 <fillScreen+0x84>
 80038a2:	465a      	mov	r2, fp
 80038a4:	b212      	sxth	r2, r2
 80038a6:	4694      	mov	ip, r2
 80038a8:	4285      	cmp	r5, r0
 80038aa:	dd00      	ble.n	80038ae <fillScreen+0x8a>
 80038ac:	001d      	movs	r5, r3
 80038ae:	4557      	cmp	r7, sl
 80038b0:	dd00      	ble.n	80038b4 <fillScreen+0x90>
 80038b2:	4667      	mov	r7, ip
 80038b4:	2300      	movs	r3, #0
 80038b6:	469a      	mov	sl, r3
 80038b8:	2d00      	cmp	r5, #0
 80038ba:	ddc8      	ble.n	800384e <fillScreen+0x2a>
 80038bc:	2400      	movs	r4, #0
 80038be:	2f00      	cmp	r7, #0
 80038c0:	dd11      	ble.n	80038e6 <fillScreen+0xc2>
 80038c2:	2200      	movs	r2, #0
 80038c4:	5eb3      	ldrsh	r3, [r6, r2]
 80038c6:	4553      	cmp	r3, sl
 80038c8:	dd09      	ble.n	80038de <fillScreen+0xba>
 80038ca:	464b      	mov	r3, r9
 80038cc:	2200      	movs	r2, #0
 80038ce:	5e9b      	ldrsh	r3, [r3, r2]
 80038d0:	42a3      	cmp	r3, r4
 80038d2:	dd04      	ble.n	80038de <fillScreen+0xba>
 80038d4:	4642      	mov	r2, r8
 80038d6:	0021      	movs	r1, r4
 80038d8:	4650      	mov	r0, sl
 80038da:	f7ff fe17 	bl	800350c <writePixel.part.0>
 80038de:	3401      	adds	r4, #1
 80038e0:	b224      	sxth	r4, r4
 80038e2:	42a7      	cmp	r7, r4
 80038e4:	d1ed      	bne.n	80038c2 <fillScreen+0x9e>
 80038e6:	4653      	mov	r3, sl
 80038e8:	3301      	adds	r3, #1
 80038ea:	b29b      	uxth	r3, r3
 80038ec:	b21a      	sxth	r2, r3
 80038ee:	4692      	mov	sl, r2
 80038f0:	429d      	cmp	r5, r3
 80038f2:	dce3      	bgt.n	80038bc <fillScreen+0x98>
 80038f4:	e7ab      	b.n	800384e <fillScreen+0x2a>
 80038f6:	b2ab      	uxth	r3, r5
 80038f8:	1c5a      	adds	r2, r3, #1
 80038fa:	425b      	negs	r3, r3
 80038fc:	b212      	sxth	r2, r2
 80038fe:	b21b      	sxth	r3, r3
 8003900:	e7b0      	b.n	8003864 <fillScreen+0x40>
 8003902:	b2b8      	uxth	r0, r7
 8003904:	1c41      	adds	r1, r0, #1
 8003906:	b209      	sxth	r1, r1
 8003908:	428f      	cmp	r7, r1
 800390a:	dda0      	ble.n	800384e <fillScreen+0x2a>
 800390c:	4240      	negs	r0, r0
 800390e:	b200      	sxth	r0, r0
 8003910:	4684      	mov	ip, r0
 8003912:	e7ad      	b.n	8003870 <fillScreen+0x4c>
 8003914:	20000f7c 	.word	0x20000f7c
 8003918:	20001410 	.word	0x20001410
 800391c:	20001490 	.word	0x20001490

08003920 <writeLine>:
 8003920:	b5f0      	push	{r4, r5, r6, r7, lr}
 8003922:	4657      	mov	r7, sl
 8003924:	464e      	mov	r6, r9
 8003926:	4645      	mov	r5, r8
 8003928:	46de      	mov	lr, fp
 800392a:	b5e0      	push	{r5, r6, r7, lr}
 800392c:	001d      	movs	r5, r3
 800392e:	0016      	movs	r6, r2
 8003930:	b083      	sub	sp, #12
 8003932:	ab0c      	add	r3, sp, #48	; 0x30
 8003934:	881b      	ldrh	r3, [r3, #0]
 8003936:	1a6a      	subs	r2, r5, r1
 8003938:	9301      	str	r3, [sp, #4]
 800393a:	17d3      	asrs	r3, r2, #31
 800393c:	18d2      	adds	r2, r2, r3
 800393e:	405a      	eors	r2, r3
 8003940:	1a33      	subs	r3, r6, r0
 8003942:	000f      	movs	r7, r1
 8003944:	468c      	mov	ip, r1
 8003946:	17d9      	asrs	r1, r3, #31
 8003948:	185b      	adds	r3, r3, r1
 800394a:	404b      	eors	r3, r1
 800394c:	46a9      	mov	r9, r5
 800394e:	0034      	movs	r4, r6
 8003950:	4682      	mov	sl, r0
 8003952:	4698      	mov	r8, r3
 8003954:	429a      	cmp	r2, r3
 8003956:	dc06      	bgt.n	8003966 <writeLine+0x46>
 8003958:	002c      	movs	r4, r5
 800395a:	46ba      	mov	sl, r7
 800395c:	0035      	movs	r5, r6
 800395e:	0007      	movs	r7, r0
 8003960:	4690      	mov	r8, r2
 8003962:	464e      	mov	r6, r9
 8003964:	4660      	mov	r0, ip
 8003966:	42af      	cmp	r7, r5
 8003968:	dd40      	ble.n	80039ec <writeLine+0xcc>
 800396a:	4651      	mov	r1, sl
 800396c:	1b09      	subs	r1, r1, r4
 800396e:	17cc      	asrs	r4, r1, #31
 8003970:	1909      	adds	r1, r1, r4
 8003972:	4061      	eors	r1, r4
 8003974:	4688      	mov	r8, r1
 8003976:	1b79      	subs	r1, r7, r5
 8003978:	b289      	uxth	r1, r1
 800397a:	4689      	mov	r9, r1
 800397c:	b209      	sxth	r1, r1
 800397e:	0fcc      	lsrs	r4, r1, #31
 8003980:	1864      	adds	r4, r4, r1
 8003982:	1064      	asrs	r4, r4, #1
 8003984:	42b0      	cmp	r0, r6
 8003986:	dc3e      	bgt.n	8003a06 <writeLine+0xe6>
 8003988:	4937      	ldr	r1, [pc, #220]	; (8003a68 <writeLine+0x148>)
 800398a:	468a      	mov	sl, r1
 800398c:	4641      	mov	r1, r8
 800398e:	b289      	uxth	r1, r1
 8003990:	429a      	cmp	r2, r3
 8003992:	dc3e      	bgt.n	8003a12 <writeLine+0xf2>
 8003994:	4b35      	ldr	r3, [pc, #212]	; (8003a6c <writeLine+0x14c>)
 8003996:	469b      	mov	fp, r3
 8003998:	003b      	movs	r3, r7
 800399a:	000f      	movs	r7, r1
 800399c:	4698      	mov	r8, r3
 800399e:	2d00      	cmp	r5, #0
 80039a0:	db10      	blt.n	80039c4 <writeLine+0xa4>
 80039a2:	465b      	mov	r3, fp
 80039a4:	2200      	movs	r2, #0
 80039a6:	5e9b      	ldrsh	r3, [r3, r2]
 80039a8:	42ab      	cmp	r3, r5
 80039aa:	dd0b      	ble.n	80039c4 <writeLine+0xa4>
 80039ac:	2e00      	cmp	r6, #0
 80039ae:	db09      	blt.n	80039c4 <writeLine+0xa4>
 80039b0:	4b2f      	ldr	r3, [pc, #188]	; (8003a70 <writeLine+0x150>)
 80039b2:	2200      	movs	r2, #0
 80039b4:	5e9b      	ldrsh	r3, [r3, r2]
 80039b6:	42b3      	cmp	r3, r6
 80039b8:	dd04      	ble.n	80039c4 <writeLine+0xa4>
 80039ba:	9a01      	ldr	r2, [sp, #4]
 80039bc:	0031      	movs	r1, r6
 80039be:	0028      	movs	r0, r5
 80039c0:	f7ff fda4 	bl	800350c <writePixel.part.0>
 80039c4:	1be4      	subs	r4, r4, r7
 80039c6:	b2a3      	uxth	r3, r4
 80039c8:	b21c      	sxth	r4, r3
 80039ca:	2c00      	cmp	r4, #0
 80039cc:	da03      	bge.n	80039d6 <writeLine+0xb6>
 80039ce:	4456      	add	r6, sl
 80039d0:	444b      	add	r3, r9
 80039d2:	b236      	sxth	r6, r6
 80039d4:	b21c      	sxth	r4, r3
 80039d6:	3501      	adds	r5, #1
 80039d8:	b22d      	sxth	r5, r5
 80039da:	45a8      	cmp	r8, r5
 80039dc:	dadf      	bge.n	800399e <writeLine+0x7e>
 80039de:	b003      	add	sp, #12
 80039e0:	bc3c      	pop	{r2, r3, r4, r5}
 80039e2:	4690      	mov	r8, r2
 80039e4:	4699      	mov	r9, r3
 80039e6:	46a2      	mov	sl, r4
 80039e8:	46ab      	mov	fp, r5
 80039ea:	bdf0      	pop	{r4, r5, r6, r7, pc}
 80039ec:	1be9      	subs	r1, r5, r7
 80039ee:	b289      	uxth	r1, r1
 80039f0:	4689      	mov	r9, r1
 80039f2:	b209      	sxth	r1, r1
 80039f4:	0fcc      	lsrs	r4, r1, #31
 80039f6:	1864      	adds	r4, r4, r1
 80039f8:	1064      	asrs	r4, r4, #1
 80039fa:	42b0      	cmp	r0, r6
 80039fc:	da2f      	bge.n	8003a5e <writeLine+0x13e>
 80039fe:	0029      	movs	r1, r5
 8003a00:	0006      	movs	r6, r0
 8003a02:	003d      	movs	r5, r7
 8003a04:	000f      	movs	r7, r1
 8003a06:	2101      	movs	r1, #1
 8003a08:	468a      	mov	sl, r1
 8003a0a:	4641      	mov	r1, r8
 8003a0c:	b289      	uxth	r1, r1
 8003a0e:	429a      	cmp	r2, r3
 8003a10:	ddc0      	ble.n	8003994 <writeLine+0x74>
 8003a12:	4b16      	ldr	r3, [pc, #88]	; (8003a6c <writeLine+0x14c>)
 8003a14:	469b      	mov	fp, r3
 8003a16:	003b      	movs	r3, r7
 8003a18:	000f      	movs	r7, r1
 8003a1a:	4698      	mov	r8, r3
 8003a1c:	2e00      	cmp	r6, #0
 8003a1e:	db10      	blt.n	8003a42 <writeLine+0x122>
 8003a20:	465b      	mov	r3, fp
 8003a22:	2200      	movs	r2, #0
 8003a24:	5e9b      	ldrsh	r3, [r3, r2]
 8003a26:	42b3      	cmp	r3, r6
 8003a28:	dd0b      	ble.n	8003a42 <writeLine+0x122>
 8003a2a:	2d00      	cmp	r5, #0
 8003a2c:	db09      	blt.n	8003a42 <writeLine+0x122>
 8003a2e:	4b10      	ldr	r3, [pc, #64]	; (8003a70 <writeLine+0x150>)
 8003a30:	2200      	movs	r2, #0
 8003a32:	5e9b      	ldrsh	r3, [r3, r2]
 8003a34:	42ab      	cmp	r3, r5
 8003a36:	dd04      	ble.n	8003a42 <writeLine+0x122>
 8003a38:	9a01      	ldr	r2, [sp, #4]
 8003a3a:	0029      	movs	r1, r5
 8003a3c:	0030      	movs	r0, r6
 8003a3e:	f7ff fd65 	bl	800350c <writePixel.part.0>
 8003a42:	1be4      	subs	r4, r4, r7
 8003a44:	b2a3      	uxth	r3, r4
 8003a46:	b21c      	sxth	r4, r3
 8003a48:	2c00      	cmp	r4, #0
 8003a4a:	da03      	bge.n	8003a54 <writeLine+0x134>
 8003a4c:	4456      	add	r6, sl
 8003a4e:	444b      	add	r3, r9
 8003a50:	b236      	sxth	r6, r6
 8003a52:	b21c      	sxth	r4, r3
 8003a54:	3501      	adds	r5, #1
 8003a56:	b22d      	sxth	r5, r5
 8003a58:	4545      	cmp	r5, r8
 8003a5a:	dddf      	ble.n	8003a1c <writeLine+0xfc>
 8003a5c:	e7bf      	b.n	80039de <writeLine+0xbe>
 8003a5e:	0029      	movs	r1, r5
 8003a60:	0006      	movs	r6, r0
 8003a62:	003d      	movs	r5, r7
 8003a64:	000f      	movs	r7, r1
 8003a66:	e78f      	b.n	8003988 <writeLine+0x68>
 8003a68:	0000ffff 	.word	0x0000ffff
 8003a6c:	20001410 	.word	0x20001410
 8003a70:	20001490 	.word	0x20001490

08003a74 <drawFastVLine>:
 8003a74:	b5f8      	push	{r3, r4, r5, r6, r7, lr}
 8003a76:	46de      	mov	lr, fp
 8003a78:	4657      	mov	r7, sl
 8003a7a:	464e      	mov	r6, r9
 8003a7c:	4645      	mov	r5, r8
 8003a7e:	b5e0      	push	{r5, r6, r7, lr}
 8003a80:	0006      	movs	r6, r0
 8003a82:	2090      	movs	r0, #144	; 0x90
 8003a84:	000f      	movs	r7, r1
 8003a86:	0014      	movs	r4, r2
 8003a88:	2110      	movs	r1, #16
 8003a8a:	2200      	movs	r2, #0
 8003a8c:	05c0      	lsls	r0, r0, #23
 8003a8e:	469b      	mov	fp, r3
 8003a90:	3c01      	subs	r4, #1
 8003a92:	f7fd fd83 	bl	800159c <HAL_GPIO_WritePin>
 8003a96:	b2bb      	uxth	r3, r7
 8003a98:	191c      	adds	r4, r3, r4
 8003a9a:	b2a2      	uxth	r2, r4
 8003a9c:	b214      	sxth	r4, r2
 8003a9e:	42bc      	cmp	r4, r7
 8003aa0:	d037      	beq.n	8003b12 <drawFastVLine+0x9e>
 8003aa2:	da59      	bge.n	8003b58 <drawFastVLine+0xe4>
 8003aa4:	1a9a      	subs	r2, r3, r2
 8003aa6:	b293      	uxth	r3, r2
 8003aa8:	4699      	mov	r9, r3
 8003aaa:	b21b      	sxth	r3, r3
 8003aac:	0fdd      	lsrs	r5, r3, #31
 8003aae:	18ed      	adds	r5, r5, r3
 8003ab0:	106d      	asrs	r5, r5, #1
 8003ab2:	42bc      	cmp	r4, r7
 8003ab4:	dc21      	bgt.n	8003afa <drawFastVLine+0x86>
 8003ab6:	4b2c      	ldr	r3, [pc, #176]	; (8003b68 <drawFastVLine+0xf4>)
 8003ab8:	469a      	mov	sl, r3
 8003aba:	4b2c      	ldr	r3, [pc, #176]	; (8003b6c <drawFastVLine+0xf8>)
 8003abc:	4698      	mov	r8, r3
 8003abe:	2e00      	cmp	r6, #0
 8003ac0:	db10      	blt.n	8003ae4 <drawFastVLine+0x70>
 8003ac2:	4653      	mov	r3, sl
 8003ac4:	2200      	movs	r2, #0
 8003ac6:	5e9b      	ldrsh	r3, [r3, r2]
 8003ac8:	42b3      	cmp	r3, r6
 8003aca:	dd0b      	ble.n	8003ae4 <drawFastVLine+0x70>
 8003acc:	2c00      	cmp	r4, #0
 8003ace:	db09      	blt.n	8003ae4 <drawFastVLine+0x70>
 8003ad0:	4643      	mov	r3, r8
 8003ad2:	2200      	movs	r2, #0
 8003ad4:	5e9b      	ldrsh	r3, [r3, r2]
 8003ad6:	42a3      	cmp	r3, r4
 8003ad8:	dd04      	ble.n	8003ae4 <drawFastVLine+0x70>
 8003ada:	465a      	mov	r2, fp
 8003adc:	0021      	movs	r1, r4
 8003ade:	0030      	movs	r0, r6
 8003ae0:	f7ff fd14 	bl	800350c <writePixel.part.0>
 8003ae4:	b2ab      	uxth	r3, r5
 8003ae6:	2d00      	cmp	r5, #0
 8003ae8:	da03      	bge.n	8003af2 <drawFastVLine+0x7e>
 8003aea:	3e01      	subs	r6, #1
 8003aec:	444b      	add	r3, r9
 8003aee:	b236      	sxth	r6, r6
 8003af0:	b21d      	sxth	r5, r3
 8003af2:	3401      	adds	r4, #1
 8003af4:	b224      	sxth	r4, r4
 8003af6:	42bc      	cmp	r4, r7
 8003af8:	dde1      	ble.n	8003abe <drawFastVLine+0x4a>
 8003afa:	2090      	movs	r0, #144	; 0x90
 8003afc:	2201      	movs	r2, #1
 8003afe:	2110      	movs	r1, #16
 8003b00:	05c0      	lsls	r0, r0, #23
 8003b02:	f7fd fd4b 	bl	800159c <HAL_GPIO_WritePin>
 8003b06:	bc3c      	pop	{r2, r3, r4, r5}
 8003b08:	4690      	mov	r8, r2
 8003b0a:	4699      	mov	r9, r3
 8003b0c:	46a2      	mov	sl, r4
 8003b0e:	46ab      	mov	fp, r5
 8003b10:	bdf8      	pop	{r3, r4, r5, r6, r7, pc}
 8003b12:	4b15      	ldr	r3, [pc, #84]	; (8003b68 <drawFastVLine+0xf4>)
 8003b14:	0035      	movs	r5, r6
 8003b16:	4699      	mov	r9, r3
 8003b18:	4b14      	ldr	r3, [pc, #80]	; (8003b6c <drawFastVLine+0xf8>)
 8003b1a:	2700      	movs	r7, #0
 8003b1c:	4698      	mov	r8, r3
 8003b1e:	2d00      	cmp	r5, #0
 8003b20:	db0b      	blt.n	8003b3a <drawFastVLine+0xc6>
 8003b22:	464b      	mov	r3, r9
 8003b24:	2200      	movs	r2, #0
 8003b26:	5e9b      	ldrsh	r3, [r3, r2]
 8003b28:	42ab      	cmp	r3, r5
 8003b2a:	dd06      	ble.n	8003b3a <drawFastVLine+0xc6>
 8003b2c:	2c00      	cmp	r4, #0
 8003b2e:	db04      	blt.n	8003b3a <drawFastVLine+0xc6>
 8003b30:	4643      	mov	r3, r8
 8003b32:	2200      	movs	r2, #0
 8003b34:	5e9b      	ldrsh	r3, [r3, r2]
 8003b36:	42a3      	cmp	r3, r4
 8003b38:	dc08      	bgt.n	8003b4c <drawFastVLine+0xd8>
 8003b3a:	2f00      	cmp	r7, #0
 8003b3c:	da01      	bge.n	8003b42 <drawFastVLine+0xce>
 8003b3e:	3c01      	subs	r4, #1
 8003b40:	b224      	sxth	r4, r4
 8003b42:	3501      	adds	r5, #1
 8003b44:	b22d      	sxth	r5, r5
 8003b46:	42ae      	cmp	r6, r5
 8003b48:	dae9      	bge.n	8003b1e <drawFastVLine+0xaa>
 8003b4a:	e7d6      	b.n	8003afa <drawFastVLine+0x86>
 8003b4c:	465a      	mov	r2, fp
 8003b4e:	0021      	movs	r1, r4
 8003b50:	0028      	movs	r0, r5
 8003b52:	f7ff fcdb 	bl	800350c <writePixel.part.0>
 8003b56:	e7f0      	b.n	8003b3a <drawFastVLine+0xc6>
 8003b58:	0019      	movs	r1, r3
 8003b5a:	0013      	movs	r3, r2
 8003b5c:	000a      	movs	r2, r1
 8003b5e:	0021      	movs	r1, r4
 8003b60:	003c      	movs	r4, r7
 8003b62:	000f      	movs	r7, r1
 8003b64:	e79e      	b.n	8003aa4 <drawFastVLine+0x30>
 8003b66:	46c0      	nop			; (mov r8, r8)
 8003b68:	20001410 	.word	0x20001410
 8003b6c:	20001490 	.word	0x20001490

08003b70 <setRotation>:
 8003b70:	2303      	movs	r3, #3
 8003b72:	b5f0      	push	{r4, r5, r6, r7, lr}
 8003b74:	46d6      	mov	lr, sl
 8003b76:	464f      	mov	r7, r9
 8003b78:	4646      	mov	r6, r8
 8003b7a:	4018      	ands	r0, r3
 8003b7c:	4b54      	ldr	r3, [pc, #336]	; (8003cd0 <setRotation+0x160>)
 8003b7e:	b5c0      	push	{r6, r7, lr}
 8003b80:	7018      	strb	r0, [r3, #0]
 8003b82:	4b54      	ldr	r3, [pc, #336]	; (8003cd4 <setRotation+0x164>)
 8003b84:	2802      	cmp	r0, #2
 8003b86:	d100      	bne.n	8003b8a <setRotation+0x1a>
 8003b88:	e097      	b.n	8003cba <setRotation+0x14a>
 8003b8a:	2803      	cmp	r0, #3
 8003b8c:	d100      	bne.n	8003b90 <setRotation+0x20>
 8003b8e:	e087      	b.n	8003ca0 <setRotation+0x130>
 8003b90:	2801      	cmp	r0, #1
 8003b92:	d100      	bne.n	8003b96 <setRotation+0x26>
 8003b94:	e079      	b.n	8003c8a <setRotation+0x11a>
 8003b96:	22f0      	movs	r2, #240	; 0xf0
 8003b98:	801a      	strh	r2, [r3, #0]
 8003b9a:	4b4f      	ldr	r3, [pc, #316]	; (8003cd8 <setRotation+0x168>)
 8003b9c:	3250      	adds	r2, #80	; 0x50
 8003b9e:	801a      	strh	r2, [r3, #0]
 8003ba0:	2300      	movs	r3, #0
 8003ba2:	2780      	movs	r7, #128	; 0x80
 8003ba4:	2600      	movs	r6, #0
 8003ba6:	4698      	mov	r8, r3
 8003ba8:	023f      	lsls	r7, r7, #8
 8003baa:	2090      	movs	r0, #144	; 0x90
 8003bac:	2200      	movs	r2, #0
 8003bae:	2110      	movs	r1, #16
 8003bb0:	05c0      	lsls	r0, r0, #23
 8003bb2:	f7fd fcf3 	bl	800159c <HAL_GPIO_WritePin>
 8003bb6:	2090      	movs	r0, #144	; 0x90
 8003bb8:	4c48      	ldr	r4, [pc, #288]	; (8003cdc <setRotation+0x16c>)
 8003bba:	2200      	movs	r2, #0
 8003bbc:	2120      	movs	r1, #32
 8003bbe:	05c0      	lsls	r0, r0, #23
 8003bc0:	f7fd fcec 	bl	800159c <HAL_GPIO_WritePin>
 8003bc4:	0020      	movs	r0, r4
 8003bc6:	2200      	movs	r2, #0
 8003bc8:	2110      	movs	r1, #16
 8003bca:	f7fd fce7 	bl	800159c <HAL_GPIO_WritePin>
 8003bce:	23f0      	movs	r3, #240	; 0xf0
 8003bd0:	4d43      	ldr	r5, [pc, #268]	; (8003ce0 <setRotation+0x170>)
 8003bd2:	021b      	lsls	r3, r3, #8
 8003bd4:	62ab      	str	r3, [r5, #40]	; 0x28
 8003bd6:	469a      	mov	sl, r3
 8003bd8:	23f0      	movs	r3, #240	; 0xf0
 8003bda:	2240      	movs	r2, #64	; 0x40
 8003bdc:	009b      	lsls	r3, r3, #2
 8003bde:	62a3      	str	r3, [r4, #40]	; 0x28
 8003be0:	4699      	mov	r9, r3
 8003be2:	69a3      	ldr	r3, [r4, #24]
 8003be4:	0020      	movs	r0, r4
 8003be6:	61a3      	str	r3, [r4, #24]
 8003be8:	69a3      	ldr	r3, [r4, #24]
 8003bea:	2110      	movs	r1, #16
 8003bec:	4313      	orrs	r3, r2
 8003bee:	61a3      	str	r3, [r4, #24]
 8003bf0:	2380      	movs	r3, #128	; 0x80
 8003bf2:	69aa      	ldr	r2, [r5, #24]
 8003bf4:	01db      	lsls	r3, r3, #7
 8003bf6:	4313      	orrs	r3, r2
 8003bf8:	61ab      	str	r3, [r5, #24]
 8003bfa:	69ab      	ldr	r3, [r5, #24]
 8003bfc:	61ab      	str	r3, [r5, #24]
 8003bfe:	2380      	movs	r3, #128	; 0x80
 8003c00:	69a2      	ldr	r2, [r4, #24]
 8003c02:	009b      	lsls	r3, r3, #2
 8003c04:	4313      	orrs	r3, r2
 8003c06:	2280      	movs	r2, #128	; 0x80
 8003c08:	61a3      	str	r3, [r4, #24]
 8003c0a:	69a3      	ldr	r3, [r4, #24]
 8003c0c:	4313      	orrs	r3, r2
 8003c0e:	61a3      	str	r3, [r4, #24]
 8003c10:	69ab      	ldr	r3, [r5, #24]
 8003c12:	3a7f      	subs	r2, #127	; 0x7f
 8003c14:	61ab      	str	r3, [r5, #24]
 8003c16:	69ab      	ldr	r3, [r5, #24]
 8003c18:	61ab      	str	r3, [r5, #24]
 8003c1a:	f7fd fcbf 	bl	800159c <HAL_GPIO_WritePin>
 8003c1e:	2090      	movs	r0, #144	; 0x90
 8003c20:	2201      	movs	r2, #1
 8003c22:	2120      	movs	r1, #32
 8003c24:	05c0      	lsls	r0, r0, #23
 8003c26:	f7fd fcb9 	bl	800159c <HAL_GPIO_WritePin>
 8003c2a:	0020      	movs	r0, r4
 8003c2c:	2200      	movs	r2, #0
 8003c2e:	2110      	movs	r1, #16
 8003c30:	f7fd fcb4 	bl	800159c <HAL_GPIO_WritePin>
 8003c34:	4653      	mov	r3, sl
 8003c36:	62ab      	str	r3, [r5, #40]	; 0x28
 8003c38:	464b      	mov	r3, r9
 8003c3a:	62a3      	str	r3, [r4, #40]	; 0x28
 8003c3c:	69a3      	ldr	r3, [r4, #24]
 8003c3e:	0020      	movs	r0, r4
 8003c40:	61a3      	str	r3, [r4, #24]
 8003c42:	69a3      	ldr	r3, [r4, #24]
 8003c44:	2110      	movs	r1, #16
 8003c46:	61a3      	str	r3, [r4, #24]
 8003c48:	69ab      	ldr	r3, [r5, #24]
 8003c4a:	61ab      	str	r3, [r5, #24]
 8003c4c:	2380      	movs	r3, #128	; 0x80
 8003c4e:	69aa      	ldr	r2, [r5, #24]
 8003c50:	015b      	lsls	r3, r3, #5
 8003c52:	4313      	orrs	r3, r2
 8003c54:	4642      	mov	r2, r8
 8003c56:	61ab      	str	r3, [r5, #24]
 8003c58:	69a3      	ldr	r3, [r4, #24]
 8003c5a:	61a3      	str	r3, [r4, #24]
 8003c5c:	69a3      	ldr	r3, [r4, #24]
 8003c5e:	431a      	orrs	r2, r3
 8003c60:	61a2      	str	r2, [r4, #24]
 8003c62:	69ab      	ldr	r3, [r5, #24]
 8003c64:	2201      	movs	r2, #1
 8003c66:	431f      	orrs	r7, r3
 8003c68:	61af      	str	r7, [r5, #24]
 8003c6a:	69ab      	ldr	r3, [r5, #24]
 8003c6c:	431e      	orrs	r6, r3
 8003c6e:	61ae      	str	r6, [r5, #24]
 8003c70:	f7fd fc94 	bl	800159c <HAL_GPIO_WritePin>
 8003c74:	2090      	movs	r0, #144	; 0x90
 8003c76:	2201      	movs	r2, #1
 8003c78:	2110      	movs	r1, #16
 8003c7a:	05c0      	lsls	r0, r0, #23
 8003c7c:	f7fd fc8e 	bl	800159c <HAL_GPIO_WritePin>
 8003c80:	bc1c      	pop	{r2, r3, r4}
 8003c82:	4690      	mov	r8, r2
 8003c84:	4699      	mov	r9, r3
 8003c86:	46a2      	mov	sl, r4
 8003c88:	bdf0      	pop	{r4, r5, r6, r7, pc}
 8003c8a:	22a0      	movs	r2, #160	; 0xa0
 8003c8c:	0052      	lsls	r2, r2, #1
 8003c8e:	801a      	strh	r2, [r3, #0]
 8003c90:	4b11      	ldr	r3, [pc, #68]	; (8003cd8 <setRotation+0x168>)
 8003c92:	3a50      	subs	r2, #80	; 0x50
 8003c94:	801a      	strh	r2, [r3, #0]
 8003c96:	2380      	movs	r3, #128	; 0x80
 8003c98:	2600      	movs	r6, #0
 8003c9a:	2700      	movs	r7, #0
 8003c9c:	4698      	mov	r8, r3
 8003c9e:	e784      	b.n	8003baa <setRotation+0x3a>
 8003ca0:	22a0      	movs	r2, #160	; 0xa0
 8003ca2:	0052      	lsls	r2, r2, #1
 8003ca4:	801a      	strh	r2, [r3, #0]
 8003ca6:	4b0c      	ldr	r3, [pc, #48]	; (8003cd8 <setRotation+0x168>)
 8003ca8:	3a50      	subs	r2, #80	; 0x50
 8003caa:	801a      	strh	r2, [r3, #0]
 8003cac:	2680      	movs	r6, #128	; 0x80
 8003cae:	2780      	movs	r7, #128	; 0x80
 8003cb0:	2380      	movs	r3, #128	; 0x80
 8003cb2:	01b6      	lsls	r6, r6, #6
 8003cb4:	023f      	lsls	r7, r7, #8
 8003cb6:	4698      	mov	r8, r3
 8003cb8:	e777      	b.n	8003baa <setRotation+0x3a>
 8003cba:	22f0      	movs	r2, #240	; 0xf0
 8003cbc:	801a      	strh	r2, [r3, #0]
 8003cbe:	4b06      	ldr	r3, [pc, #24]	; (8003cd8 <setRotation+0x168>)
 8003cc0:	3250      	adds	r2, #80	; 0x50
 8003cc2:	801a      	strh	r2, [r3, #0]
 8003cc4:	2680      	movs	r6, #128	; 0x80
 8003cc6:	2300      	movs	r3, #0
 8003cc8:	01b6      	lsls	r6, r6, #6
 8003cca:	2700      	movs	r7, #0
 8003ccc:	4698      	mov	r8, r3
 8003cce:	e76c      	b.n	8003baa <setRotation+0x3a>
 8003cd0:	20000faa 	.word	0x20000faa
 8003cd4:	20001410 	.word	0x20001410
 8003cd8:	20001490 	.word	0x20001490
 8003cdc:	48000800 	.word	0x48000800
 8003ce0:	48000400 	.word	0x48000400

08003ce4 <LCD_Init>:
 8003ce4:	b5f0      	push	{r4, r5, r6, r7, lr}
 8003ce6:	22f0      	movs	r2, #240	; 0xf0
 8003ce8:	46de      	mov	lr, fp
 8003cea:	4657      	mov	r7, sl
 8003cec:	464e      	mov	r6, r9
 8003cee:	4645      	mov	r5, r8
 8003cf0:	4b9d      	ldr	r3, [pc, #628]	; (8003f68 <LCD_Init+0x284>)
 8003cf2:	b5e0      	push	{r5, r6, r7, lr}
 8003cf4:	801a      	strh	r2, [r3, #0]
 8003cf6:	4b9d      	ldr	r3, [pc, #628]	; (8003f6c <LCD_Init+0x288>)
 8003cf8:	3250      	adds	r2, #80	; 0x50
 8003cfa:	801a      	strh	r2, [r3, #0]
 8003cfc:	2300      	movs	r3, #0
 8003cfe:	4a9c      	ldr	r2, [pc, #624]	; (8003f70 <LCD_Init+0x28c>)
 8003d00:	499c      	ldr	r1, [pc, #624]	; (8003f74 <LCD_Init+0x290>)
 8003d02:	8013      	strh	r3, [r2, #0]
 8003d04:	4a9c      	ldr	r2, [pc, #624]	; (8003f78 <LCD_Init+0x294>)
 8003d06:	b083      	sub	sp, #12
 8003d08:	8013      	strh	r3, [r2, #0]
 8003d0a:	4a9c      	ldr	r2, [pc, #624]	; (8003f7c <LCD_Init+0x298>)
 8003d0c:	3301      	adds	r3, #1
 8003d0e:	7013      	strb	r3, [r2, #0]
 8003d10:	4a9b      	ldr	r2, [pc, #620]	; (8003f80 <LCD_Init+0x29c>)
 8003d12:	489c      	ldr	r0, [pc, #624]	; (8003f84 <LCD_Init+0x2a0>)
 8003d14:	7013      	strb	r3, [r2, #0]
 8003d16:	2201      	movs	r2, #1
 8003d18:	4252      	negs	r2, r2
 8003d1a:	800a      	strh	r2, [r1, #0]
 8003d1c:	499a      	ldr	r1, [pc, #616]	; (8003f88 <LCD_Init+0x2a4>)
 8003d1e:	4c9b      	ldr	r4, [pc, #620]	; (8003f8c <LCD_Init+0x2a8>)
 8003d20:	800a      	strh	r2, [r1, #0]
 8003d22:	499b      	ldr	r1, [pc, #620]	; (8003f90 <LCD_Init+0x2ac>)
 8003d24:	27ef      	movs	r7, #239	; 0xef
 8003d26:	800a      	strh	r2, [r1, #0]
 8003d28:	4a9a      	ldr	r2, [pc, #616]	; (8003f94 <LCD_Init+0x2b0>)
 8003d2a:	2100      	movs	r1, #0
 8003d2c:	7013      	strb	r3, [r2, #0]
 8003d2e:	2200      	movs	r2, #0
 8003d30:	4b99      	ldr	r3, [pc, #612]	; (8003f98 <LCD_Init+0x2b4>)
 8003d32:	701a      	strb	r2, [r3, #0]
 8003d34:	2228      	movs	r2, #40	; 0x28
 8003d36:	f003 fc40 	bl	80075ba <memset>
 8003d3a:	2090      	movs	r0, #144	; 0x90
 8003d3c:	2200      	movs	r2, #0
 8003d3e:	2110      	movs	r1, #16
 8003d40:	05c0      	lsls	r0, r0, #23
 8003d42:	f7fd fc2b 	bl	800159c <HAL_GPIO_WritePin>
 8003d46:	2090      	movs	r0, #144	; 0x90
 8003d48:	2200      	movs	r2, #0
 8003d4a:	2120      	movs	r1, #32
 8003d4c:	05c0      	lsls	r0, r0, #23
 8003d4e:	f7fd fc25 	bl	800159c <HAL_GPIO_WritePin>
 8003d52:	2200      	movs	r2, #0
 8003d54:	2110      	movs	r1, #16
 8003d56:	0020      	movs	r0, r4
 8003d58:	f7fd fc20 	bl	800159c <HAL_GPIO_WritePin>
 8003d5c:	22f0      	movs	r2, #240	; 0xf0
 8003d5e:	4b8f      	ldr	r3, [pc, #572]	; (8003f9c <LCD_Init+0x2b8>)
 8003d60:	0212      	lsls	r2, r2, #8
 8003d62:	629a      	str	r2, [r3, #40]	; 0x28
 8003d64:	22f0      	movs	r2, #240	; 0xf0
 8003d66:	0092      	lsls	r2, r2, #2
 8003d68:	62a2      	str	r2, [r4, #40]	; 0x28
 8003d6a:	2280      	movs	r2, #128	; 0x80
 8003d6c:	69a1      	ldr	r1, [r4, #24]
 8003d6e:	0052      	lsls	r2, r2, #1
 8003d70:	430a      	orrs	r2, r1
 8003d72:	61a2      	str	r2, [r4, #24]
 8003d74:	69a2      	ldr	r2, [r4, #24]
 8003d76:	2110      	movs	r1, #16
 8003d78:	61a2      	str	r2, [r4, #24]
 8003d7a:	699a      	ldr	r2, [r3, #24]
 8003d7c:	0020      	movs	r0, r4
 8003d7e:	619a      	str	r2, [r3, #24]
 8003d80:	699a      	ldr	r2, [r3, #24]
 8003d82:	619a      	str	r2, [r3, #24]
 8003d84:	69a2      	ldr	r2, [r4, #24]
 8003d86:	61a2      	str	r2, [r4, #24]
 8003d88:	69a2      	ldr	r2, [r4, #24]
 8003d8a:	61a2      	str	r2, [r4, #24]
 8003d8c:	699a      	ldr	r2, [r3, #24]
 8003d8e:	619a      	str	r2, [r3, #24]
 8003d90:	699a      	ldr	r2, [r3, #24]
 8003d92:	619a      	str	r2, [r3, #24]
 8003d94:	2201      	movs	r2, #1
 8003d96:	f7fd fc01 	bl	800159c <HAL_GPIO_WritePin>
 8003d9a:	2090      	movs	r0, #144	; 0x90
 8003d9c:	2201      	movs	r2, #1
 8003d9e:	2110      	movs	r1, #16
 8003da0:	05c0      	lsls	r0, r0, #23
 8003da2:	f7fd fbfb 	bl	800159c <HAL_GPIO_WritePin>
 8003da6:	2096      	movs	r0, #150	; 0x96
 8003da8:	f7fd f9e6 	bl	8001178 <HAL_Delay>
 8003dac:	2303      	movs	r3, #3
 8003dae:	4e7c      	ldr	r6, [pc, #496]	; (8003fa0 <LCD_Init+0x2bc>)
 8003db0:	4698      	mov	r8, r3
 8003db2:	e012      	b.n	8003dda <LCD_Init+0xf6>
 8003db4:	2090      	movs	r0, #144	; 0x90
 8003db6:	2201      	movs	r2, #1
 8003db8:	2110      	movs	r1, #16
 8003dba:	05c0      	lsls	r0, r0, #23
 8003dbc:	f7fd fbee 	bl	800159c <HAL_GPIO_WritePin>
 8003dc0:	4643      	mov	r3, r8
 8003dc2:	465e      	mov	r6, fp
 8003dc4:	b25b      	sxtb	r3, r3
 8003dc6:	4456      	add	r6, sl
 8003dc8:	2b00      	cmp	r3, #0
 8003dca:	da00      	bge.n	8003dce <LCD_Init+0xea>
 8003dcc:	e0ba      	b.n	8003f44 <LCD_Init+0x260>
 8003dce:	7837      	ldrb	r7, [r6, #0]
 8003dd0:	2f00      	cmp	r7, #0
 8003dd2:	d100      	bne.n	8003dd6 <LCD_Init+0xf2>
 8003dd4:	e0bd      	b.n	8003f52 <LCD_Init+0x26e>
 8003dd6:	7873      	ldrb	r3, [r6, #1]
 8003dd8:	4698      	mov	r8, r3
 8003dda:	1cb3      	adds	r3, r6, #2
 8003ddc:	4642      	mov	r2, r8
 8003dde:	469b      	mov	fp, r3
 8003de0:	2090      	movs	r0, #144	; 0x90
 8003de2:	237f      	movs	r3, #127	; 0x7f
 8003de4:	2110      	movs	r1, #16
 8003de6:	4013      	ands	r3, r2
 8003de8:	05c0      	lsls	r0, r0, #23
 8003dea:	2200      	movs	r2, #0
 8003dec:	469a      	mov	sl, r3
 8003dee:	f7fd fbd5 	bl	800159c <HAL_GPIO_WritePin>
 8003df2:	2090      	movs	r0, #144	; 0x90
 8003df4:	2200      	movs	r2, #0
 8003df6:	2120      	movs	r1, #32
 8003df8:	05c0      	lsls	r0, r0, #23
 8003dfa:	f7fd fbcf 	bl	800159c <HAL_GPIO_WritePin>
 8003dfe:	2200      	movs	r2, #0
 8003e00:	2110      	movs	r1, #16
 8003e02:	4862      	ldr	r0, [pc, #392]	; (8003f8c <LCD_Init+0x2a8>)
 8003e04:	f7fd fbca 	bl	800159c <HAL_GPIO_WritePin>
 8003e08:	23f0      	movs	r3, #240	; 0xf0
 8003e0a:	4d64      	ldr	r5, [pc, #400]	; (8003f9c <LCD_Init+0x2b8>)
 8003e0c:	021b      	lsls	r3, r3, #8
 8003e0e:	62ab      	str	r3, [r5, #40]	; 0x28
 8003e10:	4699      	mov	r9, r3
 8003e12:	23f0      	movs	r3, #240	; 0xf0
 8003e14:	2180      	movs	r1, #128	; 0x80
 8003e16:	009b      	lsls	r3, r3, #2
 8003e18:	62a3      	str	r3, [r4, #40]	; 0x28
 8003e1a:	69a2      	ldr	r2, [r4, #24]
 8003e1c:	023b      	lsls	r3, r7, #8
 8003e1e:	0049      	lsls	r1, r1, #1
 8003e20:	400b      	ands	r3, r1
 8003e22:	4313      	orrs	r3, r2
 8003e24:	61a3      	str	r3, [r4, #24]
 8003e26:	2340      	movs	r3, #64	; 0x40
 8003e28:	2080      	movs	r0, #128	; 0x80
 8003e2a:	69a1      	ldr	r1, [r4, #24]
 8003e2c:	017a      	lsls	r2, r7, #5
 8003e2e:	4013      	ands	r3, r2
 8003e30:	430b      	orrs	r3, r1
 8003e32:	61a3      	str	r3, [r4, #24]
 8003e34:	69a9      	ldr	r1, [r5, #24]
 8003e36:	033b      	lsls	r3, r7, #12
 8003e38:	01c0      	lsls	r0, r0, #7
 8003e3a:	4003      	ands	r3, r0
 8003e3c:	430b      	orrs	r3, r1
 8003e3e:	2180      	movs	r1, #128	; 0x80
 8003e40:	61ab      	str	r3, [r5, #24]
 8003e42:	69a8      	ldr	r0, [r5, #24]
 8003e44:	027b      	lsls	r3, r7, #9
 8003e46:	0149      	lsls	r1, r1, #5
 8003e48:	4019      	ands	r1, r3
 8003e4a:	4301      	orrs	r1, r0
 8003e4c:	2080      	movs	r0, #128	; 0x80
 8003e4e:	61a9      	str	r1, [r5, #24]
 8003e50:	69a1      	ldr	r1, [r4, #24]
 8003e52:	0080      	lsls	r0, r0, #2
 8003e54:	4002      	ands	r2, r0
 8003e56:	430a      	orrs	r2, r1
 8003e58:	61a2      	str	r2, [r4, #24]
 8003e5a:	2280      	movs	r2, #128	; 0x80
 8003e5c:	69a1      	ldr	r1, [r4, #24]
 8003e5e:	00b8      	lsls	r0, r7, #2
 8003e60:	4002      	ands	r2, r0
 8003e62:	430a      	orrs	r2, r1
 8003e64:	2180      	movs	r1, #128	; 0x80
 8003e66:	61a2      	str	r2, [r4, #24]
 8003e68:	69aa      	ldr	r2, [r5, #24]
 8003e6a:	0209      	lsls	r1, r1, #8
 8003e6c:	400b      	ands	r3, r1
 8003e6e:	4313      	orrs	r3, r2
 8003e70:	2280      	movs	r2, #128	; 0x80
 8003e72:	61ab      	str	r3, [r5, #24]
 8003e74:	69ab      	ldr	r3, [r5, #24]
 8003e76:	0192      	lsls	r2, r2, #6
 8003e78:	01bf      	lsls	r7, r7, #6
 8003e7a:	4017      	ands	r7, r2
 8003e7c:	431f      	orrs	r7, r3
 8003e7e:	61af      	str	r7, [r5, #24]
 8003e80:	2201      	movs	r2, #1
 8003e82:	2110      	movs	r1, #16
 8003e84:	4841      	ldr	r0, [pc, #260]	; (8003f8c <LCD_Init+0x2a8>)
 8003e86:	f7fd fb89 	bl	800159c <HAL_GPIO_WritePin>
 8003e8a:	4653      	mov	r3, sl
 8003e8c:	2b00      	cmp	r3, #0
 8003e8e:	d091      	beq.n	8003db4 <LCD_Init+0xd0>
 8003e90:	2090      	movs	r0, #144	; 0x90
 8003e92:	2201      	movs	r2, #1
 8003e94:	2120      	movs	r1, #32
 8003e96:	05c0      	lsls	r0, r0, #23
 8003e98:	f7fd fb80 	bl	800159c <HAL_GPIO_WritePin>
 8003e9c:	4653      	mov	r3, sl
 8003e9e:	465f      	mov	r7, fp
 8003ea0:	3b01      	subs	r3, #1
 8003ea2:	3603      	adds	r6, #3
 8003ea4:	b2db      	uxtb	r3, r3
 8003ea6:	18f6      	adds	r6, r6, r3
 8003ea8:	9601      	str	r6, [sp, #4]
 8003eaa:	2200      	movs	r2, #0
 8003eac:	2110      	movs	r1, #16
 8003eae:	4837      	ldr	r0, [pc, #220]	; (8003f8c <LCD_Init+0x2a8>)
 8003eb0:	f7fd fb74 	bl	800159c <HAL_GPIO_WritePin>
 8003eb4:	464a      	mov	r2, r9
 8003eb6:	783b      	ldrb	r3, [r7, #0]
 8003eb8:	62aa      	str	r2, [r5, #40]	; 0x28
 8003eba:	22f0      	movs	r2, #240	; 0xf0
 8003ebc:	2080      	movs	r0, #128	; 0x80
 8003ebe:	0092      	lsls	r2, r2, #2
 8003ec0:	62a2      	str	r2, [r4, #40]	; 0x28
 8003ec2:	69a1      	ldr	r1, [r4, #24]
 8003ec4:	021a      	lsls	r2, r3, #8
 8003ec6:	0040      	lsls	r0, r0, #1
 8003ec8:	4002      	ands	r2, r0
 8003eca:	430a      	orrs	r2, r1
 8003ecc:	61a2      	str	r2, [r4, #24]
 8003ece:	2240      	movs	r2, #64	; 0x40
 8003ed0:	2680      	movs	r6, #128	; 0x80
 8003ed2:	69a0      	ldr	r0, [r4, #24]
 8003ed4:	0159      	lsls	r1, r3, #5
 8003ed6:	400a      	ands	r2, r1
 8003ed8:	4302      	orrs	r2, r0
 8003eda:	61a2      	str	r2, [r4, #24]
 8003edc:	69a8      	ldr	r0, [r5, #24]
 8003ede:	031a      	lsls	r2, r3, #12
 8003ee0:	01f6      	lsls	r6, r6, #7
 8003ee2:	4032      	ands	r2, r6
 8003ee4:	4302      	orrs	r2, r0
 8003ee6:	61aa      	str	r2, [r5, #24]
 8003ee8:	69aa      	ldr	r2, [r5, #24]
 8003eea:	2080      	movs	r0, #128	; 0x80
 8003eec:	4694      	mov	ip, r2
 8003eee:	4666      	mov	r6, ip
 8003ef0:	025a      	lsls	r2, r3, #9
 8003ef2:	0140      	lsls	r0, r0, #5
 8003ef4:	4010      	ands	r0, r2
 8003ef6:	4330      	orrs	r0, r6
 8003ef8:	2680      	movs	r6, #128	; 0x80
 8003efa:	61a8      	str	r0, [r5, #24]
 8003efc:	69a0      	ldr	r0, [r4, #24]
 8003efe:	00b6      	lsls	r6, r6, #2
 8003f00:	4031      	ands	r1, r6
 8003f02:	4301      	orrs	r1, r0
 8003f04:	61a1      	str	r1, [r4, #24]
 8003f06:	0099      	lsls	r1, r3, #2
 8003f08:	468c      	mov	ip, r1
 8003f0a:	2180      	movs	r1, #128	; 0x80
 8003f0c:	4666      	mov	r6, ip
 8003f0e:	69a0      	ldr	r0, [r4, #24]
 8003f10:	4031      	ands	r1, r6
 8003f12:	4301      	orrs	r1, r0
 8003f14:	2080      	movs	r0, #128	; 0x80
 8003f16:	61a1      	str	r1, [r4, #24]
 8003f18:	69a9      	ldr	r1, [r5, #24]
 8003f1a:	0200      	lsls	r0, r0, #8
 8003f1c:	4002      	ands	r2, r0
 8003f1e:	430a      	orrs	r2, r1
 8003f20:	2180      	movs	r1, #128	; 0x80
 8003f22:	61aa      	str	r2, [r5, #24]
 8003f24:	69aa      	ldr	r2, [r5, #24]
 8003f26:	0189      	lsls	r1, r1, #6
 8003f28:	019b      	lsls	r3, r3, #6
 8003f2a:	400b      	ands	r3, r1
 8003f2c:	4313      	orrs	r3, r2
 8003f2e:	61ab      	str	r3, [r5, #24]
 8003f30:	2201      	movs	r2, #1
 8003f32:	2110      	movs	r1, #16
 8003f34:	4815      	ldr	r0, [pc, #84]	; (8003f8c <LCD_Init+0x2a8>)
 8003f36:	f7fd fb31 	bl	800159c <HAL_GPIO_WritePin>
 8003f3a:	9b01      	ldr	r3, [sp, #4]
 8003f3c:	3701      	adds	r7, #1
 8003f3e:	42bb      	cmp	r3, r7
 8003f40:	d1b3      	bne.n	8003eaa <LCD_Init+0x1c6>
 8003f42:	e737      	b.n	8003db4 <LCD_Init+0xd0>
 8003f44:	2096      	movs	r0, #150	; 0x96
 8003f46:	f7fd f917 	bl	8001178 <HAL_Delay>
 8003f4a:	7837      	ldrb	r7, [r6, #0]
 8003f4c:	2f00      	cmp	r7, #0
 8003f4e:	d000      	beq.n	8003f52 <LCD_Init+0x26e>
 8003f50:	e741      	b.n	8003dd6 <LCD_Init+0xf2>
 8003f52:	2001      	movs	r0, #1
 8003f54:	f7ff fe0c 	bl	8003b70 <setRotation>
 8003f58:	b003      	add	sp, #12
 8003f5a:	bc3c      	pop	{r2, r3, r4, r5}
 8003f5c:	4690      	mov	r8, r2
 8003f5e:	4699      	mov	r9, r3
 8003f60:	46a2      	mov	sl, r4
 8003f62:	46ab      	mov	fp, r5
 8003f64:	bdf0      	pop	{r4, r5, r6, r7, pc}
 8003f66:	46c0      	nop			; (mov r8, r8)
 8003f68:	20001410 	.word	0x20001410
 8003f6c:	20001490 	.word	0x20001490
 8003f70:	2000148c 	.word	0x2000148c
 8003f74:	20000f7c 	.word	0x20000f7c
 8003f78:	20000f6c 	.word	0x20000f6c
 8003f7c:	200014b2 	.word	0x200014b2
 8003f80:	20000fa8 	.word	0x20000fa8
 8003f84:	20000f80 	.word	0x20000f80
 8003f88:	200014b0 	.word	0x200014b0
 8003f8c:	48000800 	.word	0x48000800
 8003f90:	200014b4 	.word	0x200014b4
 8003f94:	2000148e 	.word	0x2000148e
 8003f98:	20000fb4 	.word	0x20000fb4
 8003f9c:	48000400 	.word	0x48000400
 8003fa0:	08007c48 	.word	0x08007c48

08003fa4 <drawChar>:
 8003fa4:	b5f0      	push	{r4, r5, r6, r7, lr}
 8003fa6:	4657      	mov	r7, sl
 8003fa8:	46de      	mov	lr, fp
 8003faa:	464e      	mov	r6, r9
 8003fac:	4645      	mov	r5, r8
 8003fae:	b5e0      	push	{r5, r6, r7, lr}
 8003fb0:	b091      	sub	sp, #68	; 0x44
 8003fb2:	469b      	mov	fp, r3
 8003fb4:	ab1a      	add	r3, sp, #104	; 0x68
 8003fb6:	881b      	ldrh	r3, [r3, #0]
 8003fb8:	910a      	str	r1, [sp, #40]	; 0x28
 8003fba:	469a      	mov	sl, r3
 8003fbc:	ab1b      	add	r3, sp, #108	; 0x6c
 8003fbe:	781f      	ldrb	r7, [r3, #0]
 8003fc0:	ab1c      	add	r3, sp, #112	; 0x70
 8003fc2:	781b      	ldrb	r3, [r3, #0]
 8003fc4:	4699      	mov	r9, r3
 8003fc6:	4b81      	ldr	r3, [pc, #516]	; (80041cc <drawChar+0x228>)
 8003fc8:	2400      	movs	r4, #0
 8003fca:	5f1b      	ldrsh	r3, [r3, r4]
 8003fcc:	4283      	cmp	r3, r0
 8003fce:	dc00      	bgt.n	8003fd2 <drawChar+0x2e>
 8003fd0:	e086      	b.n	80040e0 <drawChar+0x13c>
 8003fd2:	4b7f      	ldr	r3, [pc, #508]	; (80041d0 <drawChar+0x22c>)
 8003fd4:	2400      	movs	r4, #0
 8003fd6:	5f1b      	ldrsh	r3, [r3, r4]
 8003fd8:	428b      	cmp	r3, r1
 8003fda:	dc00      	bgt.n	8003fde <drawChar+0x3a>
 8003fdc:	e080      	b.n	80040e0 <drawChar+0x13c>
 8003fde:	007b      	lsls	r3, r7, #1
 8003fe0:	19db      	adds	r3, r3, r7
 8003fe2:	005b      	lsls	r3, r3, #1
 8003fe4:	181b      	adds	r3, r3, r0
 8003fe6:	2b00      	cmp	r3, #0
 8003fe8:	dd7a      	ble.n	80040e0 <drawChar+0x13c>
 8003fea:	464b      	mov	r3, r9
 8003fec:	00dc      	lsls	r4, r3, #3
 8003fee:	46a4      	mov	ip, r4
 8003ff0:	4461      	add	r1, ip
 8003ff2:	940e      	str	r4, [sp, #56]	; 0x38
 8003ff4:	2900      	cmp	r1, #0
 8003ff6:	dd73      	ble.n	80040e0 <drawChar+0x13c>
 8003ff8:	4b76      	ldr	r3, [pc, #472]	; (80041d4 <drawChar+0x230>)
 8003ffa:	781b      	ldrb	r3, [r3, #0]
 8003ffc:	2b00      	cmp	r3, #0
 8003ffe:	d102      	bne.n	8004006 <drawChar+0x62>
 8004000:	2aaf      	cmp	r2, #175	; 0xaf
 8004002:	d900      	bls.n	8004006 <drawChar+0x62>
 8004004:	e0b8      	b.n	8004178 <drawChar+0x1d4>
 8004006:	b23b      	sxth	r3, r7
 8004008:	9303      	str	r3, [sp, #12]
 800400a:	b2bb      	uxth	r3, r7
 800400c:	930d      	str	r3, [sp, #52]	; 0x34
 800400e:	0093      	lsls	r3, r2, #2
 8004010:	189a      	adds	r2, r3, r2
 8004012:	4b71      	ldr	r3, [pc, #452]	; (80041d8 <drawChar+0x234>)
 8004014:	b281      	uxth	r1, r0
 8004016:	18d3      	adds	r3, r2, r3
 8004018:	1d48      	adds	r0, r1, #5
 800401a:	b282      	uxth	r2, r0
 800401c:	9308      	str	r3, [sp, #32]
 800401e:	466b      	mov	r3, sp
 8004020:	920c      	str	r2, [sp, #48]	; 0x30
 8004022:	464a      	mov	r2, r9
 8004024:	46b8      	mov	r8, r7
 8004026:	8d1b      	ldrh	r3, [r3, #40]	; 0x28
 8004028:	b212      	sxth	r2, r2
 800402a:	910f      	str	r1, [sp, #60]	; 0x3c
 800402c:	9204      	str	r2, [sp, #16]
 800402e:	9106      	str	r1, [sp, #24]
 8004030:	9107      	str	r1, [sp, #28]
 8004032:	9305      	str	r3, [sp, #20]
 8004034:	9b08      	ldr	r3, [sp, #32]
 8004036:	2408      	movs	r4, #8
 8004038:	781e      	ldrb	r6, [r3, #0]
 800403a:	466b      	mov	r3, sp
 800403c:	221c      	movs	r2, #28
 800403e:	5e9b      	ldrsh	r3, [r3, r2]
 8004040:	2500      	movs	r5, #0
 8004042:	9309      	str	r3, [sp, #36]	; 0x24
 8004044:	466b      	mov	r3, sp
 8004046:	2218      	movs	r2, #24
 8004048:	5e9b      	ldrsh	r3, [r3, r2]
 800404a:	2701      	movs	r7, #1
 800404c:	930b      	str	r3, [sp, #44]	; 0x2c
 800404e:	e00d      	b.n	800406c <drawChar+0xc8>
 8004050:	4643      	mov	r3, r8
 8004052:	b2a9      	uxth	r1, r5
 8004054:	2b01      	cmp	r3, #1
 8004056:	d055      	beq.n	8004104 <drawChar+0x160>
 8004058:	9b03      	ldr	r3, [sp, #12]
 800405a:	2b00      	cmp	r3, #0
 800405c:	d147      	bne.n	80040ee <drawChar+0x14a>
 800405e:	3c01      	subs	r4, #1
 8004060:	3501      	adds	r5, #1
 8004062:	b2e4      	uxtb	r4, r4
 8004064:	b26d      	sxtb	r5, r5
 8004066:	0876      	lsrs	r6, r6, #1
 8004068:	2c00      	cmp	r4, #0
 800406a:	d021      	beq.n	80040b0 <drawChar+0x10c>
 800406c:	4237      	tst	r7, r6
 800406e:	d1ef      	bne.n	8004050 <drawChar+0xac>
 8004070:	45da      	cmp	sl, fp
 8004072:	d0f4      	beq.n	800405e <drawChar+0xba>
 8004074:	4643      	mov	r3, r8
 8004076:	b2a9      	uxth	r1, r5
 8004078:	2b01      	cmp	r3, #1
 800407a:	d05e      	beq.n	800413a <drawChar+0x196>
 800407c:	9b03      	ldr	r3, [sp, #12]
 800407e:	2b00      	cmp	r3, #0
 8004080:	d0ed      	beq.n	800405e <drawChar+0xba>
 8004082:	464b      	mov	r3, r9
 8004084:	4359      	muls	r1, r3
 8004086:	9b05      	ldr	r3, [sp, #20]
 8004088:	469c      	mov	ip, r3
 800408a:	9b04      	ldr	r3, [sp, #16]
 800408c:	4461      	add	r1, ip
 800408e:	b209      	sxth	r1, r1
 8004090:	2b00      	cmp	r3, #0
 8004092:	d0e4      	beq.n	800405e <drawChar+0xba>
 8004094:	4653      	mov	r3, sl
 8004096:	3c01      	subs	r4, #1
 8004098:	9300      	str	r3, [sp, #0]
 800409a:	9a03      	ldr	r2, [sp, #12]
 800409c:	9b04      	ldr	r3, [sp, #16]
 800409e:	9809      	ldr	r0, [sp, #36]	; 0x24
 80040a0:	3501      	adds	r5, #1
 80040a2:	b2e4      	uxtb	r4, r4
 80040a4:	f7ff fb2a 	bl	80036fc <fillRect.part.1>
 80040a8:	b26d      	sxtb	r5, r5
 80040aa:	0876      	lsrs	r6, r6, #1
 80040ac:	2c00      	cmp	r4, #0
 80040ae:	d1dd      	bne.n	800406c <drawChar+0xc8>
 80040b0:	9a0d      	ldr	r2, [sp, #52]	; 0x34
 80040b2:	9b08      	ldr	r3, [sp, #32]
 80040b4:	4694      	mov	ip, r2
 80040b6:	3301      	adds	r3, #1
 80040b8:	9308      	str	r3, [sp, #32]
 80040ba:	9b07      	ldr	r3, [sp, #28]
 80040bc:	9a0c      	ldr	r2, [sp, #48]	; 0x30
 80040be:	4463      	add	r3, ip
 80040c0:	b29b      	uxth	r3, r3
 80040c2:	9307      	str	r3, [sp, #28]
 80040c4:	9b06      	ldr	r3, [sp, #24]
 80040c6:	3301      	adds	r3, #1
 80040c8:	b29b      	uxth	r3, r3
 80040ca:	9306      	str	r3, [sp, #24]
 80040cc:	429a      	cmp	r2, r3
 80040ce:	d1b1      	bne.n	8004034 <drawChar+0x90>
 80040d0:	4647      	mov	r7, r8
 80040d2:	45da      	cmp	sl, fp
 80040d4:	d004      	beq.n	80040e0 <drawChar+0x13c>
 80040d6:	2f01      	cmp	r7, #1
 80040d8:	d065      	beq.n	80041a6 <drawChar+0x202>
 80040da:	9b03      	ldr	r3, [sp, #12]
 80040dc:	2b00      	cmp	r3, #0
 80040de:	d14e      	bne.n	800417e <drawChar+0x1da>
 80040e0:	b011      	add	sp, #68	; 0x44
 80040e2:	bc3c      	pop	{r2, r3, r4, r5}
 80040e4:	4690      	mov	r8, r2
 80040e6:	4699      	mov	r9, r3
 80040e8:	46a2      	mov	sl, r4
 80040ea:	46ab      	mov	fp, r5
 80040ec:	bdf0      	pop	{r4, r5, r6, r7, pc}
 80040ee:	464b      	mov	r3, r9
 80040f0:	4359      	muls	r1, r3
 80040f2:	9b05      	ldr	r3, [sp, #20]
 80040f4:	469c      	mov	ip, r3
 80040f6:	9b04      	ldr	r3, [sp, #16]
 80040f8:	4461      	add	r1, ip
 80040fa:	b209      	sxth	r1, r1
 80040fc:	2b00      	cmp	r3, #0
 80040fe:	d0ae      	beq.n	800405e <drawChar+0xba>
 8004100:	465b      	mov	r3, fp
 8004102:	e7c8      	b.n	8004096 <drawChar+0xf2>
 8004104:	464b      	mov	r3, r9
 8004106:	2b01      	cmp	r3, #1
 8004108:	d1f1      	bne.n	80040ee <drawChar+0x14a>
 800410a:	9a0b      	ldr	r2, [sp, #44]	; 0x2c
 800410c:	2a00      	cmp	r2, #0
 800410e:	dba6      	blt.n	800405e <drawChar+0xba>
 8004110:	4b2e      	ldr	r3, [pc, #184]	; (80041cc <drawChar+0x228>)
 8004112:	2000      	movs	r0, #0
 8004114:	5e1b      	ldrsh	r3, [r3, r0]
 8004116:	4293      	cmp	r3, r2
 8004118:	dda1      	ble.n	800405e <drawChar+0xba>
 800411a:	9b05      	ldr	r3, [sp, #20]
 800411c:	469c      	mov	ip, r3
 800411e:	4461      	add	r1, ip
 8004120:	b209      	sxth	r1, r1
 8004122:	2900      	cmp	r1, #0
 8004124:	db9b      	blt.n	800405e <drawChar+0xba>
 8004126:	4b2a      	ldr	r3, [pc, #168]	; (80041d0 <drawChar+0x22c>)
 8004128:	2200      	movs	r2, #0
 800412a:	5e9b      	ldrsh	r3, [r3, r2]
 800412c:	428b      	cmp	r3, r1
 800412e:	dd96      	ble.n	800405e <drawChar+0xba>
 8004130:	465a      	mov	r2, fp
 8004132:	980b      	ldr	r0, [sp, #44]	; 0x2c
 8004134:	f7ff f9ea 	bl	800350c <writePixel.part.0>
 8004138:	e791      	b.n	800405e <drawChar+0xba>
 800413a:	464b      	mov	r3, r9
 800413c:	2b01      	cmp	r3, #1
 800413e:	d1a0      	bne.n	8004082 <drawChar+0xde>
 8004140:	9a0b      	ldr	r2, [sp, #44]	; 0x2c
 8004142:	2a00      	cmp	r2, #0
 8004144:	da00      	bge.n	8004148 <drawChar+0x1a4>
 8004146:	e78a      	b.n	800405e <drawChar+0xba>
 8004148:	4b20      	ldr	r3, [pc, #128]	; (80041cc <drawChar+0x228>)
 800414a:	2000      	movs	r0, #0
 800414c:	5e1b      	ldrsh	r3, [r3, r0]
 800414e:	4293      	cmp	r3, r2
 8004150:	dc00      	bgt.n	8004154 <drawChar+0x1b0>
 8004152:	e784      	b.n	800405e <drawChar+0xba>
 8004154:	9b05      	ldr	r3, [sp, #20]
 8004156:	469c      	mov	ip, r3
 8004158:	4461      	add	r1, ip
 800415a:	b209      	sxth	r1, r1
 800415c:	2900      	cmp	r1, #0
 800415e:	da00      	bge.n	8004162 <drawChar+0x1be>
 8004160:	e77d      	b.n	800405e <drawChar+0xba>
 8004162:	4b1b      	ldr	r3, [pc, #108]	; (80041d0 <drawChar+0x22c>)
 8004164:	2200      	movs	r2, #0
 8004166:	5e9b      	ldrsh	r3, [r3, r2]
 8004168:	428b      	cmp	r3, r1
 800416a:	dc00      	bgt.n	800416e <drawChar+0x1ca>
 800416c:	e777      	b.n	800405e <drawChar+0xba>
 800416e:	4652      	mov	r2, sl
 8004170:	980b      	ldr	r0, [sp, #44]	; 0x2c
 8004172:	f7ff f9cb 	bl	800350c <writePixel.part.0>
 8004176:	e772      	b.n	800405e <drawChar+0xba>
 8004178:	3201      	adds	r2, #1
 800417a:	b2d2      	uxtb	r2, r2
 800417c:	e743      	b.n	8004006 <drawChar+0x62>
 800417e:	9b0d      	ldr	r3, [sp, #52]	; 0x34
 8004180:	469c      	mov	ip, r3
 8004182:	0098      	lsls	r0, r3, #2
 8004184:	9b0f      	ldr	r3, [sp, #60]	; 0x3c
 8004186:	4460      	add	r0, ip
 8004188:	469c      	mov	ip, r3
 800418a:	466b      	mov	r3, sp
 800418c:	8f1a      	ldrh	r2, [r3, #56]	; 0x38
 800418e:	4460      	add	r0, ip
 8004190:	b200      	sxth	r0, r0
 8004192:	b213      	sxth	r3, r2
 8004194:	2a00      	cmp	r2, #0
 8004196:	d0a3      	beq.n	80040e0 <drawChar+0x13c>
 8004198:	4652      	mov	r2, sl
 800419a:	990a      	ldr	r1, [sp, #40]	; 0x28
 800419c:	9200      	str	r2, [sp, #0]
 800419e:	9a03      	ldr	r2, [sp, #12]
 80041a0:	f7ff faac 	bl	80036fc <fillRect.part.1>
 80041a4:	e79c      	b.n	80040e0 <drawChar+0x13c>
 80041a6:	464b      	mov	r3, r9
 80041a8:	2b01      	cmp	r3, #1
 80041aa:	d006      	beq.n	80041ba <drawChar+0x216>
 80041ac:	466b      	mov	r3, sp
 80041ae:	2030      	movs	r0, #48	; 0x30
 80041b0:	5e18      	ldrsh	r0, [r3, r0]
 80041b2:	466b      	mov	r3, sp
 80041b4:	8f1a      	ldrh	r2, [r3, #56]	; 0x38
 80041b6:	b213      	sxth	r3, r2
 80041b8:	e7ec      	b.n	8004194 <drawChar+0x1f0>
 80041ba:	466b      	mov	r3, sp
 80041bc:	2208      	movs	r2, #8
 80041be:	2030      	movs	r0, #48	; 0x30
 80041c0:	5e18      	ldrsh	r0, [r3, r0]
 80041c2:	990a      	ldr	r1, [sp, #40]	; 0x28
 80041c4:	4653      	mov	r3, sl
 80041c6:	f7ff fc55 	bl	8003a74 <drawFastVLine>
 80041ca:	e789      	b.n	80040e0 <drawChar+0x13c>
 80041cc:	20001410 	.word	0x20001410
 80041d0:	20001490 	.word	0x20001490
 80041d4:	20000fb4 	.word	0x20000fb4
 80041d8:	08007748 	.word	0x08007748

080041dc <LCD_draw_text_helper>:
 80041dc:	b5f0      	push	{r4, r5, r6, r7, lr}
 80041de:	4645      	mov	r5, r8
 80041e0:	46de      	mov	lr, fp
 80041e2:	4657      	mov	r7, sl
 80041e4:	464e      	mov	r6, r9
 80041e6:	b5e0      	push	{r5, r6, r7, lr}
 80041e8:	b091      	sub	sp, #68	; 0x44
 80041ea:	000c      	movs	r4, r1
 80041ec:	a91a      	add	r1, sp, #104	; 0x68
 80041ee:	7809      	ldrb	r1, [r1, #0]
 80041f0:	0005      	movs	r5, r0
 80041f2:	a81b      	add	r0, sp, #108	; 0x6c
 80041f4:	8800      	ldrh	r0, [r0, #0]
 80041f6:	2900      	cmp	r1, #0
 80041f8:	d100      	bne.n	80041fc <LCD_draw_text_helper+0x20>
 80041fa:	3101      	adds	r1, #1
 80041fc:	4eca      	ldr	r6, [pc, #808]	; (8004528 <LCD_draw_text_helper+0x34c>)
 80041fe:	7031      	strb	r1, [r6, #0]
 8004200:	4eca      	ldr	r6, [pc, #808]	; (800452c <LCD_draw_text_helper+0x350>)
 8004202:	7031      	strb	r1, [r6, #0]
 8004204:	49ca      	ldr	r1, [pc, #808]	; (8004530 <LCD_draw_text_helper+0x354>)
 8004206:	8008      	strh	r0, [r1, #0]
 8004208:	49ca      	ldr	r1, [pc, #808]	; (8004534 <LCD_draw_text_helper+0x358>)
 800420a:	8008      	strh	r0, [r1, #0]
 800420c:	49ca      	ldr	r1, [pc, #808]	; (8004538 <LCD_draw_text_helper+0x35c>)
 800420e:	48cb      	ldr	r0, [pc, #812]	; (800453c <LCD_draw_text_helper+0x360>)
 8004210:	800a      	strh	r2, [r1, #0]
 8004212:	4acb      	ldr	r2, [pc, #812]	; (8004540 <LCD_draw_text_helper+0x364>)
 8004214:	0029      	movs	r1, r5
 8004216:	8013      	strh	r3, [r2, #0]
 8004218:	f003 f9d7 	bl	80075ca <strcpy>
 800421c:	2c00      	cmp	r4, #0
 800421e:	d100      	bne.n	8004222 <LCD_draw_text_helper+0x46>
 8004220:	e0dc      	b.n	80043dc <LCD_draw_text_helper+0x200>
 8004222:	46ab      	mov	fp, r5
 8004224:	3c01      	subs	r4, #1
 8004226:	b2e4      	uxtb	r4, r4
 8004228:	445c      	add	r4, fp
 800422a:	1c63      	adds	r3, r4, #1
 800422c:	9306      	str	r3, [sp, #24]
 800422e:	465b      	mov	r3, fp
 8004230:	781b      	ldrb	r3, [r3, #0]
 8004232:	2b0a      	cmp	r3, #10
 8004234:	d100      	bne.n	8004238 <LCD_draw_text_helper+0x5c>
 8004236:	e0d8      	b.n	80043ea <LCD_draw_text_helper+0x20e>
 8004238:	2b0d      	cmp	r3, #13
 800423a:	d100      	bne.n	800423e <LCD_draw_text_helper+0x62>
 800423c:	e0c7      	b.n	80043ce <LCD_draw_text_helper+0x1f2>
 800423e:	4abe      	ldr	r2, [pc, #760]	; (8004538 <LCD_draw_text_helper+0x35c>)
 8004240:	2100      	movs	r1, #0
 8004242:	5e52      	ldrsh	r2, [r2, r1]
 8004244:	49bf      	ldr	r1, [pc, #764]	; (8004544 <LCD_draw_text_helper+0x368>)
 8004246:	2400      	movs	r4, #0
 8004248:	5f0c      	ldrsh	r4, [r1, r4]
 800424a:	49b7      	ldr	r1, [pc, #732]	; (8004528 <LCD_draw_text_helper+0x34c>)
 800424c:	780f      	ldrb	r7, [r1, #0]
 800424e:	49b7      	ldr	r1, [pc, #732]	; (800452c <LCD_draw_text_helper+0x350>)
 8004250:	7809      	ldrb	r1, [r1, #0]
 8004252:	468a      	mov	sl, r1
 8004254:	49ba      	ldr	r1, [pc, #744]	; (8004540 <LCD_draw_text_helper+0x364>)
 8004256:	2000      	movs	r0, #0
 8004258:	5e09      	ldrsh	r1, [r1, r0]
 800425a:	9108      	str	r1, [sp, #32]
 800425c:	49ba      	ldr	r1, [pc, #744]	; (8004548 <LCD_draw_text_helper+0x36c>)
 800425e:	7809      	ldrb	r1, [r1, #0]
 8004260:	2900      	cmp	r1, #0
 8004262:	d000      	beq.n	8004266 <LCD_draw_text_helper+0x8a>
 8004264:	e0cd      	b.n	8004402 <LCD_draw_text_helper+0x226>
 8004266:	b291      	uxth	r1, r2
 8004268:	9104      	str	r1, [sp, #16]
 800426a:	0078      	lsls	r0, r7, #1
 800426c:	4294      	cmp	r4, r2
 800426e:	dc00      	bgt.n	8004272 <LCD_draw_text_helper+0x96>
 8004270:	e0a6      	b.n	80043c0 <LCD_draw_text_helper+0x1e4>
 8004272:	49b6      	ldr	r1, [pc, #728]	; (800454c <LCD_draw_text_helper+0x370>)
 8004274:	2400      	movs	r4, #0
 8004276:	5f09      	ldrsh	r1, [r1, r4]
 8004278:	9c08      	ldr	r4, [sp, #32]
 800427a:	42a1      	cmp	r1, r4
 800427c:	dc00      	bgt.n	8004280 <LCD_draw_text_helper+0xa4>
 800427e:	e09f      	b.n	80043c0 <LCD_draw_text_helper+0x1e4>
 8004280:	19c1      	adds	r1, r0, r7
 8004282:	0049      	lsls	r1, r1, #1
 8004284:	188a      	adds	r2, r1, r2
 8004286:	2a00      	cmp	r2, #0
 8004288:	dc00      	bgt.n	800428c <LCD_draw_text_helper+0xb0>
 800428a:	e099      	b.n	80043c0 <LCD_draw_text_helper+0x1e4>
 800428c:	4652      	mov	r2, sl
 800428e:	00d1      	lsls	r1, r2, #3
 8004290:	468c      	mov	ip, r1
 8004292:	4464      	add	r4, ip
 8004294:	910f      	str	r1, [sp, #60]	; 0x3c
 8004296:	2c00      	cmp	r4, #0
 8004298:	dc00      	bgt.n	800429c <LCD_draw_text_helper+0xc0>
 800429a:	e091      	b.n	80043c0 <LCD_draw_text_helper+0x1e4>
 800429c:	4aac      	ldr	r2, [pc, #688]	; (8004550 <LCD_draw_text_helper+0x374>)
 800429e:	7812      	ldrb	r2, [r2, #0]
 80042a0:	2a00      	cmp	r2, #0
 80042a2:	d100      	bne.n	80042a6 <LCD_draw_text_helper+0xca>
 80042a4:	e110      	b.n	80044c8 <LCD_draw_text_helper+0x2ec>
 80042a6:	4aa3      	ldr	r2, [pc, #652]	; (8004534 <LCD_draw_text_helper+0x358>)
 80042a8:	2100      	movs	r1, #0
 80042aa:	8812      	ldrh	r2, [r2, #0]
 80042ac:	46b8      	mov	r8, r7
 80042ae:	9202      	str	r2, [sp, #8]
 80042b0:	4a9f      	ldr	r2, [pc, #636]	; (8004530 <LCD_draw_text_helper+0x354>)
 80042b2:	8812      	ldrh	r2, [r2, #0]
 80042b4:	9203      	str	r2, [sp, #12]
 80042b6:	009a      	lsls	r2, r3, #2
 80042b8:	18d3      	adds	r3, r2, r3
 80042ba:	b23a      	sxth	r2, r7
 80042bc:	4691      	mov	r9, r2
 80042be:	b2ba      	uxth	r2, r7
 80042c0:	920c      	str	r2, [sp, #48]	; 0x30
 80042c2:	4652      	mov	r2, sl
 80042c4:	b212      	sxth	r2, r2
 80042c6:	9205      	str	r2, [sp, #20]
 80042c8:	9a04      	ldr	r2, [sp, #16]
 80042ca:	9209      	str	r2, [sp, #36]	; 0x24
 80042cc:	4aa1      	ldr	r2, [pc, #644]	; (8004554 <LCD_draw_text_helper+0x378>)
 80042ce:	18d3      	adds	r3, r2, r3
 80042d0:	930d      	str	r3, [sp, #52]	; 0x34
 80042d2:	466b      	mov	r3, sp
 80042d4:	8c1b      	ldrh	r3, [r3, #32]
 80042d6:	9307      	str	r3, [sp, #28]
 80042d8:	465b      	mov	r3, fp
 80042da:	468b      	mov	fp, r1
 80042dc:	930e      	str	r3, [sp, #56]	; 0x38
 80042de:	465a      	mov	r2, fp
 80042e0:	9b0d      	ldr	r3, [sp, #52]	; 0x34
 80042e2:	2408      	movs	r4, #8
 80042e4:	5c9e      	ldrb	r6, [r3, r2]
 80042e6:	466b      	mov	r3, sp
 80042e8:	2224      	movs	r2, #36	; 0x24
 80042ea:	5e9b      	ldrsh	r3, [r3, r2]
 80042ec:	2500      	movs	r5, #0
 80042ee:	930a      	str	r3, [sp, #40]	; 0x28
 80042f0:	9b04      	ldr	r3, [sp, #16]
 80042f2:	2701      	movs	r7, #1
 80042f4:	445b      	add	r3, fp
 80042f6:	b21b      	sxth	r3, r3
 80042f8:	930b      	str	r3, [sp, #44]	; 0x2c
 80042fa:	e00f      	b.n	800431c <LCD_draw_text_helper+0x140>
 80042fc:	4643      	mov	r3, r8
 80042fe:	b2a9      	uxth	r1, r5
 8004300:	2b01      	cmp	r3, #1
 8004302:	d100      	bne.n	8004306 <LCD_draw_text_helper+0x12a>
 8004304:	e0a1      	b.n	800444a <LCD_draw_text_helper+0x26e>
 8004306:	464b      	mov	r3, r9
 8004308:	2b00      	cmp	r3, #0
 800430a:	d000      	beq.n	800430e <LCD_draw_text_helper+0x132>
 800430c:	e091      	b.n	8004432 <LCD_draw_text_helper+0x256>
 800430e:	3c01      	subs	r4, #1
 8004310:	3501      	adds	r5, #1
 8004312:	b2e4      	uxtb	r4, r4
 8004314:	b26d      	sxtb	r5, r5
 8004316:	0876      	lsrs	r6, r6, #1
 8004318:	2c00      	cmp	r4, #0
 800431a:	d024      	beq.n	8004366 <LCD_draw_text_helper+0x18a>
 800431c:	4237      	tst	r7, r6
 800431e:	d1ed      	bne.n	80042fc <LCD_draw_text_helper+0x120>
 8004320:	9b02      	ldr	r3, [sp, #8]
 8004322:	9a03      	ldr	r2, [sp, #12]
 8004324:	4293      	cmp	r3, r2
 8004326:	d0f2      	beq.n	800430e <LCD_draw_text_helper+0x132>
 8004328:	4643      	mov	r3, r8
 800432a:	b2a9      	uxth	r1, r5
 800432c:	2b01      	cmp	r3, #1
 800432e:	d100      	bne.n	8004332 <LCD_draw_text_helper+0x156>
 8004330:	e0aa      	b.n	8004488 <LCD_draw_text_helper+0x2ac>
 8004332:	464b      	mov	r3, r9
 8004334:	2b00      	cmp	r3, #0
 8004336:	d0ea      	beq.n	800430e <LCD_draw_text_helper+0x132>
 8004338:	4653      	mov	r3, sl
 800433a:	4359      	muls	r1, r3
 800433c:	9b07      	ldr	r3, [sp, #28]
 800433e:	469c      	mov	ip, r3
 8004340:	9b05      	ldr	r3, [sp, #20]
 8004342:	4461      	add	r1, ip
 8004344:	b209      	sxth	r1, r1
 8004346:	2b00      	cmp	r3, #0
 8004348:	d0e1      	beq.n	800430e <LCD_draw_text_helper+0x132>
 800434a:	9b03      	ldr	r3, [sp, #12]
 800434c:	3c01      	subs	r4, #1
 800434e:	9300      	str	r3, [sp, #0]
 8004350:	464a      	mov	r2, r9
 8004352:	9b05      	ldr	r3, [sp, #20]
 8004354:	980a      	ldr	r0, [sp, #40]	; 0x28
 8004356:	3501      	adds	r5, #1
 8004358:	b2e4      	uxtb	r4, r4
 800435a:	f7ff f9cf 	bl	80036fc <fillRect.part.1>
 800435e:	b26d      	sxtb	r5, r5
 8004360:	0876      	lsrs	r6, r6, #1
 8004362:	2c00      	cmp	r4, #0
 8004364:	d1da      	bne.n	800431c <LCD_draw_text_helper+0x140>
 8004366:	2301      	movs	r3, #1
 8004368:	469c      	mov	ip, r3
 800436a:	9a0c      	ldr	r2, [sp, #48]	; 0x30
 800436c:	44e3      	add	fp, ip
 800436e:	4694      	mov	ip, r2
 8004370:	9b09      	ldr	r3, [sp, #36]	; 0x24
 8004372:	4463      	add	r3, ip
 8004374:	b29b      	uxth	r3, r3
 8004376:	9309      	str	r3, [sp, #36]	; 0x24
 8004378:	465b      	mov	r3, fp
 800437a:	2b05      	cmp	r3, #5
 800437c:	d1af      	bne.n	80042de <LCD_draw_text_helper+0x102>
 800437e:	9b0e      	ldr	r3, [sp, #56]	; 0x38
 8004380:	9a03      	ldr	r2, [sp, #12]
 8004382:	469b      	mov	fp, r3
 8004384:	9b02      	ldr	r3, [sp, #8]
 8004386:	4647      	mov	r7, r8
 8004388:	4293      	cmp	r3, r2
 800438a:	d013      	beq.n	80043b4 <LCD_draw_text_helper+0x1d8>
 800438c:	2f01      	cmp	r7, #1
 800438e:	d100      	bne.n	8004392 <LCD_draw_text_helper+0x1b6>
 8004390:	e0a0      	b.n	80044d4 <LCD_draw_text_helper+0x2f8>
 8004392:	464b      	mov	r3, r9
 8004394:	2b00      	cmp	r3, #0
 8004396:	d00d      	beq.n	80043b4 <LCD_draw_text_helper+0x1d8>
 8004398:	9b0c      	ldr	r3, [sp, #48]	; 0x30
 800439a:	469c      	mov	ip, r3
 800439c:	0098      	lsls	r0, r3, #2
 800439e:	9b04      	ldr	r3, [sp, #16]
 80043a0:	4460      	add	r0, ip
 80043a2:	469c      	mov	ip, r3
 80043a4:	466b      	mov	r3, sp
 80043a6:	8f9a      	ldrh	r2, [r3, #60]	; 0x3c
 80043a8:	4460      	add	r0, ip
 80043aa:	b200      	sxth	r0, r0
 80043ac:	b213      	sxth	r3, r2
 80043ae:	2a00      	cmp	r2, #0
 80043b0:	d000      	beq.n	80043b4 <LCD_draw_text_helper+0x1d8>
 80043b2:	e099      	b.n	80044e8 <LCD_draw_text_helper+0x30c>
 80043b4:	4b5c      	ldr	r3, [pc, #368]	; (8004528 <LCD_draw_text_helper+0x34c>)
 80043b6:	781f      	ldrb	r7, [r3, #0]
 80043b8:	4b5f      	ldr	r3, [pc, #380]	; (8004538 <LCD_draw_text_helper+0x35c>)
 80043ba:	0078      	lsls	r0, r7, #1
 80043bc:	881b      	ldrh	r3, [r3, #0]
 80043be:	9304      	str	r3, [sp, #16]
 80043c0:	9b04      	ldr	r3, [sp, #16]
 80043c2:	183f      	adds	r7, r7, r0
 80043c4:	469c      	mov	ip, r3
 80043c6:	007f      	lsls	r7, r7, #1
 80043c8:	4b5b      	ldr	r3, [pc, #364]	; (8004538 <LCD_draw_text_helper+0x35c>)
 80043ca:	4467      	add	r7, ip
 80043cc:	801f      	strh	r7, [r3, #0]
 80043ce:	2301      	movs	r3, #1
 80043d0:	469c      	mov	ip, r3
 80043d2:	9b06      	ldr	r3, [sp, #24]
 80043d4:	44e3      	add	fp, ip
 80043d6:	455b      	cmp	r3, fp
 80043d8:	d000      	beq.n	80043dc <LCD_draw_text_helper+0x200>
 80043da:	e728      	b.n	800422e <LCD_draw_text_helper+0x52>
 80043dc:	b011      	add	sp, #68	; 0x44
 80043de:	bc3c      	pop	{r2, r3, r4, r5}
 80043e0:	4690      	mov	r8, r2
 80043e2:	4699      	mov	r9, r3
 80043e4:	46a2      	mov	sl, r4
 80043e6:	46ab      	mov	fp, r5
 80043e8:	bdf0      	pop	{r4, r5, r6, r7, pc}
 80043ea:	2300      	movs	r3, #0
 80043ec:	4a52      	ldr	r2, [pc, #328]	; (8004538 <LCD_draw_text_helper+0x35c>)
 80043ee:	8013      	strh	r3, [r2, #0]
 80043f0:	4b4e      	ldr	r3, [pc, #312]	; (800452c <LCD_draw_text_helper+0x350>)
 80043f2:	4a53      	ldr	r2, [pc, #332]	; (8004540 <LCD_draw_text_helper+0x364>)
 80043f4:	781b      	ldrb	r3, [r3, #0]
 80043f6:	8812      	ldrh	r2, [r2, #0]
 80043f8:	00db      	lsls	r3, r3, #3
 80043fa:	189b      	adds	r3, r3, r2
 80043fc:	4a50      	ldr	r2, [pc, #320]	; (8004540 <LCD_draw_text_helper+0x364>)
 80043fe:	8013      	strh	r3, [r2, #0]
 8004400:	e7e5      	b.n	80043ce <LCD_draw_text_helper+0x1f2>
 8004402:	0078      	lsls	r0, r7, #1
 8004404:	19c1      	adds	r1, r0, r7
 8004406:	0049      	lsls	r1, r1, #1
 8004408:	1889      	adds	r1, r1, r2
 800440a:	42a1      	cmp	r1, r4
 800440c:	dc02      	bgt.n	8004414 <LCD_draw_text_helper+0x238>
 800440e:	b291      	uxth	r1, r2
 8004410:	9104      	str	r1, [sp, #16]
 8004412:	e72b      	b.n	800426c <LCD_draw_text_helper+0x90>
 8004414:	2200      	movs	r2, #0
 8004416:	4948      	ldr	r1, [pc, #288]	; (8004538 <LCD_draw_text_helper+0x35c>)
 8004418:	800a      	strh	r2, [r1, #0]
 800441a:	9908      	ldr	r1, [sp, #32]
 800441c:	4652      	mov	r2, sl
 800441e:	468c      	mov	ip, r1
 8004420:	00d2      	lsls	r2, r2, #3
 8004422:	4462      	add	r2, ip
 8004424:	4946      	ldr	r1, [pc, #280]	; (8004540 <LCD_draw_text_helper+0x364>)
 8004426:	b212      	sxth	r2, r2
 8004428:	9208      	str	r2, [sp, #32]
 800442a:	800a      	strh	r2, [r1, #0]
 800442c:	2200      	movs	r2, #0
 800442e:	9204      	str	r2, [sp, #16]
 8004430:	e71c      	b.n	800426c <LCD_draw_text_helper+0x90>
 8004432:	4653      	mov	r3, sl
 8004434:	4359      	muls	r1, r3
 8004436:	9b07      	ldr	r3, [sp, #28]
 8004438:	469c      	mov	ip, r3
 800443a:	9b05      	ldr	r3, [sp, #20]
 800443c:	4461      	add	r1, ip
 800443e:	b209      	sxth	r1, r1
 8004440:	2b00      	cmp	r3, #0
 8004442:	d100      	bne.n	8004446 <LCD_draw_text_helper+0x26a>
 8004444:	e763      	b.n	800430e <LCD_draw_text_helper+0x132>
 8004446:	9b02      	ldr	r3, [sp, #8]
 8004448:	e780      	b.n	800434c <LCD_draw_text_helper+0x170>
 800444a:	4653      	mov	r3, sl
 800444c:	2b01      	cmp	r3, #1
 800444e:	d1f0      	bne.n	8004432 <LCD_draw_text_helper+0x256>
 8004450:	9a0b      	ldr	r2, [sp, #44]	; 0x2c
 8004452:	2a00      	cmp	r2, #0
 8004454:	da00      	bge.n	8004458 <LCD_draw_text_helper+0x27c>
 8004456:	e75a      	b.n	800430e <LCD_draw_text_helper+0x132>
 8004458:	4b3a      	ldr	r3, [pc, #232]	; (8004544 <LCD_draw_text_helper+0x368>)
 800445a:	2000      	movs	r0, #0
 800445c:	5e1b      	ldrsh	r3, [r3, r0]
 800445e:	4293      	cmp	r3, r2
 8004460:	dc00      	bgt.n	8004464 <LCD_draw_text_helper+0x288>
 8004462:	e754      	b.n	800430e <LCD_draw_text_helper+0x132>
 8004464:	9b07      	ldr	r3, [sp, #28]
 8004466:	469c      	mov	ip, r3
 8004468:	4461      	add	r1, ip
 800446a:	b209      	sxth	r1, r1
 800446c:	2900      	cmp	r1, #0
 800446e:	da00      	bge.n	8004472 <LCD_draw_text_helper+0x296>
 8004470:	e74d      	b.n	800430e <LCD_draw_text_helper+0x132>
 8004472:	4b36      	ldr	r3, [pc, #216]	; (800454c <LCD_draw_text_helper+0x370>)
 8004474:	2200      	movs	r2, #0
 8004476:	5e9b      	ldrsh	r3, [r3, r2]
 8004478:	428b      	cmp	r3, r1
 800447a:	dc00      	bgt.n	800447e <LCD_draw_text_helper+0x2a2>
 800447c:	e747      	b.n	800430e <LCD_draw_text_helper+0x132>
 800447e:	9a02      	ldr	r2, [sp, #8]
 8004480:	980b      	ldr	r0, [sp, #44]	; 0x2c
 8004482:	f7ff f843 	bl	800350c <writePixel.part.0>
 8004486:	e742      	b.n	800430e <LCD_draw_text_helper+0x132>
 8004488:	4653      	mov	r3, sl
 800448a:	2b01      	cmp	r3, #1
 800448c:	d000      	beq.n	8004490 <LCD_draw_text_helper+0x2b4>
 800448e:	e753      	b.n	8004338 <LCD_draw_text_helper+0x15c>
 8004490:	9a0b      	ldr	r2, [sp, #44]	; 0x2c
 8004492:	2a00      	cmp	r2, #0
 8004494:	da00      	bge.n	8004498 <LCD_draw_text_helper+0x2bc>
 8004496:	e73a      	b.n	800430e <LCD_draw_text_helper+0x132>
 8004498:	4b2a      	ldr	r3, [pc, #168]	; (8004544 <LCD_draw_text_helper+0x368>)
 800449a:	2000      	movs	r0, #0
 800449c:	5e1b      	ldrsh	r3, [r3, r0]
 800449e:	4293      	cmp	r3, r2
 80044a0:	dc00      	bgt.n	80044a4 <LCD_draw_text_helper+0x2c8>
 80044a2:	e734      	b.n	800430e <LCD_draw_text_helper+0x132>
 80044a4:	9b07      	ldr	r3, [sp, #28]
 80044a6:	469c      	mov	ip, r3
 80044a8:	4461      	add	r1, ip
 80044aa:	b209      	sxth	r1, r1
 80044ac:	2900      	cmp	r1, #0
 80044ae:	da00      	bge.n	80044b2 <LCD_draw_text_helper+0x2d6>
 80044b0:	e72d      	b.n	800430e <LCD_draw_text_helper+0x132>
 80044b2:	4b26      	ldr	r3, [pc, #152]	; (800454c <LCD_draw_text_helper+0x370>)
 80044b4:	2200      	movs	r2, #0
 80044b6:	5e9b      	ldrsh	r3, [r3, r2]
 80044b8:	428b      	cmp	r3, r1
 80044ba:	dc00      	bgt.n	80044be <LCD_draw_text_helper+0x2e2>
 80044bc:	e727      	b.n	800430e <LCD_draw_text_helper+0x132>
 80044be:	9a03      	ldr	r2, [sp, #12]
 80044c0:	980b      	ldr	r0, [sp, #44]	; 0x2c
 80044c2:	f7ff f823 	bl	800350c <writePixel.part.0>
 80044c6:	e722      	b.n	800430e <LCD_draw_text_helper+0x132>
 80044c8:	2baf      	cmp	r3, #175	; 0xaf
 80044ca:	d800      	bhi.n	80044ce <LCD_draw_text_helper+0x2f2>
 80044cc:	e6eb      	b.n	80042a6 <LCD_draw_text_helper+0xca>
 80044ce:	3301      	adds	r3, #1
 80044d0:	b2db      	uxtb	r3, r3
 80044d2:	e6e8      	b.n	80042a6 <LCD_draw_text_helper+0xca>
 80044d4:	4653      	mov	r3, sl
 80044d6:	2b01      	cmp	r3, #1
 80044d8:	d00d      	beq.n	80044f6 <LCD_draw_text_helper+0x31a>
 80044da:	466b      	mov	r3, sp
 80044dc:	9804      	ldr	r0, [sp, #16]
 80044de:	8f9a      	ldrh	r2, [r3, #60]	; 0x3c
 80044e0:	3005      	adds	r0, #5
 80044e2:	b200      	sxth	r0, r0
 80044e4:	b213      	sxth	r3, r2
 80044e6:	e762      	b.n	80043ae <LCD_draw_text_helper+0x1d2>
 80044e8:	9a03      	ldr	r2, [sp, #12]
 80044ea:	9908      	ldr	r1, [sp, #32]
 80044ec:	9200      	str	r2, [sp, #0]
 80044ee:	464a      	mov	r2, r9
 80044f0:	f7ff f904 	bl	80036fc <fillRect.part.1>
 80044f4:	e75e      	b.n	80043b4 <LCD_draw_text_helper+0x1d8>
 80044f6:	2090      	movs	r0, #144	; 0x90
 80044f8:	9c04      	ldr	r4, [sp, #16]
 80044fa:	2200      	movs	r2, #0
 80044fc:	2110      	movs	r1, #16
 80044fe:	05c0      	lsls	r0, r0, #23
 8004500:	f7fd f84c 	bl	800159c <HAL_GPIO_WritePin>
 8004504:	9908      	ldr	r1, [sp, #32]
 8004506:	9a03      	ldr	r2, [sp, #12]
 8004508:	3405      	adds	r4, #5
 800450a:	b224      	sxth	r4, r4
 800450c:	1dcb      	adds	r3, r1, #7
 800450e:	9200      	str	r2, [sp, #0]
 8004510:	0020      	movs	r0, r4
 8004512:	0022      	movs	r2, r4
 8004514:	b21b      	sxth	r3, r3
 8004516:	f7ff fa03 	bl	8003920 <writeLine>
 800451a:	2090      	movs	r0, #144	; 0x90
 800451c:	2201      	movs	r2, #1
 800451e:	2110      	movs	r1, #16
 8004520:	05c0      	lsls	r0, r0, #23
 8004522:	f7fd f83b 	bl	800159c <HAL_GPIO_WritePin>
 8004526:	e745      	b.n	80043b4 <LCD_draw_text_helper+0x1d8>
 8004528:	20000fa8 	.word	0x20000fa8
 800452c:	200014b2 	.word	0x200014b2
 8004530:	200014b0 	.word	0x200014b0
 8004534:	200014b4 	.word	0x200014b4
 8004538:	2000148c 	.word	0x2000148c
 800453c:	20000f80 	.word	0x20000f80
 8004540:	20000f6c 	.word	0x20000f6c
 8004544:	20001410 	.word	0x20001410
 8004548:	2000148e 	.word	0x2000148e
 800454c:	20001490 	.word	0x20001490
 8004550:	20000fb4 	.word	0x20000fb4
 8004554:	08007748 	.word	0x08007748

08004558 <LCD_draw_text>:
 8004558:	b5f0      	push	{r4, r5, r6, r7, lr}
 800455a:	464f      	mov	r7, r9
 800455c:	4646      	mov	r6, r8
 800455e:	46d6      	mov	lr, sl
 8004560:	b5c0      	push	{r6, r7, lr}
 8004562:	b082      	sub	sp, #8
 8004564:	4698      	mov	r8, r3
 8004566:	ab0a      	add	r3, sp, #40	; 0x28
 8004568:	781b      	ldrb	r3, [r3, #0]
 800456a:	4c15      	ldr	r4, [pc, #84]	; (80045c0 <LCD_draw_text+0x68>)
 800456c:	4699      	mov	r9, r3
 800456e:	ab0b      	add	r3, sp, #44	; 0x2c
 8004570:	881b      	ldrh	r3, [r3, #0]
 8004572:	0005      	movs	r5, r0
 8004574:	469a      	mov	sl, r3
 8004576:	7823      	ldrb	r3, [r4, #0]
 8004578:	000e      	movs	r6, r1
 800457a:	0017      	movs	r7, r2
 800457c:	2b00      	cmp	r3, #0
 800457e:	d00e      	beq.n	800459e <LCD_draw_text+0x46>
 8004580:	0020      	movs	r0, r4
 8004582:	f7fb fdc1 	bl	8000108 <strlen>
 8004586:	4b0f      	ldr	r3, [pc, #60]	; (80045c4 <LCD_draw_text+0x6c>)
 8004588:	b2c1      	uxtb	r1, r0
 800458a:	881b      	ldrh	r3, [r3, #0]
 800458c:	2200      	movs	r2, #0
 800458e:	9301      	str	r3, [sp, #4]
 8004590:	4b0d      	ldr	r3, [pc, #52]	; (80045c8 <LCD_draw_text+0x70>)
 8004592:	0020      	movs	r0, r4
 8004594:	781b      	ldrb	r3, [r3, #0]
 8004596:	9300      	str	r3, [sp, #0]
 8004598:	2300      	movs	r3, #0
 800459a:	f7ff fe1f 	bl	80041dc <LCD_draw_text_helper>
 800459e:	4653      	mov	r3, sl
 80045a0:	9301      	str	r3, [sp, #4]
 80045a2:	464b      	mov	r3, r9
 80045a4:	003a      	movs	r2, r7
 80045a6:	9300      	str	r3, [sp, #0]
 80045a8:	0031      	movs	r1, r6
 80045aa:	4643      	mov	r3, r8
 80045ac:	0028      	movs	r0, r5
 80045ae:	f7ff fe15 	bl	80041dc <LCD_draw_text_helper>
 80045b2:	b002      	add	sp, #8
 80045b4:	bc1c      	pop	{r2, r3, r4}
 80045b6:	4690      	mov	r8, r2
 80045b8:	4699      	mov	r9, r3
 80045ba:	46a2      	mov	sl, r4
 80045bc:	bdf0      	pop	{r4, r5, r6, r7, pc}
 80045be:	46c0      	nop			; (mov r8, r8)
 80045c0:	20000f80 	.word	0x20000f80
 80045c4:	20000f7c 	.word	0x20000f7c
 80045c8:	20000fa8 	.word	0x20000fa8

080045cc <print_pos_update_init>:
 80045cc:	b5f0      	push	{r4, r5, r6, r7, lr}
 80045ce:	46de      	mov	lr, fp
 80045d0:	4657      	mov	r7, sl
 80045d2:	464e      	mov	r6, r9
 80045d4:	4645      	mov	r5, r8
 80045d6:	2201      	movs	r2, #1
 80045d8:	b5e0      	push	{r5, r6, r7, lr}
 80045da:	b089      	sub	sp, #36	; 0x24
 80045dc:	ab02      	add	r3, sp, #8
 80045de:	75d8      	strb	r0, [r3, #23]
 80045e0:	4b96      	ldr	r3, [pc, #600]	; (800483c <print_pos_update_init+0x270>)
 80045e2:	4683      	mov	fp, r0
 80045e4:	701a      	strb	r2, [r3, #0]
 80045e6:	4b96      	ldr	r3, [pc, #600]	; (8004840 <print_pos_update_init+0x274>)
 80045e8:	7018      	strb	r0, [r3, #0]
 80045ea:	4b96      	ldr	r3, [pc, #600]	; (8004844 <print_pos_update_init+0x278>)
 80045ec:	781b      	ldrb	r3, [r3, #0]
 80045ee:	2b00      	cmp	r3, #0
 80045f0:	d000      	beq.n	80045f4 <print_pos_update_init+0x28>
 80045f2:	e113      	b.n	800481c <print_pos_update_init+0x250>
 80045f4:	4e94      	ldr	r6, [pc, #592]	; (8004848 <print_pos_update_init+0x27c>)
 80045f6:	2304      	movs	r3, #4
 80045f8:	4a94      	ldr	r2, [pc, #592]	; (800484c <print_pos_update_init+0x280>)
 80045fa:	7033      	strb	r3, [r6, #0]
 80045fc:	7013      	strb	r3, [r2, #0]
 80045fe:	4b94      	ldr	r3, [pc, #592]	; (8004850 <print_pos_update_init+0x284>)
 8004600:	4690      	mov	r8, r2
 8004602:	469a      	mov	sl, r3
 8004604:	2300      	movs	r3, #0
 8004606:	4652      	mov	r2, sl
 8004608:	8013      	strh	r3, [r2, #0]
 800460a:	4a92      	ldr	r2, [pc, #584]	; (8004854 <print_pos_update_init+0x288>)
 800460c:	4d92      	ldr	r5, [pc, #584]	; (8004858 <print_pos_update_init+0x28c>)
 800460e:	8013      	strh	r3, [r2, #0]
 8004610:	4691      	mov	r9, r2
 8004612:	4a92      	ldr	r2, [pc, #584]	; (800485c <print_pos_update_init+0x290>)
 8004614:	4c92      	ldr	r4, [pc, #584]	; (8004860 <print_pos_update_init+0x294>)
 8004616:	8013      	strh	r3, [r2, #0]
 8004618:	0029      	movs	r1, r5
 800461a:	220f      	movs	r2, #15
 800461c:	4889      	ldr	r0, [pc, #548]	; (8004844 <print_pos_update_init+0x278>)
 800461e:	8023      	strh	r3, [r4, #0]
 8004620:	f002 ffc2 	bl	80075a8 <memcpy>
 8004624:	465b      	mov	r3, fp
 8004626:	46b3      	mov	fp, r6
 8004628:	9306      	str	r3, [sp, #24]
 800462a:	e039      	b.n	80046a0 <print_pos_update_init+0xd4>
 800462c:	2a0d      	cmp	r2, #13
 800462e:	d033      	beq.n	8004698 <print_pos_update_init+0xcc>
 8004630:	2300      	movs	r3, #0
 8004632:	5ee0      	ldrsh	r0, [r4, r3]
 8004634:	465b      	mov	r3, fp
 8004636:	781e      	ldrb	r6, [r3, #0]
 8004638:	4643      	mov	r3, r8
 800463a:	781b      	ldrb	r3, [r3, #0]
 800463c:	469c      	mov	ip, r3
 800463e:	4b87      	ldr	r3, [pc, #540]	; (800485c <print_pos_update_init+0x290>)
 8004640:	2100      	movs	r1, #0
 8004642:	5e59      	ldrsh	r1, [r3, r1]
 8004644:	4b87      	ldr	r3, [pc, #540]	; (8004864 <print_pos_update_init+0x298>)
 8004646:	781b      	ldrb	r3, [r3, #0]
 8004648:	2b00      	cmp	r3, #0
 800464a:	d013      	beq.n	8004674 <print_pos_update_init+0xa8>
 800464c:	0073      	lsls	r3, r6, #1
 800464e:	199b      	adds	r3, r3, r6
 8004650:	005b      	lsls	r3, r3, #1
 8004652:	181b      	adds	r3, r3, r0
 8004654:	4f84      	ldr	r7, [pc, #528]	; (8004868 <print_pos_update_init+0x29c>)
 8004656:	9305      	str	r3, [sp, #20]
 8004658:	2300      	movs	r3, #0
 800465a:	5eff      	ldrsh	r7, [r7, r3]
 800465c:	9b05      	ldr	r3, [sp, #20]
 800465e:	42bb      	cmp	r3, r7
 8004660:	dd08      	ble.n	8004674 <print_pos_update_init+0xa8>
 8004662:	2300      	movs	r3, #0
 8004664:	8023      	strh	r3, [r4, #0]
 8004666:	4663      	mov	r3, ip
 8004668:	2000      	movs	r0, #0
 800466a:	00db      	lsls	r3, r3, #3
 800466c:	1859      	adds	r1, r3, r1
 800466e:	4b7b      	ldr	r3, [pc, #492]	; (800485c <print_pos_update_init+0x290>)
 8004670:	b209      	sxth	r1, r1
 8004672:	8019      	strh	r1, [r3, #0]
 8004674:	464b      	mov	r3, r9
 8004676:	4667      	mov	r7, ip
 8004678:	881b      	ldrh	r3, [r3, #0]
 800467a:	9601      	str	r6, [sp, #4]
 800467c:	4656      	mov	r6, sl
 800467e:	9702      	str	r7, [sp, #8]
 8004680:	8836      	ldrh	r6, [r6, #0]
 8004682:	9600      	str	r6, [sp, #0]
 8004684:	f7ff fc8e 	bl	8003fa4 <drawChar>
 8004688:	465b      	mov	r3, fp
 800468a:	781b      	ldrb	r3, [r3, #0]
 800468c:	005a      	lsls	r2, r3, #1
 800468e:	189b      	adds	r3, r3, r2
 8004690:	8822      	ldrh	r2, [r4, #0]
 8004692:	005b      	lsls	r3, r3, #1
 8004694:	189b      	adds	r3, r3, r2
 8004696:	8023      	strh	r3, [r4, #0]
 8004698:	4b74      	ldr	r3, [pc, #464]	; (800486c <print_pos_update_init+0x2a0>)
 800469a:	3501      	adds	r5, #1
 800469c:	42ab      	cmp	r3, r5
 800469e:	d010      	beq.n	80046c2 <print_pos_update_init+0xf6>
 80046a0:	782a      	ldrb	r2, [r5, #0]
 80046a2:	2a0a      	cmp	r2, #10
 80046a4:	d1c2      	bne.n	800462c <print_pos_update_init+0x60>
 80046a6:	2300      	movs	r3, #0
 80046a8:	8023      	strh	r3, [r4, #0]
 80046aa:	4643      	mov	r3, r8
 80046ac:	4a6b      	ldr	r2, [pc, #428]	; (800485c <print_pos_update_init+0x290>)
 80046ae:	781b      	ldrb	r3, [r3, #0]
 80046b0:	8812      	ldrh	r2, [r2, #0]
 80046b2:	00db      	lsls	r3, r3, #3
 80046b4:	189b      	adds	r3, r3, r2
 80046b6:	4a69      	ldr	r2, [pc, #420]	; (800485c <print_pos_update_init+0x290>)
 80046b8:	3501      	adds	r5, #1
 80046ba:	8013      	strh	r3, [r2, #0]
 80046bc:	4b6b      	ldr	r3, [pc, #428]	; (800486c <print_pos_update_init+0x2a0>)
 80046be:	42ab      	cmp	r3, r5
 80046c0:	d1ee      	bne.n	80046a0 <print_pos_update_init+0xd4>
 80046c2:	9b06      	ldr	r3, [sp, #24]
 80046c4:	465e      	mov	r6, fp
 80046c6:	4642      	mov	r2, r8
 80046c8:	469b      	mov	fp, r3
 80046ca:	2304      	movs	r3, #4
 80046cc:	7013      	strb	r3, [r2, #0]
 80046ce:	7033      	strb	r3, [r6, #0]
 80046d0:	4652      	mov	r2, sl
 80046d2:	2300      	movs	r3, #0
 80046d4:	8013      	strh	r3, [r2, #0]
 80046d6:	464a      	mov	r2, r9
 80046d8:	4d65      	ldr	r5, [pc, #404]	; (8004870 <print_pos_update_init+0x2a4>)
 80046da:	8013      	strh	r3, [r2, #0]
 80046dc:	0029      	movs	r1, r5
 80046de:	2208      	movs	r2, #8
 80046e0:	4858      	ldr	r0, [pc, #352]	; (8004844 <print_pos_update_init+0x278>)
 80046e2:	f002 ff61 	bl	80075a8 <memcpy>
 80046e6:	465b      	mov	r3, fp
 80046e8:	46b3      	mov	fp, r6
 80046ea:	9305      	str	r3, [sp, #20]
 80046ec:	e039      	b.n	8004762 <print_pos_update_init+0x196>
 80046ee:	2a0d      	cmp	r2, #13
 80046f0:	d033      	beq.n	800475a <print_pos_update_init+0x18e>
 80046f2:	2300      	movs	r3, #0
 80046f4:	5ee0      	ldrsh	r0, [r4, r3]
 80046f6:	465b      	mov	r3, fp
 80046f8:	781e      	ldrb	r6, [r3, #0]
 80046fa:	4643      	mov	r3, r8
 80046fc:	781b      	ldrb	r3, [r3, #0]
 80046fe:	469c      	mov	ip, r3
 8004700:	4b56      	ldr	r3, [pc, #344]	; (800485c <print_pos_update_init+0x290>)
 8004702:	2100      	movs	r1, #0
 8004704:	5e59      	ldrsh	r1, [r3, r1]
 8004706:	4b57      	ldr	r3, [pc, #348]	; (8004864 <print_pos_update_init+0x298>)
 8004708:	781b      	ldrb	r3, [r3, #0]
 800470a:	2b00      	cmp	r3, #0
 800470c:	d013      	beq.n	8004736 <print_pos_update_init+0x16a>
 800470e:	0073      	lsls	r3, r6, #1
 8004710:	199b      	adds	r3, r3, r6
 8004712:	005b      	lsls	r3, r3, #1
 8004714:	181b      	adds	r3, r3, r0
 8004716:	4f54      	ldr	r7, [pc, #336]	; (8004868 <print_pos_update_init+0x29c>)
 8004718:	9306      	str	r3, [sp, #24]
 800471a:	2300      	movs	r3, #0
 800471c:	5eff      	ldrsh	r7, [r7, r3]
 800471e:	9b06      	ldr	r3, [sp, #24]
 8004720:	42bb      	cmp	r3, r7
 8004722:	dd08      	ble.n	8004736 <print_pos_update_init+0x16a>
 8004724:	2300      	movs	r3, #0
 8004726:	8023      	strh	r3, [r4, #0]
 8004728:	4663      	mov	r3, ip
 800472a:	2000      	movs	r0, #0
 800472c:	00db      	lsls	r3, r3, #3
 800472e:	1859      	adds	r1, r3, r1
 8004730:	4b4a      	ldr	r3, [pc, #296]	; (800485c <print_pos_update_init+0x290>)
 8004732:	b209      	sxth	r1, r1
 8004734:	8019      	strh	r1, [r3, #0]
 8004736:	464b      	mov	r3, r9
 8004738:	4667      	mov	r7, ip
 800473a:	881b      	ldrh	r3, [r3, #0]
 800473c:	9601      	str	r6, [sp, #4]
 800473e:	4656      	mov	r6, sl
 8004740:	9702      	str	r7, [sp, #8]
 8004742:	8836      	ldrh	r6, [r6, #0]
 8004744:	9600      	str	r6, [sp, #0]
 8004746:	f7ff fc2d 	bl	8003fa4 <drawChar>
 800474a:	465b      	mov	r3, fp
 800474c:	781b      	ldrb	r3, [r3, #0]
 800474e:	005a      	lsls	r2, r3, #1
 8004750:	189b      	adds	r3, r3, r2
 8004752:	8822      	ldrh	r2, [r4, #0]
 8004754:	005b      	lsls	r3, r3, #1
 8004756:	189b      	adds	r3, r3, r2
 8004758:	8023      	strh	r3, [r4, #0]
 800475a:	4b46      	ldr	r3, [pc, #280]	; (8004874 <print_pos_update_init+0x2a8>)
 800475c:	3501      	adds	r5, #1
 800475e:	42ab      	cmp	r3, r5
 8004760:	d010      	beq.n	8004784 <print_pos_update_init+0x1b8>
 8004762:	782a      	ldrb	r2, [r5, #0]
 8004764:	2a0a      	cmp	r2, #10
 8004766:	d1c2      	bne.n	80046ee <print_pos_update_init+0x122>
 8004768:	2300      	movs	r3, #0
 800476a:	8023      	strh	r3, [r4, #0]
 800476c:	4643      	mov	r3, r8
 800476e:	4a3b      	ldr	r2, [pc, #236]	; (800485c <print_pos_update_init+0x290>)
 8004770:	781b      	ldrb	r3, [r3, #0]
 8004772:	8812      	ldrh	r2, [r2, #0]
 8004774:	00db      	lsls	r3, r3, #3
 8004776:	189b      	adds	r3, r3, r2
 8004778:	4a38      	ldr	r2, [pc, #224]	; (800485c <print_pos_update_init+0x290>)
 800477a:	3501      	adds	r5, #1
 800477c:	8013      	strh	r3, [r2, #0]
 800477e:	4b3d      	ldr	r3, [pc, #244]	; (8004874 <print_pos_update_init+0x2a8>)
 8004780:	42ab      	cmp	r3, r5
 8004782:	d1ee      	bne.n	8004762 <print_pos_update_init+0x196>
 8004784:	9b05      	ldr	r3, [sp, #20]
 8004786:	465e      	mov	r6, fp
 8004788:	4642      	mov	r2, r8
 800478a:	469b      	mov	fp, r3
 800478c:	2304      	movs	r3, #4
 800478e:	2500      	movs	r5, #0
 8004790:	7013      	strb	r3, [r2, #0]
 8004792:	7033      	strb	r3, [r6, #0]
 8004794:	4653      	mov	r3, sl
 8004796:	801d      	strh	r5, [r3, #0]
 8004798:	464b      	mov	r3, r9
 800479a:	aa02      	add	r2, sp, #8
 800479c:	801d      	strh	r5, [r3, #0]
 800479e:	4694      	mov	ip, r2
 80047a0:	2317      	movs	r3, #23
 80047a2:	4463      	add	r3, ip
 80047a4:	0019      	movs	r1, r3
 80047a6:	4827      	ldr	r0, [pc, #156]	; (8004844 <print_pos_update_init+0x278>)
 80047a8:	f002 ff0f 	bl	80075ca <strcpy>
 80047ac:	465b      	mov	r3, fp
 80047ae:	2b0a      	cmp	r3, #10
 80047b0:	d02d      	beq.n	800480e <print_pos_update_init+0x242>
 80047b2:	2b0d      	cmp	r3, #13
 80047b4:	d024      	beq.n	8004800 <print_pos_update_init+0x234>
 80047b6:	2300      	movs	r3, #0
 80047b8:	5ee0      	ldrsh	r0, [r4, r3]
 80047ba:	4b28      	ldr	r3, [pc, #160]	; (800485c <print_pos_update_init+0x290>)
 80047bc:	2100      	movs	r1, #0
 80047be:	5e59      	ldrsh	r1, [r3, r1]
 80047c0:	4b28      	ldr	r3, [pc, #160]	; (8004864 <print_pos_update_init+0x298>)
 80047c2:	781b      	ldrb	r3, [r3, #0]
 80047c4:	2b00      	cmp	r3, #0
 80047c6:	d00c      	beq.n	80047e2 <print_pos_update_init+0x216>
 80047c8:	4b27      	ldr	r3, [pc, #156]	; (8004868 <print_pos_update_init+0x29c>)
 80047ca:	2200      	movs	r2, #0
 80047cc:	5e9a      	ldrsh	r2, [r3, r2]
 80047ce:	0003      	movs	r3, r0
 80047d0:	3318      	adds	r3, #24
 80047d2:	4293      	cmp	r3, r2
 80047d4:	dd05      	ble.n	80047e2 <print_pos_update_init+0x216>
 80047d6:	2000      	movs	r0, #0
 80047d8:	3120      	adds	r1, #32
 80047da:	4b20      	ldr	r3, [pc, #128]	; (800485c <print_pos_update_init+0x290>)
 80047dc:	b209      	sxth	r1, r1
 80047de:	8025      	strh	r5, [r4, #0]
 80047e0:	8019      	strh	r1, [r3, #0]
 80047e2:	2304      	movs	r3, #4
 80047e4:	9302      	str	r3, [sp, #8]
 80047e6:	9301      	str	r3, [sp, #4]
 80047e8:	2300      	movs	r3, #0
 80047ea:	465a      	mov	r2, fp
 80047ec:	9300      	str	r3, [sp, #0]
 80047ee:	f7ff fbd9 	bl	8003fa4 <drawChar>
 80047f2:	7833      	ldrb	r3, [r6, #0]
 80047f4:	005a      	lsls	r2, r3, #1
 80047f6:	189b      	adds	r3, r3, r2
 80047f8:	8822      	ldrh	r2, [r4, #0]
 80047fa:	005b      	lsls	r3, r3, #1
 80047fc:	189b      	adds	r3, r3, r2
 80047fe:	8023      	strh	r3, [r4, #0]
 8004800:	b009      	add	sp, #36	; 0x24
 8004802:	bc3c      	pop	{r2, r3, r4, r5}
 8004804:	4690      	mov	r8, r2
 8004806:	4699      	mov	r9, r3
 8004808:	46a2      	mov	sl, r4
 800480a:	46ab      	mov	fp, r5
 800480c:	bdf0      	pop	{r4, r5, r6, r7, pc}
 800480e:	4b13      	ldr	r3, [pc, #76]	; (800485c <print_pos_update_init+0x290>)
 8004810:	4a12      	ldr	r2, [pc, #72]	; (800485c <print_pos_update_init+0x290>)
 8004812:	881b      	ldrh	r3, [r3, #0]
 8004814:	8025      	strh	r5, [r4, #0]
 8004816:	3320      	adds	r3, #32
 8004818:	8013      	strh	r3, [r2, #0]
 800481a:	e7f1      	b.n	8004800 <print_pos_update_init+0x234>
 800481c:	4809      	ldr	r0, [pc, #36]	; (8004844 <print_pos_update_init+0x278>)
 800481e:	f7fb fc73 	bl	8000108 <strlen>
 8004822:	4b15      	ldr	r3, [pc, #84]	; (8004878 <print_pos_update_init+0x2ac>)
 8004824:	4e08      	ldr	r6, [pc, #32]	; (8004848 <print_pos_update_init+0x27c>)
 8004826:	881b      	ldrh	r3, [r3, #0]
 8004828:	b2c1      	uxtb	r1, r0
 800482a:	9301      	str	r3, [sp, #4]
 800482c:	7833      	ldrb	r3, [r6, #0]
 800482e:	2200      	movs	r2, #0
 8004830:	9300      	str	r3, [sp, #0]
 8004832:	4804      	ldr	r0, [pc, #16]	; (8004844 <print_pos_update_init+0x278>)
 8004834:	2300      	movs	r3, #0
 8004836:	f7ff fcd1 	bl	80041dc <LCD_draw_text_helper>
 800483a:	e6dc      	b.n	80045f6 <print_pos_update_init+0x2a>
 800483c:	20000d74 	.word	0x20000d74
 8004840:	20000fa9 	.word	0x20000fa9
 8004844:	20000f80 	.word	0x20000f80
 8004848:	20000fa8 	.word	0x20000fa8
 800484c:	200014b2 	.word	0x200014b2
 8004850:	200014b0 	.word	0x200014b0
 8004854:	200014b4 	.word	0x200014b4
 8004858:	08007d70 	.word	0x08007d70
 800485c:	20000f6c 	.word	0x20000f6c
 8004860:	2000148c 	.word	0x2000148c
 8004864:	2000148e 	.word	0x2000148e
 8004868:	20001410 	.word	0x20001410
 800486c:	08007d7e 	.word	0x08007d7e
 8004870:	08007d68 	.word	0x08007d68
 8004874:	08007d6f 	.word	0x08007d6f
 8004878:	20000f7c 	.word	0x20000f7c

0800487c <race>:
 800487c:	b530      	push	{r4, r5, lr}
 800487e:	b087      	sub	sp, #28
 8004880:	ac02      	add	r4, sp, #8
 8004882:	0022      	movs	r2, r4
 8004884:	4b12      	ldr	r3, [pc, #72]	; (80048d0 <race+0x54>)
 8004886:	cb23      	ldmia	r3!, {r0, r1, r5}
 8004888:	c223      	stmia	r2!, {r0, r1, r5}
 800488a:	781b      	ldrb	r3, [r3, #0]
 800488c:	4d11      	ldr	r5, [pc, #68]	; (80048d4 <race+0x58>)
 800488e:	7013      	strb	r3, [r2, #0]
 8004890:	782b      	ldrb	r3, [r5, #0]
 8004892:	2b00      	cmp	r3, #0
 8004894:	d00e      	beq.n	80048b4 <race+0x38>
 8004896:	0028      	movs	r0, r5
 8004898:	f7fb fc36 	bl	8000108 <strlen>
 800489c:	4b0e      	ldr	r3, [pc, #56]	; (80048d8 <race+0x5c>)
 800489e:	b2c1      	uxtb	r1, r0
 80048a0:	881b      	ldrh	r3, [r3, #0]
 80048a2:	2200      	movs	r2, #0
 80048a4:	9301      	str	r3, [sp, #4]
 80048a6:	4b0d      	ldr	r3, [pc, #52]	; (80048dc <race+0x60>)
 80048a8:	0028      	movs	r0, r5
 80048aa:	781b      	ldrb	r3, [r3, #0]
 80048ac:	9300      	str	r3, [sp, #0]
 80048ae:	2300      	movs	r3, #0
 80048b0:	f7ff fc94 	bl	80041dc <LCD_draw_text_helper>
 80048b4:	2500      	movs	r5, #0
 80048b6:	2304      	movs	r3, #4
 80048b8:	9501      	str	r5, [sp, #4]
 80048ba:	9300      	str	r3, [sp, #0]
 80048bc:	2200      	movs	r2, #0
 80048be:	2300      	movs	r3, #0
 80048c0:	210c      	movs	r1, #12
 80048c2:	0020      	movs	r0, r4
 80048c4:	f7ff fc8a 	bl	80041dc <LCD_draw_text_helper>
 80048c8:	4b05      	ldr	r3, [pc, #20]	; (80048e0 <race+0x64>)
 80048ca:	701d      	strb	r5, [r3, #0]
 80048cc:	b007      	add	sp, #28
 80048ce:	bd30      	pop	{r4, r5, pc}
 80048d0:	08007d58 	.word	0x08007d58
 80048d4:	20000f80 	.word	0x20000f80
 80048d8:	20000f7c 	.word	0x20000f7c
 80048dc:	20000fa8 	.word	0x20000fa8
 80048e0:	20000d74 	.word	0x20000d74

080048e4 <print_idle>:
 80048e4:	b5f0      	push	{r4, r5, r6, r7, lr}
 80048e6:	b08d      	sub	sp, #52	; 0x34
 80048e8:	ac02      	add	r4, sp, #8
 80048ea:	0022      	movs	r2, r4
 80048ec:	4b1a      	ldr	r3, [pc, #104]	; (8004958 <print_idle+0x74>)
 80048ee:	4f1b      	ldr	r7, [pc, #108]	; (800495c <print_idle+0x78>)
 80048f0:	cb23      	ldmia	r3!, {r0, r1, r5}
 80048f2:	c223      	stmia	r2!, {r0, r1, r5}
 80048f4:	cb23      	ldmia	r3!, {r0, r1, r5}
 80048f6:	c223      	stmia	r2!, {r0, r1, r5}
 80048f8:	cb23      	ldmia	r3!, {r0, r1, r5}
 80048fa:	c223      	stmia	r2!, {r0, r1, r5}
 80048fc:	8819      	ldrh	r1, [r3, #0]
 80048fe:	8011      	strh	r1, [r2, #0]
 8004900:	789b      	ldrb	r3, [r3, #2]
 8004902:	7093      	strb	r3, [r2, #2]
 8004904:	783b      	ldrb	r3, [r7, #0]
 8004906:	2b03      	cmp	r3, #3
 8004908:	d023      	beq.n	8004952 <print_idle+0x6e>
 800490a:	0020      	movs	r0, r4
 800490c:	f7fb fbfc 	bl	8000108 <strlen>
 8004910:	4e13      	ldr	r6, [pc, #76]	; (8004960 <print_idle+0x7c>)
 8004912:	b2c5      	uxtb	r5, r0
 8004914:	7833      	ldrb	r3, [r6, #0]
 8004916:	2b00      	cmp	r3, #0
 8004918:	d00e      	beq.n	8004938 <print_idle+0x54>
 800491a:	0030      	movs	r0, r6
 800491c:	f7fb fbf4 	bl	8000108 <strlen>
 8004920:	4b10      	ldr	r3, [pc, #64]	; (8004964 <print_idle+0x80>)
 8004922:	b2c1      	uxtb	r1, r0
 8004924:	881b      	ldrh	r3, [r3, #0]
 8004926:	2200      	movs	r2, #0
 8004928:	9301      	str	r3, [sp, #4]
 800492a:	4b0f      	ldr	r3, [pc, #60]	; (8004968 <print_idle+0x84>)
 800492c:	0030      	movs	r0, r6
 800492e:	781b      	ldrb	r3, [r3, #0]
 8004930:	9300      	str	r3, [sp, #0]
 8004932:	2300      	movs	r3, #0
 8004934:	f7ff fc52 	bl	80041dc <LCD_draw_text_helper>
 8004938:	2600      	movs	r6, #0
 800493a:	2304      	movs	r3, #4
 800493c:	9601      	str	r6, [sp, #4]
 800493e:	9300      	str	r3, [sp, #0]
 8004940:	2200      	movs	r2, #0
 8004942:	2300      	movs	r3, #0
 8004944:	0029      	movs	r1, r5
 8004946:	0020      	movs	r0, r4
 8004948:	f7ff fc48 	bl	80041dc <LCD_draw_text_helper>
 800494c:	703e      	strb	r6, [r7, #0]
 800494e:	b00d      	add	sp, #52	; 0x34
 8004950:	bdf0      	pop	{r4, r5, r6, r7, pc}
 8004952:	f001 fa31 	bl	8005db8 <erase_end_all>
 8004956:	e7d8      	b.n	800490a <print_idle+0x26>
 8004958:	08007ce0 	.word	0x08007ce0
 800495c:	20000d74 	.word	0x20000d74
 8004960:	20000f80 	.word	0x20000f80
 8004964:	20000f7c 	.word	0x20000f7c
 8004968:	20000fa8 	.word	0x20000fa8

0800496c <print_race_start>:
 800496c:	b5f0      	push	{r4, r5, r6, r7, lr}
 800496e:	b08d      	sub	sp, #52	; 0x34
 8004970:	ac02      	add	r4, sp, #8
 8004972:	0022      	movs	r2, r4
 8004974:	4b1a      	ldr	r3, [pc, #104]	; (80049e0 <print_race_start+0x74>)
 8004976:	4f1b      	ldr	r7, [pc, #108]	; (80049e4 <print_race_start+0x78>)
 8004978:	cb23      	ldmia	r3!, {r0, r1, r5}
 800497a:	c223      	stmia	r2!, {r0, r1, r5}
 800497c:	cb23      	ldmia	r3!, {r0, r1, r5}
 800497e:	c223      	stmia	r2!, {r0, r1, r5}
 8004980:	cb23      	ldmia	r3!, {r0, r1, r5}
 8004982:	c223      	stmia	r2!, {r0, r1, r5}
 8004984:	8819      	ldrh	r1, [r3, #0]
 8004986:	8011      	strh	r1, [r2, #0]
 8004988:	789b      	ldrb	r3, [r3, #2]
 800498a:	7093      	strb	r3, [r2, #2]
 800498c:	783b      	ldrb	r3, [r7, #0]
 800498e:	2b03      	cmp	r3, #3
 8004990:	d023      	beq.n	80049da <print_race_start+0x6e>
 8004992:	0020      	movs	r0, r4
 8004994:	f7fb fbb8 	bl	8000108 <strlen>
 8004998:	4e13      	ldr	r6, [pc, #76]	; (80049e8 <print_race_start+0x7c>)
 800499a:	b2c5      	uxtb	r5, r0
 800499c:	7833      	ldrb	r3, [r6, #0]
 800499e:	2b00      	cmp	r3, #0
 80049a0:	d00e      	beq.n	80049c0 <print_race_start+0x54>
 80049a2:	0030      	movs	r0, r6
 80049a4:	f7fb fbb0 	bl	8000108 <strlen>
 80049a8:	4b10      	ldr	r3, [pc, #64]	; (80049ec <print_race_start+0x80>)
 80049aa:	b2c1      	uxtb	r1, r0
 80049ac:	881b      	ldrh	r3, [r3, #0]
 80049ae:	2200      	movs	r2, #0
 80049b0:	9301      	str	r3, [sp, #4]
 80049b2:	4b0f      	ldr	r3, [pc, #60]	; (80049f0 <print_race_start+0x84>)
 80049b4:	0030      	movs	r0, r6
 80049b6:	781b      	ldrb	r3, [r3, #0]
 80049b8:	9300      	str	r3, [sp, #0]
 80049ba:	2300      	movs	r3, #0
 80049bc:	f7ff fc0e 	bl	80041dc <LCD_draw_text_helper>
 80049c0:	2600      	movs	r6, #0
 80049c2:	2304      	movs	r3, #4
 80049c4:	9601      	str	r6, [sp, #4]
 80049c6:	9300      	str	r3, [sp, #0]
 80049c8:	2200      	movs	r2, #0
 80049ca:	2300      	movs	r3, #0
 80049cc:	0029      	movs	r1, r5
 80049ce:	0020      	movs	r0, r4
 80049d0:	f7ff fc04 	bl	80041dc <LCD_draw_text_helper>
 80049d4:	703e      	strb	r6, [r7, #0]
 80049d6:	b00d      	add	sp, #52	; 0x34
 80049d8:	bdf0      	pop	{r4, r5, r6, r7, pc}
 80049da:	f001 f9ed 	bl	8005db8 <erase_end_all>
 80049de:	e7d8      	b.n	8004992 <print_race_start+0x26>
 80049e0:	08007d30 	.word	0x08007d30
 80049e4:	20000d74 	.word	0x20000d74
 80049e8:	20000f80 	.word	0x20000f80
 80049ec:	20000f7c 	.word	0x20000f7c
 80049f0:	20000fa8 	.word	0x20000fa8

080049f4 <print_pos_update>:
 80049f4:	b5f0      	push	{r4, r5, r6, r7, lr}
 80049f6:	464e      	mov	r6, r9
 80049f8:	46de      	mov	lr, fp
 80049fa:	4657      	mov	r7, sl
 80049fc:	4645      	mov	r5, r8
 80049fe:	b5e0      	push	{r5, r6, r7, lr}
 8004a00:	b08b      	sub	sp, #44	; 0x2c
 8004a02:	ab06      	add	r3, sp, #24
 8004a04:	469c      	mov	ip, r3
 8004a06:	260f      	movs	r6, #15
 8004a08:	4ca0      	ldr	r4, [pc, #640]	; (8004c8c <print_pos_update+0x298>)
 8004a0a:	4466      	add	r6, ip
 8004a0c:	7823      	ldrb	r3, [r4, #0]
 8004a0e:	7030      	strb	r0, [r6, #0]
 8004a10:	2b00      	cmp	r3, #0
 8004a12:	d103      	bne.n	8004a1c <print_pos_update+0x28>
 8004a14:	4b9e      	ldr	r3, [pc, #632]	; (8004c90 <print_pos_update+0x29c>)
 8004a16:	781a      	ldrb	r2, [r3, #0]
 8004a18:	2a00      	cmp	r2, #0
 8004a1a:	d10b      	bne.n	8004a34 <print_pos_update+0x40>
 8004a1c:	7830      	ldrb	r0, [r6, #0]
 8004a1e:	f7ff fdd5 	bl	80045cc <print_pos_update_init>
 8004a22:	2300      	movs	r3, #0
 8004a24:	7023      	strb	r3, [r4, #0]
 8004a26:	b00b      	add	sp, #44	; 0x2c
 8004a28:	bc3c      	pop	{r2, r3, r4, r5}
 8004a2a:	4690      	mov	r8, r2
 8004a2c:	4699      	mov	r9, r3
 8004a2e:	46a2      	mov	sl, r4
 8004a30:	46ab      	mov	fp, r5
 8004a32:	bdf0      	pop	{r4, r5, r6, r7, pc}
 8004a34:	2201      	movs	r2, #1
 8004a36:	701a      	strb	r2, [r3, #0]
 8004a38:	4b96      	ldr	r3, [pc, #600]	; (8004c94 <print_pos_update+0x2a0>)
 8004a3a:	781b      	ldrb	r3, [r3, #0]
 8004a3c:	2b00      	cmp	r3, #0
 8004a3e:	d16f      	bne.n	8004b20 <print_pos_update+0x12c>
 8004a40:	4b95      	ldr	r3, [pc, #596]	; (8004c98 <print_pos_update+0x2a4>)
 8004a42:	001a      	movs	r2, r3
 8004a44:	9303      	str	r3, [sp, #12]
 8004a46:	2304      	movs	r3, #4
 8004a48:	7013      	strb	r3, [r2, #0]
 8004a4a:	4a94      	ldr	r2, [pc, #592]	; (8004c9c <print_pos_update+0x2a8>)
 8004a4c:	4f94      	ldr	r7, [pc, #592]	; (8004ca0 <print_pos_update+0x2ac>)
 8004a4e:	7013      	strb	r3, [r2, #0]
 8004a50:	4b94      	ldr	r3, [pc, #592]	; (8004ca4 <print_pos_update+0x2b0>)
 8004a52:	0039      	movs	r1, r7
 8004a54:	4698      	mov	r8, r3
 8004a56:	2301      	movs	r3, #1
 8004a58:	4642      	mov	r2, r8
 8004a5a:	425b      	negs	r3, r3
 8004a5c:	8013      	strh	r3, [r2, #0]
 8004a5e:	4a92      	ldr	r2, [pc, #584]	; (8004ca8 <print_pos_update+0x2b4>)
 8004a60:	488c      	ldr	r0, [pc, #560]	; (8004c94 <print_pos_update+0x2a0>)
 8004a62:	8013      	strh	r3, [r2, #0]
 8004a64:	4b91      	ldr	r3, [pc, #580]	; (8004cac <print_pos_update+0x2b8>)
 8004a66:	4691      	mov	r9, r2
 8004a68:	469a      	mov	sl, r3
 8004a6a:	2390      	movs	r3, #144	; 0x90
 8004a6c:	4652      	mov	r2, sl
 8004a6e:	8013      	strh	r3, [r2, #0]
 8004a70:	4b8f      	ldr	r3, [pc, #572]	; (8004cb0 <print_pos_update+0x2bc>)
 8004a72:	469b      	mov	fp, r3
 8004a74:	2380      	movs	r3, #128	; 0x80
 8004a76:	465a      	mov	r2, fp
 8004a78:	8013      	strh	r3, [r2, #0]
 8004a7a:	f002 fda6 	bl	80075ca <strcpy>
 8004a7e:	783b      	ldrb	r3, [r7, #0]
 8004a80:	2b0a      	cmp	r3, #10
 8004a82:	d018      	beq.n	8004ab6 <print_pos_update+0xc2>
 8004a84:	2b0d      	cmp	r3, #13
 8004a86:	d016      	beq.n	8004ab6 <print_pos_update+0xc2>
 8004a88:	4a8a      	ldr	r2, [pc, #552]	; (8004cb4 <print_pos_update+0x2c0>)
 8004a8a:	2100      	movs	r1, #0
 8004a8c:	5e52      	ldrsh	r2, [r2, r1]
 8004a8e:	498a      	ldr	r1, [pc, #552]	; (8004cb8 <print_pos_update+0x2c4>)
 8004a90:	7809      	ldrb	r1, [r1, #0]
 8004a92:	2900      	cmp	r1, #0
 8004a94:	d100      	bne.n	8004a98 <print_pos_update+0xa4>
 8004a96:	e0e7      	b.n	8004c68 <print_pos_update+0x274>
 8004a98:	2aa7      	cmp	r2, #167	; 0xa7
 8004a9a:	dc59      	bgt.n	8004b50 <print_pos_update+0x15c>
 8004a9c:	2100      	movs	r1, #0
 8004a9e:	4650      	mov	r0, sl
 8004aa0:	8001      	strh	r1, [r0, #0]
 8004aa2:	4658      	mov	r0, fp
 8004aa4:	31a0      	adds	r1, #160	; 0xa0
 8004aa6:	8001      	strh	r1, [r0, #0]
 8004aa8:	9107      	str	r1, [sp, #28]
 8004aaa:	2100      	movs	r1, #0
 8004aac:	2000      	movs	r0, #0
 8004aae:	9105      	str	r1, [sp, #20]
 8004ab0:	31a0      	adds	r1, #160	; 0xa0
 8004ab2:	4282      	cmp	r2, r0
 8004ab4:	dc51      	bgt.n	8004b5a <print_pos_update+0x166>
 8004ab6:	2304      	movs	r3, #4
 8004ab8:	9a03      	ldr	r2, [sp, #12]
 8004aba:	2500      	movs	r5, #0
 8004abc:	7013      	strb	r3, [r2, #0]
 8004abe:	4a77      	ldr	r2, [pc, #476]	; (8004c9c <print_pos_update+0x2a8>)
 8004ac0:	7834      	ldrb	r4, [r6, #0]
 8004ac2:	7013      	strb	r3, [r2, #0]
 8004ac4:	4643      	mov	r3, r8
 8004ac6:	801d      	strh	r5, [r3, #0]
 8004ac8:	464b      	mov	r3, r9
 8004aca:	4652      	mov	r2, sl
 8004acc:	801d      	strh	r5, [r3, #0]
 8004ace:	2390      	movs	r3, #144	; 0x90
 8004ad0:	8013      	strh	r3, [r2, #0]
 8004ad2:	465a      	mov	r2, fp
 8004ad4:	3b10      	subs	r3, #16
 8004ad6:	0031      	movs	r1, r6
 8004ad8:	486e      	ldr	r0, [pc, #440]	; (8004c94 <print_pos_update+0x2a0>)
 8004ada:	703c      	strb	r4, [r7, #0]
 8004adc:	8013      	strh	r3, [r2, #0]
 8004ade:	f002 fd74 	bl	80075ca <strcpy>
 8004ae2:	2c0a      	cmp	r4, #10
 8004ae4:	d02e      	beq.n	8004b44 <print_pos_update+0x150>
 8004ae6:	2c0d      	cmp	r4, #13
 8004ae8:	d09d      	beq.n	8004a26 <print_pos_update+0x32>
 8004aea:	4b72      	ldr	r3, [pc, #456]	; (8004cb4 <print_pos_update+0x2c0>)
 8004aec:	2200      	movs	r2, #0
 8004aee:	5e9a      	ldrsh	r2, [r3, r2]
 8004af0:	4b71      	ldr	r3, [pc, #452]	; (8004cb8 <print_pos_update+0x2c4>)
 8004af2:	781b      	ldrb	r3, [r3, #0]
 8004af4:	2b00      	cmp	r3, #0
 8004af6:	d100      	bne.n	8004afa <print_pos_update+0x106>
 8004af8:	e0ae      	b.n	8004c58 <print_pos_update+0x264>
 8004afa:	2aa7      	cmp	r2, #167	; 0xa7
 8004afc:	dc66      	bgt.n	8004bcc <print_pos_update+0x1d8>
 8004afe:	4653      	mov	r3, sl
 8004b00:	4659      	mov	r1, fp
 8004b02:	801d      	strh	r5, [r3, #0]
 8004b04:	23a0      	movs	r3, #160	; 0xa0
 8004b06:	800b      	strh	r3, [r1, #0]
 8004b08:	21a0      	movs	r1, #160	; 0xa0
 8004b0a:	9104      	str	r1, [sp, #16]
 8004b0c:	2100      	movs	r1, #0
 8004b0e:	2000      	movs	r0, #0
 8004b10:	4688      	mov	r8, r1
 8004b12:	3b88      	subs	r3, #136	; 0x88
 8004b14:	31a0      	adds	r1, #160	; 0xa0
 8004b16:	4282      	cmp	r2, r0
 8004b18:	dc5e      	bgt.n	8004bd8 <print_pos_update+0x1e4>
 8004b1a:	4652      	mov	r2, sl
 8004b1c:	8013      	strh	r3, [r2, #0]
 8004b1e:	e782      	b.n	8004a26 <print_pos_update+0x32>
 8004b20:	485c      	ldr	r0, [pc, #368]	; (8004c94 <print_pos_update+0x2a0>)
 8004b22:	f7fb faf1 	bl	8000108 <strlen>
 8004b26:	4b65      	ldr	r3, [pc, #404]	; (8004cbc <print_pos_update+0x2c8>)
 8004b28:	b2c1      	uxtb	r1, r0
 8004b2a:	881b      	ldrh	r3, [r3, #0]
 8004b2c:	2200      	movs	r2, #0
 8004b2e:	9301      	str	r3, [sp, #4]
 8004b30:	4b59      	ldr	r3, [pc, #356]	; (8004c98 <print_pos_update+0x2a4>)
 8004b32:	4858      	ldr	r0, [pc, #352]	; (8004c94 <print_pos_update+0x2a0>)
 8004b34:	9303      	str	r3, [sp, #12]
 8004b36:	781b      	ldrb	r3, [r3, #0]
 8004b38:	9300      	str	r3, [sp, #0]
 8004b3a:	2300      	movs	r3, #0
 8004b3c:	f7ff fb4e 	bl	80041dc <LCD_draw_text_helper>
 8004b40:	9a03      	ldr	r2, [sp, #12]
 8004b42:	e780      	b.n	8004a46 <print_pos_update+0x52>
 8004b44:	4653      	mov	r3, sl
 8004b46:	465a      	mov	r2, fp
 8004b48:	801d      	strh	r5, [r3, #0]
 8004b4a:	23a0      	movs	r3, #160	; 0xa0
 8004b4c:	8013      	strh	r3, [r2, #0]
 8004b4e:	e76a      	b.n	8004a26 <print_pos_update+0x32>
 8004b50:	2280      	movs	r2, #128	; 0x80
 8004b52:	2180      	movs	r1, #128	; 0x80
 8004b54:	9207      	str	r2, [sp, #28]
 8004b56:	3210      	adds	r2, #16
 8004b58:	9205      	str	r2, [sp, #20]
 8004b5a:	4a59      	ldr	r2, [pc, #356]	; (8004cc0 <print_pos_update+0x2cc>)
 8004b5c:	2000      	movs	r0, #0
 8004b5e:	5e12      	ldrsh	r2, [r2, r0]
 8004b60:	428a      	cmp	r2, r1
 8004b62:	dda8      	ble.n	8004ab6 <print_pos_update+0xc2>
 8004b64:	4a57      	ldr	r2, [pc, #348]	; (8004cc4 <print_pos_update+0x2d0>)
 8004b66:	7812      	ldrb	r2, [r2, #0]
 8004b68:	2a00      	cmp	r2, #0
 8004b6a:	d100      	bne.n	8004b6e <print_pos_update+0x17a>
 8004b6c:	e088      	b.n	8004c80 <print_pos_update+0x28c>
 8004b6e:	009a      	lsls	r2, r3, #2
 8004b70:	18d3      	adds	r3, r2, r3
 8004b72:	4a55      	ldr	r2, [pc, #340]	; (8004cc8 <print_pos_update+0x2d4>)
 8004b74:	189b      	adds	r3, r3, r2
 8004b76:	9306      	str	r3, [sp, #24]
 8004b78:	9b05      	ldr	r3, [sp, #20]
 8004b7a:	3314      	adds	r3, #20
 8004b7c:	b29b      	uxth	r3, r3
 8004b7e:	9308      	str	r3, [sp, #32]
 8004b80:	9b07      	ldr	r3, [sp, #28]
 8004b82:	3320      	adds	r3, #32
 8004b84:	9302      	str	r3, [sp, #8]
 8004b86:	9b06      	ldr	r3, [sp, #24]
 8004b88:	9c07      	ldr	r4, [sp, #28]
 8004b8a:	781d      	ldrb	r5, [r3, #0]
 8004b8c:	466b      	mov	r3, sp
 8004b8e:	2214      	movs	r2, #20
 8004b90:	5e9b      	ldrsh	r3, [r3, r2]
 8004b92:	9304      	str	r3, [sp, #16]
 8004b94:	2301      	movs	r3, #1
 8004b96:	422b      	tst	r3, r5
 8004b98:	d007      	beq.n	8004baa <print_pos_update+0x1b6>
 8004b9a:	4b4c      	ldr	r3, [pc, #304]	; (8004ccc <print_pos_update+0x2d8>)
 8004b9c:	b221      	sxth	r1, r4
 8004b9e:	9300      	str	r3, [sp, #0]
 8004ba0:	2204      	movs	r2, #4
 8004ba2:	2304      	movs	r3, #4
 8004ba4:	9804      	ldr	r0, [sp, #16]
 8004ba6:	f7fe fda9 	bl	80036fc <fillRect.part.1>
 8004baa:	3404      	adds	r4, #4
 8004bac:	9b02      	ldr	r3, [sp, #8]
 8004bae:	b2a4      	uxth	r4, r4
 8004bb0:	086d      	lsrs	r5, r5, #1
 8004bb2:	42a3      	cmp	r3, r4
 8004bb4:	d1ee      	bne.n	8004b94 <print_pos_update+0x1a0>
 8004bb6:	9b06      	ldr	r3, [sp, #24]
 8004bb8:	9a08      	ldr	r2, [sp, #32]
 8004bba:	3301      	adds	r3, #1
 8004bbc:	9306      	str	r3, [sp, #24]
 8004bbe:	9b05      	ldr	r3, [sp, #20]
 8004bc0:	3304      	adds	r3, #4
 8004bc2:	b29b      	uxth	r3, r3
 8004bc4:	9305      	str	r3, [sp, #20]
 8004bc6:	429a      	cmp	r2, r3
 8004bc8:	d1dd      	bne.n	8004b86 <print_pos_update+0x192>
 8004bca:	e774      	b.n	8004ab6 <print_pos_update+0xc2>
 8004bcc:	2280      	movs	r2, #128	; 0x80
 8004bce:	9204      	str	r2, [sp, #16]
 8004bd0:	3210      	adds	r2, #16
 8004bd2:	2180      	movs	r1, #128	; 0x80
 8004bd4:	23a8      	movs	r3, #168	; 0xa8
 8004bd6:	4690      	mov	r8, r2
 8004bd8:	4a39      	ldr	r2, [pc, #228]	; (8004cc0 <print_pos_update+0x2cc>)
 8004bda:	2000      	movs	r0, #0
 8004bdc:	5e12      	ldrsh	r2, [r2, r0]
 8004bde:	428a      	cmp	r2, r1
 8004be0:	dd9b      	ble.n	8004b1a <print_pos_update+0x126>
 8004be2:	4b38      	ldr	r3, [pc, #224]	; (8004cc4 <print_pos_update+0x2d0>)
 8004be4:	781b      	ldrb	r3, [r3, #0]
 8004be6:	2b00      	cmp	r3, #0
 8004be8:	d045      	beq.n	8004c76 <print_pos_update+0x282>
 8004bea:	00a3      	lsls	r3, r4, #2
 8004bec:	191c      	adds	r4, r3, r4
 8004bee:	4b36      	ldr	r3, [pc, #216]	; (8004cc8 <print_pos_update+0x2d4>)
 8004bf0:	9f04      	ldr	r7, [sp, #16]
 8004bf2:	18e3      	adds	r3, r4, r3
 8004bf4:	9302      	str	r3, [sp, #8]
 8004bf6:	4643      	mov	r3, r8
 8004bf8:	3314      	adds	r3, #20
 8004bfa:	b29b      	uxth	r3, r3
 8004bfc:	9305      	str	r3, [sp, #20]
 8004bfe:	2300      	movs	r3, #0
 8004c00:	469b      	mov	fp, r3
 8004c02:	3720      	adds	r7, #32
 8004c04:	9b02      	ldr	r3, [sp, #8]
 8004c06:	2601      	movs	r6, #1
 8004c08:	781d      	ldrb	r5, [r3, #0]
 8004c0a:	4643      	mov	r3, r8
 8004c0c:	b21b      	sxth	r3, r3
 8004c0e:	4699      	mov	r9, r3
 8004c10:	9c04      	ldr	r4, [sp, #16]
 8004c12:	422e      	tst	r6, r5
 8004c14:	d007      	beq.n	8004c26 <print_pos_update+0x232>
 8004c16:	465b      	mov	r3, fp
 8004c18:	b221      	sxth	r1, r4
 8004c1a:	9300      	str	r3, [sp, #0]
 8004c1c:	2204      	movs	r2, #4
 8004c1e:	2304      	movs	r3, #4
 8004c20:	4648      	mov	r0, r9
 8004c22:	f7fe fd6b 	bl	80036fc <fillRect.part.1>
 8004c26:	3404      	adds	r4, #4
 8004c28:	b2a4      	uxth	r4, r4
 8004c2a:	086d      	lsrs	r5, r5, #1
 8004c2c:	42a7      	cmp	r7, r4
 8004c2e:	d1f0      	bne.n	8004c12 <print_pos_update+0x21e>
 8004c30:	9b02      	ldr	r3, [sp, #8]
 8004c32:	3301      	adds	r3, #1
 8004c34:	9302      	str	r3, [sp, #8]
 8004c36:	4643      	mov	r3, r8
 8004c38:	3304      	adds	r3, #4
 8004c3a:	b29b      	uxth	r3, r3
 8004c3c:	4698      	mov	r8, r3
 8004c3e:	9b05      	ldr	r3, [sp, #20]
 8004c40:	4543      	cmp	r3, r8
 8004c42:	d1df      	bne.n	8004c04 <print_pos_update+0x210>
 8004c44:	9b03      	ldr	r3, [sp, #12]
 8004c46:	781b      	ldrb	r3, [r3, #0]
 8004c48:	005a      	lsls	r2, r3, #1
 8004c4a:	189b      	adds	r3, r3, r2
 8004c4c:	4652      	mov	r2, sl
 8004c4e:	8812      	ldrh	r2, [r2, #0]
 8004c50:	005b      	lsls	r3, r3, #1
 8004c52:	189b      	adds	r3, r3, r2
 8004c54:	b21b      	sxth	r3, r3
 8004c56:	e760      	b.n	8004b1a <print_pos_update+0x126>
 8004c58:	2180      	movs	r1, #128	; 0x80
 8004c5a:	9104      	str	r1, [sp, #16]
 8004c5c:	3110      	adds	r1, #16
 8004c5e:	4688      	mov	r8, r1
 8004c60:	23a8      	movs	r3, #168	; 0xa8
 8004c62:	3910      	subs	r1, #16
 8004c64:	2090      	movs	r0, #144	; 0x90
 8004c66:	e756      	b.n	8004b16 <print_pos_update+0x122>
 8004c68:	2180      	movs	r1, #128	; 0x80
 8004c6a:	9107      	str	r1, [sp, #28]
 8004c6c:	3110      	adds	r1, #16
 8004c6e:	9105      	str	r1, [sp, #20]
 8004c70:	2090      	movs	r0, #144	; 0x90
 8004c72:	3910      	subs	r1, #16
 8004c74:	e71d      	b.n	8004ab2 <print_pos_update+0xbe>
 8004c76:	2caf      	cmp	r4, #175	; 0xaf
 8004c78:	d9b7      	bls.n	8004bea <print_pos_update+0x1f6>
 8004c7a:	3401      	adds	r4, #1
 8004c7c:	b2e4      	uxtb	r4, r4
 8004c7e:	e7b4      	b.n	8004bea <print_pos_update+0x1f6>
 8004c80:	2baf      	cmp	r3, #175	; 0xaf
 8004c82:	d800      	bhi.n	8004c86 <print_pos_update+0x292>
 8004c84:	e773      	b.n	8004b6e <print_pos_update+0x17a>
 8004c86:	3301      	adds	r3, #1
 8004c88:	b2db      	uxtb	r3, r3
 8004c8a:	e770      	b.n	8004b6e <print_pos_update+0x17a>
 8004c8c:	20000f60 	.word	0x20000f60
 8004c90:	20000d74 	.word	0x20000d74
 8004c94:	20000f80 	.word	0x20000f80
 8004c98:	20000fa8 	.word	0x20000fa8
 8004c9c:	200014b2 	.word	0x200014b2
 8004ca0:	20000fa9 	.word	0x20000fa9
 8004ca4:	200014b0 	.word	0x200014b0
 8004ca8:	200014b4 	.word	0x200014b4
 8004cac:	2000148c 	.word	0x2000148c
 8004cb0:	20000f6c 	.word	0x20000f6c
 8004cb4:	20001410 	.word	0x20001410
 8004cb8:	2000148e 	.word	0x2000148e
 8004cbc:	20000f7c 	.word	0x20000f7c
 8004cc0:	20001490 	.word	0x20001490
 8004cc4:	20000fb4 	.word	0x20000fb4
 8004cc8:	08007748 	.word	0x08007748
 8004ccc:	0000ffff 	.word	0x0000ffff

08004cd0 <erase_update>:
 8004cd0:	b5f0      	push	{r4, r5, r6, r7, lr}
 8004cd2:	46de      	mov	lr, fp
 8004cd4:	4657      	mov	r7, sl
 8004cd6:	464e      	mov	r6, r9
 8004cd8:	4645      	mov	r5, r8
 8004cda:	2304      	movs	r3, #4
 8004cdc:	b5e0      	push	{r5, r6, r7, lr}
 8004cde:	4a56      	ldr	r2, [pc, #344]	; (8004e38 <erase_update+0x168>)
 8004ce0:	4f56      	ldr	r7, [pc, #344]	; (8004e3c <erase_update+0x16c>)
 8004ce2:	7013      	strb	r3, [r2, #0]
 8004ce4:	703b      	strb	r3, [r7, #0]
 8004ce6:	4b56      	ldr	r3, [pc, #344]	; (8004e40 <erase_update+0x170>)
 8004ce8:	4690      	mov	r8, r2
 8004cea:	469a      	mov	sl, r3
 8004cec:	2301      	movs	r3, #1
 8004cee:	4652      	mov	r2, sl
 8004cf0:	425b      	negs	r3, r3
 8004cf2:	8013      	strh	r3, [r2, #0]
 8004cf4:	4a53      	ldr	r2, [pc, #332]	; (8004e44 <erase_update+0x174>)
 8004cf6:	4d54      	ldr	r5, [pc, #336]	; (8004e48 <erase_update+0x178>)
 8004cf8:	8013      	strh	r3, [r2, #0]
 8004cfa:	2300      	movs	r3, #0
 8004cfc:	4e53      	ldr	r6, [pc, #332]	; (8004e4c <erase_update+0x17c>)
 8004cfe:	802b      	strh	r3, [r5, #0]
 8004d00:	8033      	strh	r3, [r6, #0]
 8004d02:	4c53      	ldr	r4, [pc, #332]	; (8004e50 <erase_update+0x180>)
 8004d04:	4b53      	ldr	r3, [pc, #332]	; (8004e54 <erase_update+0x184>)
 8004d06:	b089      	sub	sp, #36	; 0x24
 8004d08:	4693      	mov	fp, r2
 8004d0a:	0021      	movs	r1, r4
 8004d0c:	220f      	movs	r2, #15
 8004d0e:	0018      	movs	r0, r3
 8004d10:	9304      	str	r3, [sp, #16]
 8004d12:	f002 fc49 	bl	80075a8 <memcpy>
 8004d16:	e03d      	b.n	8004d94 <erase_update+0xc4>
 8004d18:	2a0d      	cmp	r2, #13
 8004d1a:	d037      	beq.n	8004d8c <erase_update+0xbc>
 8004d1c:	2300      	movs	r3, #0
 8004d1e:	5ee8      	ldrsh	r0, [r5, r3]
 8004d20:	783b      	ldrb	r3, [r7, #0]
 8004d22:	9005      	str	r0, [sp, #20]
 8004d24:	469c      	mov	ip, r3
 8004d26:	4643      	mov	r3, r8
 8004d28:	781b      	ldrb	r3, [r3, #0]
 8004d2a:	2000      	movs	r0, #0
 8004d2c:	5e31      	ldrsh	r1, [r6, r0]
 8004d2e:	9306      	str	r3, [sp, #24]
 8004d30:	4b49      	ldr	r3, [pc, #292]	; (8004e58 <erase_update+0x188>)
 8004d32:	781b      	ldrb	r3, [r3, #0]
 8004d34:	2b00      	cmp	r3, #0
 8004d36:	d016      	beq.n	8004d66 <erase_update+0x96>
 8004d38:	4660      	mov	r0, ip
 8004d3a:	0043      	lsls	r3, r0, #1
 8004d3c:	9805      	ldr	r0, [sp, #20]
 8004d3e:	4463      	add	r3, ip
 8004d40:	4681      	mov	r9, r0
 8004d42:	005b      	lsls	r3, r3, #1
 8004d44:	444b      	add	r3, r9
 8004d46:	4845      	ldr	r0, [pc, #276]	; (8004e5c <erase_update+0x18c>)
 8004d48:	9307      	str	r3, [sp, #28]
 8004d4a:	2300      	movs	r3, #0
 8004d4c:	5ec0      	ldrsh	r0, [r0, r3]
 8004d4e:	9b07      	ldr	r3, [sp, #28]
 8004d50:	4283      	cmp	r3, r0
 8004d52:	dd08      	ble.n	8004d66 <erase_update+0x96>
 8004d54:	9b06      	ldr	r3, [sp, #24]
 8004d56:	2000      	movs	r0, #0
 8004d58:	00db      	lsls	r3, r3, #3
 8004d5a:	1859      	adds	r1, r3, r1
 8004d5c:	2300      	movs	r3, #0
 8004d5e:	b209      	sxth	r1, r1
 8004d60:	8028      	strh	r0, [r5, #0]
 8004d62:	8031      	strh	r1, [r6, #0]
 8004d64:	9305      	str	r3, [sp, #20]
 8004d66:	465b      	mov	r3, fp
 8004d68:	9806      	ldr	r0, [sp, #24]
 8004d6a:	881b      	ldrh	r3, [r3, #0]
 8004d6c:	9002      	str	r0, [sp, #8]
 8004d6e:	4660      	mov	r0, ip
 8004d70:	9001      	str	r0, [sp, #4]
 8004d72:	4650      	mov	r0, sl
 8004d74:	8800      	ldrh	r0, [r0, #0]
 8004d76:	9000      	str	r0, [sp, #0]
 8004d78:	9805      	ldr	r0, [sp, #20]
 8004d7a:	f7ff f913 	bl	8003fa4 <drawChar>
 8004d7e:	783b      	ldrb	r3, [r7, #0]
 8004d80:	005a      	lsls	r2, r3, #1
 8004d82:	189b      	adds	r3, r3, r2
 8004d84:	882a      	ldrh	r2, [r5, #0]
 8004d86:	005b      	lsls	r3, r3, #1
 8004d88:	189b      	adds	r3, r3, r2
 8004d8a:	802b      	strh	r3, [r5, #0]
 8004d8c:	4b34      	ldr	r3, [pc, #208]	; (8004e60 <erase_update+0x190>)
 8004d8e:	3401      	adds	r4, #1
 8004d90:	42a3      	cmp	r3, r4
 8004d92:	d00e      	beq.n	8004db2 <erase_update+0xe2>
 8004d94:	7822      	ldrb	r2, [r4, #0]
 8004d96:	2a0a      	cmp	r2, #10
 8004d98:	d1be      	bne.n	8004d18 <erase_update+0x48>
 8004d9a:	2300      	movs	r3, #0
 8004d9c:	802b      	strh	r3, [r5, #0]
 8004d9e:	4643      	mov	r3, r8
 8004da0:	781b      	ldrb	r3, [r3, #0]
 8004da2:	8832      	ldrh	r2, [r6, #0]
 8004da4:	00db      	lsls	r3, r3, #3
 8004da6:	189b      	adds	r3, r3, r2
 8004da8:	8033      	strh	r3, [r6, #0]
 8004daa:	4b2d      	ldr	r3, [pc, #180]	; (8004e60 <erase_update+0x190>)
 8004dac:	3401      	adds	r4, #1
 8004dae:	42a3      	cmp	r3, r4
 8004db0:	d1f0      	bne.n	8004d94 <erase_update+0xc4>
 8004db2:	2304      	movs	r3, #4
 8004db4:	4642      	mov	r2, r8
 8004db6:	7013      	strb	r3, [r2, #0]
 8004db8:	4652      	mov	r2, sl
 8004dba:	703b      	strb	r3, [r7, #0]
 8004dbc:	3b05      	subs	r3, #5
 8004dbe:	8013      	strh	r3, [r2, #0]
 8004dc0:	465a      	mov	r2, fp
 8004dc2:	4c28      	ldr	r4, [pc, #160]	; (8004e64 <erase_update+0x194>)
 8004dc4:	8013      	strh	r3, [r2, #0]
 8004dc6:	3391      	adds	r3, #145	; 0x91
 8004dc8:	802b      	strh	r3, [r5, #0]
 8004dca:	0021      	movs	r1, r4
 8004dcc:	3b10      	subs	r3, #16
 8004dce:	9804      	ldr	r0, [sp, #16]
 8004dd0:	8033      	strh	r3, [r6, #0]
 8004dd2:	f002 fbfa 	bl	80075ca <strcpy>
 8004dd6:	7822      	ldrb	r2, [r4, #0]
 8004dd8:	2a0a      	cmp	r2, #10
 8004dda:	d028      	beq.n	8004e2e <erase_update+0x15e>
 8004ddc:	2a0d      	cmp	r2, #13
 8004dde:	d01c      	beq.n	8004e1a <erase_update+0x14a>
 8004de0:	4b1d      	ldr	r3, [pc, #116]	; (8004e58 <erase_update+0x188>)
 8004de2:	781b      	ldrb	r3, [r3, #0]
 8004de4:	2b00      	cmp	r3, #0
 8004de6:	d01f      	beq.n	8004e28 <erase_update+0x158>
 8004de8:	4b1c      	ldr	r3, [pc, #112]	; (8004e5c <erase_update+0x18c>)
 8004dea:	2100      	movs	r1, #0
 8004dec:	5e5b      	ldrsh	r3, [r3, r1]
 8004dee:	2ba7      	cmp	r3, #167	; 0xa7
 8004df0:	dc1a      	bgt.n	8004e28 <erase_update+0x158>
 8004df2:	2300      	movs	r3, #0
 8004df4:	21a0      	movs	r1, #160	; 0xa0
 8004df6:	2000      	movs	r0, #0
 8004df8:	802b      	strh	r3, [r5, #0]
 8004dfa:	33a0      	adds	r3, #160	; 0xa0
 8004dfc:	8033      	strh	r3, [r6, #0]
 8004dfe:	2404      	movs	r4, #4
 8004e00:	4b19      	ldr	r3, [pc, #100]	; (8004e68 <erase_update+0x198>)
 8004e02:	9402      	str	r4, [sp, #8]
 8004e04:	9300      	str	r3, [sp, #0]
 8004e06:	9401      	str	r4, [sp, #4]
 8004e08:	f7ff f8cc 	bl	8003fa4 <drawChar>
 8004e0c:	783b      	ldrb	r3, [r7, #0]
 8004e0e:	005a      	lsls	r2, r3, #1
 8004e10:	189b      	adds	r3, r3, r2
 8004e12:	882a      	ldrh	r2, [r5, #0]
 8004e14:	005b      	lsls	r3, r3, #1
 8004e16:	189b      	adds	r3, r3, r2
 8004e18:	802b      	strh	r3, [r5, #0]
 8004e1a:	b009      	add	sp, #36	; 0x24
 8004e1c:	bc3c      	pop	{r2, r3, r4, r5}
 8004e1e:	4690      	mov	r8, r2
 8004e20:	4699      	mov	r9, r3
 8004e22:	46a2      	mov	sl, r4
 8004e24:	46ab      	mov	fp, r5
 8004e26:	bdf0      	pop	{r4, r5, r6, r7, pc}
 8004e28:	2180      	movs	r1, #128	; 0x80
 8004e2a:	2090      	movs	r0, #144	; 0x90
 8004e2c:	e7e7      	b.n	8004dfe <erase_update+0x12e>
 8004e2e:	2300      	movs	r3, #0
 8004e30:	802b      	strh	r3, [r5, #0]
 8004e32:	33a0      	adds	r3, #160	; 0xa0
 8004e34:	8033      	strh	r3, [r6, #0]
 8004e36:	e7f0      	b.n	8004e1a <erase_update+0x14a>
 8004e38:	200014b2 	.word	0x200014b2
 8004e3c:	20000fa8 	.word	0x20000fa8
 8004e40:	200014b0 	.word	0x200014b0
 8004e44:	200014b4 	.word	0x200014b4
 8004e48:	2000148c 	.word	0x2000148c
 8004e4c:	20000f6c 	.word	0x20000f6c
 8004e50:	08007d70 	.word	0x08007d70
 8004e54:	20000f80 	.word	0x20000f80
 8004e58:	2000148e 	.word	0x2000148e
 8004e5c:	20001410 	.word	0x20001410
 8004e60:	08007d7e 	.word	0x08007d7e
 8004e64:	20000fa9 	.word	0x20000fa9
 8004e68:	0000ffff 	.word	0x0000ffff

08004e6c <print_race_end>:
 8004e6c:	b5f0      	push	{r4, r5, r6, r7, lr}
 8004e6e:	46c6      	mov	lr, r8
 8004e70:	b500      	push	{lr}
 8004e72:	b08c      	sub	sp, #48	; 0x30
 8004e74:	ad02      	add	r5, sp, #8
 8004e76:	002a      	movs	r2, r5
 8004e78:	4b3c      	ldr	r3, [pc, #240]	; (8004f6c <print_race_end+0x100>)
 8004e7a:	0006      	movs	r6, r0
 8004e7c:	cb13      	ldmia	r3!, {r0, r1, r4}
 8004e7e:	c213      	stmia	r2!, {r0, r1, r4}
 8004e80:	881b      	ldrh	r3, [r3, #0]
 8004e82:	ac06      	add	r4, sp, #24
 8004e84:	8013      	strh	r3, [r2, #0]
 8004e86:	0022      	movs	r2, r4
 8004e88:	4b39      	ldr	r3, [pc, #228]	; (8004f70 <print_race_end+0x104>)
 8004e8a:	cb83      	ldmia	r3!, {r0, r1, r7}
 8004e8c:	c283      	stmia	r2!, {r0, r1, r7}
 8004e8e:	cb03      	ldmia	r3!, {r0, r1}
 8004e90:	c203      	stmia	r2!, {r0, r1}
 8004e92:	8819      	ldrh	r1, [r3, #0]
 8004e94:	4f37      	ldr	r7, [pc, #220]	; (8004f74 <print_race_end+0x108>)
 8004e96:	8011      	strh	r1, [r2, #0]
 8004e98:	789b      	ldrb	r3, [r3, #2]
 8004e9a:	7093      	strb	r3, [r2, #2]
 8004e9c:	783b      	ldrb	r3, [r7, #0]
 8004e9e:	2b01      	cmp	r3, #1
 8004ea0:	d061      	beq.n	8004f66 <print_race_end+0xfa>
 8004ea2:	2b02      	cmp	r3, #2
 8004ea4:	d03b      	beq.n	8004f1e <print_race_end+0xb2>
 8004ea6:	2302      	movs	r3, #2
 8004ea8:	0028      	movs	r0, r5
 8004eaa:	703b      	strb	r3, [r7, #0]
 8004eac:	f7fb f92c 	bl	8000108 <strlen>
 8004eb0:	4f31      	ldr	r7, [pc, #196]	; (8004f78 <print_race_end+0x10c>)
 8004eb2:	b2c3      	uxtb	r3, r0
 8004eb4:	4698      	mov	r8, r3
 8004eb6:	783b      	ldrb	r3, [r7, #0]
 8004eb8:	2b00      	cmp	r3, #0
 8004eba:	d144      	bne.n	8004f46 <print_race_end+0xda>
 8004ebc:	23f8      	movs	r3, #248	; 0xf8
 8004ebe:	021b      	lsls	r3, r3, #8
 8004ec0:	9301      	str	r3, [sp, #4]
 8004ec2:	2304      	movs	r3, #4
 8004ec4:	0028      	movs	r0, r5
 8004ec6:	9300      	str	r3, [sp, #0]
 8004ec8:	2200      	movs	r2, #0
 8004eca:	2300      	movs	r3, #0
 8004ecc:	4641      	mov	r1, r8
 8004ece:	f7ff f985 	bl	80041dc <LCD_draw_text_helper>
 8004ed2:	0020      	movs	r0, r4
 8004ed4:	f7fb f918 	bl	8000108 <strlen>
 8004ed8:	783b      	ldrb	r3, [r7, #0]
 8004eda:	b2c5      	uxtb	r5, r0
 8004edc:	2b00      	cmp	r3, #0
 8004ede:	d122      	bne.n	8004f26 <print_race_end+0xba>
 8004ee0:	2700      	movs	r7, #0
 8004ee2:	2303      	movs	r3, #3
 8004ee4:	2200      	movs	r2, #0
 8004ee6:	0029      	movs	r1, r5
 8004ee8:	9300      	str	r3, [sp, #0]
 8004eea:	0020      	movs	r0, r4
 8004eec:	2300      	movs	r3, #0
 8004eee:	9701      	str	r7, [sp, #4]
 8004ef0:	f7ff f974 	bl	80041dc <LCD_draw_text_helper>
 8004ef4:	0030      	movs	r0, r6
 8004ef6:	f7fb f907 	bl	8000108 <strlen>
 8004efa:	b2c1      	uxtb	r1, r0
 8004efc:	2004      	movs	r0, #4
 8004efe:	4b1f      	ldr	r3, [pc, #124]	; (8004f7c <print_race_end+0x110>)
 8004f00:	4a1f      	ldr	r2, [pc, #124]	; (8004f80 <print_race_end+0x114>)
 8004f02:	881b      	ldrh	r3, [r3, #0]
 8004f04:	8812      	ldrh	r2, [r2, #0]
 8004f06:	9000      	str	r0, [sp, #0]
 8004f08:	9701      	str	r7, [sp, #4]
 8004f0a:	0030      	movs	r0, r6
 8004f0c:	f7ff f966 	bl	80041dc <LCD_draw_text_helper>
 8004f10:	0031      	movs	r1, r6
 8004f12:	481c      	ldr	r0, [pc, #112]	; (8004f84 <print_race_end+0x118>)
 8004f14:	f002 fb59 	bl	80075ca <strcpy>
 8004f18:	2201      	movs	r2, #1
 8004f1a:	4b1b      	ldr	r3, [pc, #108]	; (8004f88 <print_race_end+0x11c>)
 8004f1c:	701a      	strb	r2, [r3, #0]
 8004f1e:	b00c      	add	sp, #48	; 0x30
 8004f20:	bc04      	pop	{r2}
 8004f22:	4690      	mov	r8, r2
 8004f24:	bdf0      	pop	{r4, r5, r6, r7, pc}
 8004f26:	0038      	movs	r0, r7
 8004f28:	f7fb f8ee 	bl	8000108 <strlen>
 8004f2c:	4b17      	ldr	r3, [pc, #92]	; (8004f8c <print_race_end+0x120>)
 8004f2e:	b2c1      	uxtb	r1, r0
 8004f30:	881b      	ldrh	r3, [r3, #0]
 8004f32:	2200      	movs	r2, #0
 8004f34:	9301      	str	r3, [sp, #4]
 8004f36:	4b16      	ldr	r3, [pc, #88]	; (8004f90 <print_race_end+0x124>)
 8004f38:	0038      	movs	r0, r7
 8004f3a:	781b      	ldrb	r3, [r3, #0]
 8004f3c:	9300      	str	r3, [sp, #0]
 8004f3e:	2300      	movs	r3, #0
 8004f40:	f7ff f94c 	bl	80041dc <LCD_draw_text_helper>
 8004f44:	e7cc      	b.n	8004ee0 <print_race_end+0x74>
 8004f46:	0038      	movs	r0, r7
 8004f48:	f7fb f8de 	bl	8000108 <strlen>
 8004f4c:	4b0f      	ldr	r3, [pc, #60]	; (8004f8c <print_race_end+0x120>)
 8004f4e:	b2c1      	uxtb	r1, r0
 8004f50:	881b      	ldrh	r3, [r3, #0]
 8004f52:	2200      	movs	r2, #0
 8004f54:	9301      	str	r3, [sp, #4]
 8004f56:	4b0e      	ldr	r3, [pc, #56]	; (8004f90 <print_race_end+0x124>)
 8004f58:	0038      	movs	r0, r7
 8004f5a:	781b      	ldrb	r3, [r3, #0]
 8004f5c:	9300      	str	r3, [sp, #0]
 8004f5e:	2300      	movs	r3, #0
 8004f60:	f7ff f93c 	bl	80041dc <LCD_draw_text_helper>
 8004f64:	e7aa      	b.n	8004ebc <print_race_end+0x50>
 8004f66:	f7ff feb3 	bl	8004cd0 <erase_update>
 8004f6a:	e79c      	b.n	8004ea6 <print_race_end+0x3a>
 8004f6c:	08007d08 	.word	0x08007d08
 8004f70:	08007d18 	.word	0x08007d18
 8004f74:	20000d74 	.word	0x20000d74
 8004f78:	20000f80 	.word	0x20000f80
 8004f7c:	20000f6c 	.word	0x20000f6c
 8004f80:	2000148c 	.word	0x2000148c
 8004f84:	20001494 	.word	0x20001494
 8004f88:	20000f60 	.word	0x20000f60
 8004f8c:	20000f7c 	.word	0x20000f7c
 8004f90:	20000fa8 	.word	0x20000fa8

08004f94 <print_gps_rip>:
 8004f94:	b5f0      	push	{r4, r5, r6, r7, lr}
 8004f96:	b093      	sub	sp, #76	; 0x4c
 8004f98:	ac08      	add	r4, sp, #32
 8004f9a:	0022      	movs	r2, r4
 8004f9c:	4b2f      	ldr	r3, [pc, #188]	; (800505c <print_gps_rip+0xc8>)
 8004f9e:	4e30      	ldr	r6, [pc, #192]	; (8005060 <print_gps_rip+0xcc>)
 8004fa0:	cb23      	ldmia	r3!, {r0, r1, r5}
 8004fa2:	c223      	stmia	r2!, {r0, r1, r5}
 8004fa4:	cb23      	ldmia	r3!, {r0, r1, r5}
 8004fa6:	c223      	stmia	r2!, {r0, r1, r5}
 8004fa8:	cb23      	ldmia	r3!, {r0, r1, r5}
 8004faa:	c223      	stmia	r2!, {r0, r1, r5}
 8004fac:	881b      	ldrh	r3, [r3, #0]
 8004fae:	8013      	strh	r3, [r2, #0]
 8004fb0:	7833      	ldrb	r3, [r6, #0]
 8004fb2:	2b01      	cmp	r3, #1
 8004fb4:	d027      	beq.n	8005006 <print_gps_rip+0x72>
 8004fb6:	2b02      	cmp	r3, #2
 8004fb8:	d02b      	beq.n	8005012 <print_gps_rip+0x7e>
 8004fba:	2b03      	cmp	r3, #3
 8004fbc:	d026      	beq.n	800500c <print_gps_rip+0x78>
 8004fbe:	0020      	movs	r0, r4
 8004fc0:	f7fb f8a2 	bl	8000108 <strlen>
 8004fc4:	4f27      	ldr	r7, [pc, #156]	; (8005064 <print_gps_rip+0xd0>)
 8004fc6:	b2c5      	uxtb	r5, r0
 8004fc8:	783b      	ldrb	r3, [r7, #0]
 8004fca:	2b00      	cmp	r3, #0
 8004fcc:	d00e      	beq.n	8004fec <print_gps_rip+0x58>
 8004fce:	0038      	movs	r0, r7
 8004fd0:	f7fb f89a 	bl	8000108 <strlen>
 8004fd4:	4b24      	ldr	r3, [pc, #144]	; (8005068 <print_gps_rip+0xd4>)
 8004fd6:	b2c1      	uxtb	r1, r0
 8004fd8:	881b      	ldrh	r3, [r3, #0]
 8004fda:	2200      	movs	r2, #0
 8004fdc:	9301      	str	r3, [sp, #4]
 8004fde:	4b23      	ldr	r3, [pc, #140]	; (800506c <print_gps_rip+0xd8>)
 8004fe0:	0038      	movs	r0, r7
 8004fe2:	781b      	ldrb	r3, [r3, #0]
 8004fe4:	9300      	str	r3, [sp, #0]
 8004fe6:	2300      	movs	r3, #0
 8004fe8:	f7ff f8f8 	bl	80041dc <LCD_draw_text_helper>
 8004fec:	2700      	movs	r7, #0
 8004fee:	2304      	movs	r3, #4
 8004ff0:	9701      	str	r7, [sp, #4]
 8004ff2:	9300      	str	r3, [sp, #0]
 8004ff4:	2200      	movs	r2, #0
 8004ff6:	2300      	movs	r3, #0
 8004ff8:	0029      	movs	r1, r5
 8004ffa:	0020      	movs	r0, r4
 8004ffc:	f7ff f8ee 	bl	80041dc <LCD_draw_text_helper>
 8005000:	7037      	strb	r7, [r6, #0]
 8005002:	b013      	add	sp, #76	; 0x4c
 8005004:	bdf0      	pop	{r4, r5, r6, r7, pc}
 8005006:	f7ff fe63 	bl	8004cd0 <erase_update>
 800500a:	e7d8      	b.n	8004fbe <print_gps_rip+0x2a>
 800500c:	f000 fed4 	bl	8005db8 <erase_end_all>
 8005010:	e7d5      	b.n	8004fbe <print_gps_rip+0x2a>
 8005012:	a802      	add	r0, sp, #8
 8005014:	0002      	movs	r2, r0
 8005016:	4b16      	ldr	r3, [pc, #88]	; (8005070 <print_gps_rip+0xdc>)
 8005018:	cba2      	ldmia	r3!, {r1, r5, r7}
 800501a:	c2a2      	stmia	r2!, {r1, r5, r7}
 800501c:	cb22      	ldmia	r3!, {r1, r5}
 800501e:	c222      	stmia	r2!, {r1, r5}
 8005020:	8819      	ldrh	r1, [r3, #0]
 8005022:	4f14      	ldr	r7, [pc, #80]	; (8005074 <print_gps_rip+0xe0>)
 8005024:	8011      	strh	r1, [r2, #0]
 8005026:	789b      	ldrb	r3, [r3, #2]
 8005028:	2116      	movs	r1, #22
 800502a:	7093      	strb	r3, [r2, #2]
 800502c:	2303      	movs	r3, #3
 800502e:	2200      	movs	r2, #0
 8005030:	9300      	str	r3, [sp, #0]
 8005032:	9701      	str	r7, [sp, #4]
 8005034:	2300      	movs	r3, #0
 8005036:	f7ff f8d1 	bl	80041dc <LCD_draw_text_helper>
 800503a:	4d0f      	ldr	r5, [pc, #60]	; (8005078 <print_gps_rip+0xe4>)
 800503c:	0028      	movs	r0, r5
 800503e:	f7fb f863 	bl	8000108 <strlen>
 8005042:	b2c1      	uxtb	r1, r0
 8005044:	2004      	movs	r0, #4
 8005046:	4b0d      	ldr	r3, [pc, #52]	; (800507c <print_gps_rip+0xe8>)
 8005048:	4a0d      	ldr	r2, [pc, #52]	; (8005080 <print_gps_rip+0xec>)
 800504a:	881b      	ldrh	r3, [r3, #0]
 800504c:	8812      	ldrh	r2, [r2, #0]
 800504e:	9000      	str	r0, [sp, #0]
 8005050:	9701      	str	r7, [sp, #4]
 8005052:	0028      	movs	r0, r5
 8005054:	f7ff f8c2 	bl	80041dc <LCD_draw_text_helper>
 8005058:	e7b1      	b.n	8004fbe <print_gps_rip+0x2a>
 800505a:	46c0      	nop			; (mov r8, r8)
 800505c:	08007cb8 	.word	0x08007cb8
 8005060:	20000d74 	.word	0x20000d74
 8005064:	20000f80 	.word	0x20000f80
 8005068:	20000f7c 	.word	0x20000f7c
 800506c:	20000fa8 	.word	0x20000fa8
 8005070:	08007d18 	.word	0x08007d18
 8005074:	0000ffff 	.word	0x0000ffff
 8005078:	20001494 	.word	0x20001494
 800507c:	20000f6c 	.word	0x20000f6c
 8005080:	2000148c 	.word	0x2000148c

08005084 <erase_end>:
 8005084:	b530      	push	{r4, r5, lr}
 8005086:	b089      	sub	sp, #36	; 0x24
 8005088:	a802      	add	r0, sp, #8
 800508a:	0002      	movs	r2, r0
 800508c:	4b11      	ldr	r3, [pc, #68]	; (80050d4 <erase_end+0x50>)
 800508e:	cb32      	ldmia	r3!, {r1, r4, r5}
 8005090:	c232      	stmia	r2!, {r1, r4, r5}
 8005092:	cb12      	ldmia	r3!, {r1, r4}
 8005094:	c212      	stmia	r2!, {r1, r4}
 8005096:	8819      	ldrh	r1, [r3, #0]
 8005098:	4d0f      	ldr	r5, [pc, #60]	; (80050d8 <erase_end+0x54>)
 800509a:	8011      	strh	r1, [r2, #0]
 800509c:	789b      	ldrb	r3, [r3, #2]
 800509e:	2116      	movs	r1, #22
 80050a0:	7093      	strb	r3, [r2, #2]
 80050a2:	2303      	movs	r3, #3
 80050a4:	2200      	movs	r2, #0
 80050a6:	9300      	str	r3, [sp, #0]
 80050a8:	9501      	str	r5, [sp, #4]
 80050aa:	2300      	movs	r3, #0
 80050ac:	f7ff f896 	bl	80041dc <LCD_draw_text_helper>
 80050b0:	4c0a      	ldr	r4, [pc, #40]	; (80050dc <erase_end+0x58>)
 80050b2:	0020      	movs	r0, r4
 80050b4:	f7fb f828 	bl	8000108 <strlen>
 80050b8:	b2c1      	uxtb	r1, r0
 80050ba:	2004      	movs	r0, #4
 80050bc:	4b08      	ldr	r3, [pc, #32]	; (80050e0 <erase_end+0x5c>)
 80050be:	4a09      	ldr	r2, [pc, #36]	; (80050e4 <erase_end+0x60>)
 80050c0:	881b      	ldrh	r3, [r3, #0]
 80050c2:	8812      	ldrh	r2, [r2, #0]
 80050c4:	9000      	str	r0, [sp, #0]
 80050c6:	9501      	str	r5, [sp, #4]
 80050c8:	0020      	movs	r0, r4
 80050ca:	f7ff f887 	bl	80041dc <LCD_draw_text_helper>
 80050ce:	b009      	add	sp, #36	; 0x24
 80050d0:	bd30      	pop	{r4, r5, pc}
 80050d2:	46c0      	nop			; (mov r8, r8)
 80050d4:	08007d18 	.word	0x08007d18
 80050d8:	0000ffff 	.word	0x0000ffff
 80050dc:	20001494 	.word	0x20001494
 80050e0:	20000f6c 	.word	0x20000f6c
 80050e4:	2000148c 	.word	0x2000148c

080050e8 <setLED>:
 80050e8:	b510      	push	{r4, lr}
 80050ea:	2801      	cmp	r0, #1
 80050ec:	d012      	beq.n	8005114 <setLED+0x2c>
 80050ee:	2800      	cmp	r0, #0
 80050f0:	d009      	beq.n	8005106 <setLED+0x1e>
 80050f2:	2802      	cmp	r0, #2
 80050f4:	d106      	bne.n	8005104 <setLED+0x1c>
 80050f6:	000a      	movs	r2, r1
 80050f8:	2090      	movs	r0, #144	; 0x90
 80050fa:	2180      	movs	r1, #128	; 0x80
 80050fc:	05c0      	lsls	r0, r0, #23
 80050fe:	0209      	lsls	r1, r1, #8
 8005100:	f7fc fa4c 	bl	800159c <HAL_GPIO_WritePin>
 8005104:	bd10      	pop	{r4, pc}
 8005106:	000a      	movs	r2, r1
 8005108:	2180      	movs	r1, #128	; 0x80
 800510a:	4806      	ldr	r0, [pc, #24]	; (8005124 <setLED+0x3c>)
 800510c:	0109      	lsls	r1, r1, #4
 800510e:	f7fc fa45 	bl	800159c <HAL_GPIO_WritePin>
 8005112:	e7f7      	b.n	8005104 <setLED+0x1c>
 8005114:	000a      	movs	r2, r1
 8005116:	2180      	movs	r1, #128	; 0x80
 8005118:	4802      	ldr	r0, [pc, #8]	; (8005124 <setLED+0x3c>)
 800511a:	00c9      	lsls	r1, r1, #3
 800511c:	f7fc fa3e 	bl	800159c <HAL_GPIO_WritePin>
 8005120:	e7f0      	b.n	8005104 <setLED+0x1c>
 8005122:	46c0      	nop			; (mov r8, r8)
 8005124:	48000800 	.word	0x48000800

08005128 <setScale>:
 8005128:	b5f0      	push	{r4, r5, r6, r7, lr}
 800512a:	46c6      	mov	lr, r8
 800512c:	2417      	movs	r4, #23
 800512e:	270a      	movs	r7, #10
 8005130:	2601      	movs	r6, #1
 8005132:	b500      	push	{lr}
 8005134:	4b2f      	ldr	r3, [pc, #188]	; (80051f4 <setScale+0xcc>)
 8005136:	b086      	sub	sp, #24
 8005138:	4d2f      	ldr	r5, [pc, #188]	; (80051f8 <setScale+0xd0>)
 800513a:	446c      	add	r4, sp
 800513c:	7018      	strb	r0, [r3, #0]
 800513e:	4680      	mov	r8, r0
 8005140:	2301      	movs	r3, #1
 8005142:	9702      	str	r7, [sp, #8]
 8005144:	9601      	str	r6, [sp, #4]
 8005146:	9400      	str	r4, [sp, #0]
 8005148:	220b      	movs	r2, #11
 800514a:	213a      	movs	r1, #58	; 0x3a
 800514c:	0028      	movs	r0, r5
 800514e:	f7fc fc7b 	bl	8001a48 <HAL_I2C_Mem_Read>
 8005152:	7823      	ldrb	r3, [r4, #0]
 8005154:	079b      	lsls	r3, r3, #30
 8005156:	d016      	beq.n	8005186 <setScale+0x5e>
 8005158:	2301      	movs	r3, #1
 800515a:	222a      	movs	r2, #42	; 0x2a
 800515c:	213a      	movs	r1, #58	; 0x3a
 800515e:	9702      	str	r7, [sp, #8]
 8005160:	9601      	str	r6, [sp, #4]
 8005162:	9400      	str	r4, [sp, #0]
 8005164:	0028      	movs	r0, r5
 8005166:	f7fc fc6f 	bl	8001a48 <HAL_I2C_Mem_Read>
 800516a:	2216      	movs	r2, #22
 800516c:	7823      	ldrb	r3, [r4, #0]
 800516e:	446a      	add	r2, sp
 8005170:	43b3      	bics	r3, r6
 8005172:	7013      	strb	r3, [r2, #0]
 8005174:	213a      	movs	r1, #58	; 0x3a
 8005176:	9200      	str	r2, [sp, #0]
 8005178:	9702      	str	r7, [sp, #8]
 800517a:	9601      	str	r6, [sp, #4]
 800517c:	2301      	movs	r3, #1
 800517e:	222a      	movs	r2, #42	; 0x2a
 8005180:	0028      	movs	r0, r5
 8005182:	f7fc fb33 	bl	80017ec <HAL_I2C_Mem_Write>
 8005186:	270a      	movs	r7, #10
 8005188:	2601      	movs	r6, #1
 800518a:	9702      	str	r7, [sp, #8]
 800518c:	9601      	str	r6, [sp, #4]
 800518e:	9400      	str	r4, [sp, #0]
 8005190:	2301      	movs	r3, #1
 8005192:	220e      	movs	r2, #14
 8005194:	213a      	movs	r1, #58	; 0x3a
 8005196:	0028      	movs	r0, r5
 8005198:	f7fc fc56 	bl	8001a48 <HAL_I2C_Mem_Read>
 800519c:	2303      	movs	r3, #3
 800519e:	7820      	ldrb	r0, [r4, #0]
 80051a0:	2215      	movs	r2, #21
 80051a2:	4398      	bics	r0, r3
 80051a4:	4643      	mov	r3, r8
 80051a6:	089b      	lsrs	r3, r3, #2
 80051a8:	446a      	add	r2, sp
 80051aa:	4318      	orrs	r0, r3
 80051ac:	7010      	strb	r0, [r2, #0]
 80051ae:	2301      	movs	r3, #1
 80051b0:	9200      	str	r2, [sp, #0]
 80051b2:	9702      	str	r7, [sp, #8]
 80051b4:	9601      	str	r6, [sp, #4]
 80051b6:	220e      	movs	r2, #14
 80051b8:	213a      	movs	r1, #58	; 0x3a
 80051ba:	0028      	movs	r0, r5
 80051bc:	f7fc fb16 	bl	80017ec <HAL_I2C_Mem_Write>
 80051c0:	9702      	str	r7, [sp, #8]
 80051c2:	9601      	str	r6, [sp, #4]
 80051c4:	9400      	str	r4, [sp, #0]
 80051c6:	2301      	movs	r3, #1
 80051c8:	222a      	movs	r2, #42	; 0x2a
 80051ca:	213a      	movs	r1, #58	; 0x3a
 80051cc:	0028      	movs	r0, r5
 80051ce:	f7fc fc3b 	bl	8001a48 <HAL_I2C_Mem_Read>
 80051d2:	2201      	movs	r2, #1
 80051d4:	7823      	ldrb	r3, [r4, #0]
 80051d6:	213a      	movs	r1, #58	; 0x3a
 80051d8:	4313      	orrs	r3, r2
 80051da:	7023      	strb	r3, [r4, #0]
 80051dc:	222a      	movs	r2, #42	; 0x2a
 80051de:	9702      	str	r7, [sp, #8]
 80051e0:	9601      	str	r6, [sp, #4]
 80051e2:	9400      	str	r4, [sp, #0]
 80051e4:	2301      	movs	r3, #1
 80051e6:	0028      	movs	r0, r5
 80051e8:	f7fc fb00 	bl	80017ec <HAL_I2C_Mem_Write>
 80051ec:	b006      	add	sp, #24
 80051ee:	bc04      	pop	{r2}
 80051f0:	4690      	mov	r8, r2
 80051f2:	bdf0      	pop	{r4, r5, r6, r7, pc}
 80051f4:	20001492 	.word	0x20001492
 80051f8:	20001504 	.word	0x20001504

080051fc <setDataRate>:
 80051fc:	b5f0      	push	{r4, r5, r6, r7, lr}
 80051fe:	46c6      	mov	lr, r8
 8005200:	2417      	movs	r4, #23
 8005202:	230a      	movs	r3, #10
 8005204:	2701      	movs	r7, #1
 8005206:	b500      	push	{lr}
 8005208:	4d31      	ldr	r5, [pc, #196]	; (80052d0 <setDataRate+0xd4>)
 800520a:	b086      	sub	sp, #24
 800520c:	446c      	add	r4, sp
 800520e:	9302      	str	r3, [sp, #8]
 8005210:	0006      	movs	r6, r0
 8005212:	4698      	mov	r8, r3
 8005214:	9701      	str	r7, [sp, #4]
 8005216:	3b09      	subs	r3, #9
 8005218:	9400      	str	r4, [sp, #0]
 800521a:	220b      	movs	r2, #11
 800521c:	213a      	movs	r1, #58	; 0x3a
 800521e:	0028      	movs	r0, r5
 8005220:	f7fc fc12 	bl	8001a48 <HAL_I2C_Mem_Read>
 8005224:	7823      	ldrb	r3, [r4, #0]
 8005226:	079b      	lsls	r3, r3, #30
 8005228:	d018      	beq.n	800525c <setDataRate+0x60>
 800522a:	4643      	mov	r3, r8
 800522c:	222a      	movs	r2, #42	; 0x2a
 800522e:	9302      	str	r3, [sp, #8]
 8005230:	213a      	movs	r1, #58	; 0x3a
 8005232:	3b09      	subs	r3, #9
 8005234:	9701      	str	r7, [sp, #4]
 8005236:	9400      	str	r4, [sp, #0]
 8005238:	0028      	movs	r0, r5
 800523a:	f7fc fc05 	bl	8001a48 <HAL_I2C_Mem_Read>
 800523e:	2216      	movs	r2, #22
 8005240:	7823      	ldrb	r3, [r4, #0]
 8005242:	446a      	add	r2, sp
 8005244:	43bb      	bics	r3, r7
 8005246:	7013      	strb	r3, [r2, #0]
 8005248:	4643      	mov	r3, r8
 800524a:	9200      	str	r2, [sp, #0]
 800524c:	9302      	str	r3, [sp, #8]
 800524e:	9701      	str	r7, [sp, #4]
 8005250:	3b09      	subs	r3, #9
 8005252:	222a      	movs	r2, #42	; 0x2a
 8005254:	213a      	movs	r1, #58	; 0x3a
 8005256:	0028      	movs	r0, r5
 8005258:	f7fc fac8 	bl	80017ec <HAL_I2C_Mem_Write>
 800525c:	2701      	movs	r7, #1
 800525e:	230a      	movs	r3, #10
 8005260:	9701      	str	r7, [sp, #4]
 8005262:	4698      	mov	r8, r3
 8005264:	9302      	str	r3, [sp, #8]
 8005266:	9400      	str	r4, [sp, #0]
 8005268:	3b09      	subs	r3, #9
 800526a:	222a      	movs	r2, #42	; 0x2a
 800526c:	213a      	movs	r1, #58	; 0x3a
 800526e:	0028      	movs	r0, r5
 8005270:	f7fc fbea 	bl	8001a48 <HAL_I2C_Mem_Read>
 8005274:	2238      	movs	r2, #56	; 0x38
 8005276:	7823      	ldrb	r3, [r4, #0]
 8005278:	00f6      	lsls	r6, r6, #3
 800527a:	4393      	bics	r3, r2
 800527c:	431e      	orrs	r6, r3
 800527e:	2315      	movs	r3, #21
 8005280:	4642      	mov	r2, r8
 8005282:	446b      	add	r3, sp
 8005284:	701e      	strb	r6, [r3, #0]
 8005286:	213a      	movs	r1, #58	; 0x3a
 8005288:	9202      	str	r2, [sp, #8]
 800528a:	9300      	str	r3, [sp, #0]
 800528c:	9701      	str	r7, [sp, #4]
 800528e:	2301      	movs	r3, #1
 8005290:	3220      	adds	r2, #32
 8005292:	0028      	movs	r0, r5
 8005294:	f7fc faaa 	bl	80017ec <HAL_I2C_Mem_Write>
 8005298:	4643      	mov	r3, r8
 800529a:	9701      	str	r7, [sp, #4]
 800529c:	9302      	str	r3, [sp, #8]
 800529e:	9400      	str	r4, [sp, #0]
 80052a0:	3b09      	subs	r3, #9
 80052a2:	222a      	movs	r2, #42	; 0x2a
 80052a4:	213a      	movs	r1, #58	; 0x3a
 80052a6:	0028      	movs	r0, r5
 80052a8:	f7fc fbce 	bl	8001a48 <HAL_I2C_Mem_Read>
 80052ac:	2201      	movs	r2, #1
 80052ae:	7823      	ldrb	r3, [r4, #0]
 80052b0:	213a      	movs	r1, #58	; 0x3a
 80052b2:	4313      	orrs	r3, r2
 80052b4:	7023      	strb	r3, [r4, #0]
 80052b6:	4643      	mov	r3, r8
 80052b8:	9701      	str	r7, [sp, #4]
 80052ba:	9302      	str	r3, [sp, #8]
 80052bc:	9400      	str	r4, [sp, #0]
 80052be:	3b09      	subs	r3, #9
 80052c0:	222a      	movs	r2, #42	; 0x2a
 80052c2:	0028      	movs	r0, r5
 80052c4:	f7fc fa92 	bl	80017ec <HAL_I2C_Mem_Write>
 80052c8:	b006      	add	sp, #24
 80052ca:	bc04      	pop	{r2}
 80052cc:	4690      	mov	r8, r2
 80052ce:	bdf0      	pop	{r4, r5, r6, r7, pc}
 80052d0:	20001504 	.word	0x20001504

080052d4 <initMMA8452Q>:
 80052d4:	b5f0      	push	{r4, r5, r6, r7, lr}
 80052d6:	46ce      	mov	lr, r9
 80052d8:	4647      	mov	r7, r8
 80052da:	2417      	movs	r4, #23
 80052dc:	b580      	push	{r7, lr}
 80052de:	2501      	movs	r5, #1
 80052e0:	270a      	movs	r7, #10
 80052e2:	b087      	sub	sp, #28
 80052e4:	4e25      	ldr	r6, [pc, #148]	; (800537c <initMMA8452Q+0xa8>)
 80052e6:	446c      	add	r4, sp
 80052e8:	2301      	movs	r3, #1
 80052ea:	4689      	mov	r9, r1
 80052ec:	4690      	mov	r8, r2
 80052ee:	9702      	str	r7, [sp, #8]
 80052f0:	9501      	str	r5, [sp, #4]
 80052f2:	9400      	str	r4, [sp, #0]
 80052f4:	220d      	movs	r2, #13
 80052f6:	213a      	movs	r1, #58	; 0x3a
 80052f8:	0030      	movs	r0, r6
 80052fa:	f7fc fba5 	bl	8001a48 <HAL_I2C_Mem_Read>
 80052fe:	7823      	ldrb	r3, [r4, #0]
 8005300:	2000      	movs	r0, #0
 8005302:	2b2a      	cmp	r3, #42	; 0x2a
 8005304:	d004      	beq.n	8005310 <initMMA8452Q+0x3c>
 8005306:	b007      	add	sp, #28
 8005308:	bc0c      	pop	{r2, r3}
 800530a:	4690      	mov	r8, r2
 800530c:	4699      	mov	r9, r3
 800530e:	bdf0      	pop	{r4, r5, r6, r7, pc}
 8005310:	9400      	str	r4, [sp, #0]
 8005312:	3b29      	subs	r3, #41	; 0x29
 8005314:	222a      	movs	r2, #42	; 0x2a
 8005316:	213a      	movs	r1, #58	; 0x3a
 8005318:	9702      	str	r7, [sp, #8]
 800531a:	9501      	str	r5, [sp, #4]
 800531c:	0030      	movs	r0, r6
 800531e:	f7fc fb93 	bl	8001a48 <HAL_I2C_Mem_Read>
 8005322:	7823      	ldrb	r3, [r4, #0]
 8005324:	222a      	movs	r2, #42	; 0x2a
 8005326:	43ab      	bics	r3, r5
 8005328:	7023      	strb	r3, [r4, #0]
 800532a:	9400      	str	r4, [sp, #0]
 800532c:	2416      	movs	r4, #22
 800532e:	2301      	movs	r3, #1
 8005330:	213a      	movs	r1, #58	; 0x3a
 8005332:	9702      	str	r7, [sp, #8]
 8005334:	9501      	str	r5, [sp, #4]
 8005336:	0030      	movs	r0, r6
 8005338:	f7fc fa58 	bl	80017ec <HAL_I2C_Mem_Write>
 800533c:	4648      	mov	r0, r9
 800533e:	f7ff fef3 	bl	8005128 <setScale>
 8005342:	446c      	add	r4, sp
 8005344:	4640      	mov	r0, r8
 8005346:	f7ff ff59 	bl	80051fc <setDataRate>
 800534a:	2301      	movs	r3, #1
 800534c:	222a      	movs	r2, #42	; 0x2a
 800534e:	213a      	movs	r1, #58	; 0x3a
 8005350:	9702      	str	r7, [sp, #8]
 8005352:	9501      	str	r5, [sp, #4]
 8005354:	9400      	str	r4, [sp, #0]
 8005356:	0030      	movs	r0, r6
 8005358:	f7fc fb76 	bl	8001a48 <HAL_I2C_Mem_Read>
 800535c:	2201      	movs	r2, #1
 800535e:	7823      	ldrb	r3, [r4, #0]
 8005360:	213a      	movs	r1, #58	; 0x3a
 8005362:	4313      	orrs	r3, r2
 8005364:	7023      	strb	r3, [r4, #0]
 8005366:	222a      	movs	r2, #42	; 0x2a
 8005368:	9702      	str	r7, [sp, #8]
 800536a:	9501      	str	r5, [sp, #4]
 800536c:	9400      	str	r4, [sp, #0]
 800536e:	2301      	movs	r3, #1
 8005370:	0030      	movs	r0, r6
 8005372:	f7fc fa3b 	bl	80017ec <HAL_I2C_Mem_Write>
 8005376:	2001      	movs	r0, #1
 8005378:	e7c5      	b.n	8005306 <initMMA8452Q+0x32>
 800537a:	46c0      	nop			; (mov r8, r8)
 800537c:	20001504 	.word	0x20001504

08005380 <getX>:
 8005380:	230a      	movs	r3, #10
 8005382:	b510      	push	{r4, lr}
 8005384:	b086      	sub	sp, #24
 8005386:	ac05      	add	r4, sp, #20
 8005388:	9302      	str	r3, [sp, #8]
 800538a:	3b08      	subs	r3, #8
 800538c:	2201      	movs	r2, #1
 800538e:	9301      	str	r3, [sp, #4]
 8005390:	9400      	str	r4, [sp, #0]
 8005392:	213a      	movs	r1, #58	; 0x3a
 8005394:	3b01      	subs	r3, #1
 8005396:	480d      	ldr	r0, [pc, #52]	; (80053cc <getX+0x4c>)
 8005398:	f7fc fb56 	bl	8001a48 <HAL_I2C_Mem_Read>
 800539c:	7823      	ldrb	r3, [r4, #0]
 800539e:	7860      	ldrb	r0, [r4, #1]
 80053a0:	021b      	lsls	r3, r3, #8
 80053a2:	4318      	orrs	r0, r3
 80053a4:	b200      	sxth	r0, r0
 80053a6:	1100      	asrs	r0, r0, #4
 80053a8:	f7fb fd1c 	bl	8000de4 <__aeabi_i2f>
 80053ac:	21e8      	movs	r1, #232	; 0xe8
 80053ae:	0589      	lsls	r1, r1, #22
 80053b0:	f7fb fa02 	bl	80007b8 <__aeabi_fmul>
 80053b4:	4b06      	ldr	r3, [pc, #24]	; (80053d0 <getX+0x50>)
 80053b6:	1c04      	adds	r4, r0, #0
 80053b8:	7818      	ldrb	r0, [r3, #0]
 80053ba:	f7fb fd5d 	bl	8000e78 <__aeabi_ui2f>
 80053be:	1c01      	adds	r1, r0, #0
 80053c0:	1c20      	adds	r0, r4, #0
 80053c2:	f7fb f9f9 	bl	80007b8 <__aeabi_fmul>
 80053c6:	b006      	add	sp, #24
 80053c8:	bd10      	pop	{r4, pc}
 80053ca:	46c0      	nop			; (mov r8, r8)
 80053cc:	20001504 	.word	0x20001504
 80053d0:	20001492 	.word	0x20001492

080053d4 <getY>:
 80053d4:	230a      	movs	r3, #10
 80053d6:	b510      	push	{r4, lr}
 80053d8:	b086      	sub	sp, #24
 80053da:	ac05      	add	r4, sp, #20
 80053dc:	9302      	str	r3, [sp, #8]
 80053de:	3b08      	subs	r3, #8
 80053e0:	2203      	movs	r2, #3
 80053e2:	9301      	str	r3, [sp, #4]
 80053e4:	9400      	str	r4, [sp, #0]
 80053e6:	213a      	movs	r1, #58	; 0x3a
 80053e8:	3b01      	subs	r3, #1
 80053ea:	480d      	ldr	r0, [pc, #52]	; (8005420 <getY+0x4c>)
 80053ec:	f7fc fb2c 	bl	8001a48 <HAL_I2C_Mem_Read>
 80053f0:	7823      	ldrb	r3, [r4, #0]
 80053f2:	7860      	ldrb	r0, [r4, #1]
 80053f4:	021b      	lsls	r3, r3, #8
 80053f6:	4318      	orrs	r0, r3
 80053f8:	b200      	sxth	r0, r0
 80053fa:	1100      	asrs	r0, r0, #4
 80053fc:	f7fb fcf2 	bl	8000de4 <__aeabi_i2f>
 8005400:	21e8      	movs	r1, #232	; 0xe8
 8005402:	0589      	lsls	r1, r1, #22
 8005404:	f7fb f9d8 	bl	80007b8 <__aeabi_fmul>
 8005408:	4b06      	ldr	r3, [pc, #24]	; (8005424 <getY+0x50>)
 800540a:	1c04      	adds	r4, r0, #0
 800540c:	7818      	ldrb	r0, [r3, #0]
 800540e:	f7fb fd33 	bl	8000e78 <__aeabi_ui2f>
 8005412:	1c01      	adds	r1, r0, #0
 8005414:	1c20      	adds	r0, r4, #0
 8005416:	f7fb f9cf 	bl	80007b8 <__aeabi_fmul>
 800541a:	b006      	add	sp, #24
 800541c:	bd10      	pop	{r4, pc}
 800541e:	46c0      	nop			; (mov r8, r8)
 8005420:	20001504 	.word	0x20001504
 8005424:	20001492 	.word	0x20001492

08005428 <getZ>:
 8005428:	230a      	movs	r3, #10
 800542a:	b510      	push	{r4, lr}
 800542c:	b086      	sub	sp, #24
 800542e:	ac05      	add	r4, sp, #20
 8005430:	9302      	str	r3, [sp, #8]
 8005432:	3b08      	subs	r3, #8
 8005434:	2205      	movs	r2, #5
 8005436:	9301      	str	r3, [sp, #4]
 8005438:	9400      	str	r4, [sp, #0]
 800543a:	213a      	movs	r1, #58	; 0x3a
 800543c:	3b01      	subs	r3, #1
 800543e:	480d      	ldr	r0, [pc, #52]	; (8005474 <getZ+0x4c>)
 8005440:	f7fc fb02 	bl	8001a48 <HAL_I2C_Mem_Read>
 8005444:	7823      	ldrb	r3, [r4, #0]
 8005446:	7860      	ldrb	r0, [r4, #1]
 8005448:	021b      	lsls	r3, r3, #8
 800544a:	4318      	orrs	r0, r3
 800544c:	b200      	sxth	r0, r0
 800544e:	1100      	asrs	r0, r0, #4
 8005450:	f7fb fcc8 	bl	8000de4 <__aeabi_i2f>
 8005454:	21e8      	movs	r1, #232	; 0xe8
 8005456:	0589      	lsls	r1, r1, #22
 8005458:	f7fb f9ae 	bl	80007b8 <__aeabi_fmul>
 800545c:	4b06      	ldr	r3, [pc, #24]	; (8005478 <getZ+0x50>)
 800545e:	1c04      	adds	r4, r0, #0
 8005460:	7818      	ldrb	r0, [r3, #0]
 8005462:	f7fb fd09 	bl	8000e78 <__aeabi_ui2f>
 8005466:	1c01      	adds	r1, r0, #0
 8005468:	1c20      	adds	r0, r4, #0
 800546a:	f7fb f9a5 	bl	80007b8 <__aeabi_fmul>
 800546e:	b006      	add	sp, #24
 8005470:	bd10      	pop	{r4, pc}
 8005472:	46c0      	nop			; (mov r8, r8)
 8005474:	20001504 	.word	0x20001504
 8005478:	20001492 	.word	0x20001492

0800547c <SystemClock_Config>:
 800547c:	b510      	push	{r4, lr}
 800547e:	b094      	sub	sp, #80	; 0x50
 8005480:	222c      	movs	r2, #44	; 0x2c
 8005482:	2100      	movs	r1, #0
 8005484:	a809      	add	r0, sp, #36	; 0x24
 8005486:	f002 f898 	bl	80075ba <memset>
 800548a:	2210      	movs	r2, #16
 800548c:	2100      	movs	r1, #0
 800548e:	4668      	mov	r0, sp
 8005490:	f002 f893 	bl	80075ba <memset>
 8005494:	2210      	movs	r2, #16
 8005496:	2100      	movs	r1, #0
 8005498:	a804      	add	r0, sp, #16
 800549a:	f002 f88e 	bl	80075ba <memset>
 800549e:	2302      	movs	r3, #2
 80054a0:	9308      	str	r3, [sp, #32]
 80054a2:	3b01      	subs	r3, #1
 80054a4:	930b      	str	r3, [sp, #44]	; 0x2c
 80054a6:	a808      	add	r0, sp, #32
 80054a8:	330f      	adds	r3, #15
 80054aa:	2400      	movs	r4, #0
 80054ac:	930c      	str	r3, [sp, #48]	; 0x30
 80054ae:	f7fc fc6f 	bl	8001d90 <HAL_RCC_OscConfig>
 80054b2:	2307      	movs	r3, #7
 80054b4:	2100      	movs	r1, #0
 80054b6:	4668      	mov	r0, sp
 80054b8:	9300      	str	r3, [sp, #0]
 80054ba:	9401      	str	r4, [sp, #4]
 80054bc:	9402      	str	r4, [sp, #8]
 80054be:	9403      	str	r4, [sp, #12]
 80054c0:	f7fc feb4 	bl	800222c <HAL_RCC_ClockConfig>
 80054c4:	2321      	movs	r3, #33	; 0x21
 80054c6:	a804      	add	r0, sp, #16
 80054c8:	9304      	str	r3, [sp, #16]
 80054ca:	9406      	str	r4, [sp, #24]
 80054cc:	9407      	str	r4, [sp, #28]
 80054ce:	f7fc ffcb 	bl	8002468 <HAL_RCCEx_PeriphCLKConfig>
 80054d2:	b014      	add	sp, #80	; 0x50
 80054d4:	bd10      	pop	{r4, pc}
 80054d6:	46c0      	nop			; (mov r8, r8)

080054d8 <main>:
 80054d8:	b5f0      	push	{r4, r5, r6, r7, lr}
 80054da:	46ce      	mov	lr, r9
 80054dc:	4647      	mov	r7, r8
 80054de:	b580      	push	{r7, lr}
 80054e0:	b08b      	sub	sp, #44	; 0x2c
 80054e2:	f7fb fe27 	bl	8001134 <HAL_Init>
 80054e6:	f7ff ffc9 	bl	800547c <SystemClock_Config>
 80054ea:	2214      	movs	r2, #20
 80054ec:	2100      	movs	r1, #0
 80054ee:	a805      	add	r0, sp, #20
 80054f0:	f002 f863 	bl	80075ba <memset>
 80054f4:	2180      	movs	r1, #128	; 0x80
 80054f6:	4d7d      	ldr	r5, [pc, #500]	; (80056ec <main+0x214>)
 80054f8:	0309      	lsls	r1, r1, #12
 80054fa:	696a      	ldr	r2, [r5, #20]
 80054fc:	487c      	ldr	r0, [pc, #496]	; (80056f0 <main+0x218>)
 80054fe:	430a      	orrs	r2, r1
 8005500:	616a      	str	r2, [r5, #20]
 8005502:	696b      	ldr	r3, [r5, #20]
 8005504:	27f0      	movs	r7, #240	; 0xf0
 8005506:	400b      	ands	r3, r1
 8005508:	2180      	movs	r1, #128	; 0x80
 800550a:	9301      	str	r3, [sp, #4]
 800550c:	9b01      	ldr	r3, [sp, #4]
 800550e:	696a      	ldr	r2, [r5, #20]
 8005510:	03c9      	lsls	r1, r1, #15
 8005512:	430a      	orrs	r2, r1
 8005514:	616a      	str	r2, [r5, #20]
 8005516:	696b      	ldr	r3, [r5, #20]
 8005518:	2400      	movs	r4, #0
 800551a:	400b      	ands	r3, r1
 800551c:	2180      	movs	r1, #128	; 0x80
 800551e:	9302      	str	r3, [sp, #8]
 8005520:	9b02      	ldr	r3, [sp, #8]
 8005522:	696a      	ldr	r2, [r5, #20]
 8005524:	0289      	lsls	r1, r1, #10
 8005526:	430a      	orrs	r2, r1
 8005528:	616a      	str	r2, [r5, #20]
 800552a:	696b      	ldr	r3, [r5, #20]
 800552c:	2601      	movs	r6, #1
 800552e:	400b      	ands	r3, r1
 8005530:	2180      	movs	r1, #128	; 0x80
 8005532:	9303      	str	r3, [sp, #12]
 8005534:	9b03      	ldr	r3, [sp, #12]
 8005536:	696a      	ldr	r2, [r5, #20]
 8005538:	02c9      	lsls	r1, r1, #11
 800553a:	430a      	orrs	r2, r1
 800553c:	616a      	str	r2, [r5, #20]
 800553e:	696b      	ldr	r3, [r5, #20]
 8005540:	2200      	movs	r2, #0
 8005542:	400b      	ands	r3, r1
 8005544:	9304      	str	r3, [sp, #16]
 8005546:	496b      	ldr	r1, [pc, #428]	; (80056f4 <main+0x21c>)
 8005548:	9b04      	ldr	r3, [sp, #16]
 800554a:	f7fc f827 	bl	800159c <HAL_GPIO_WritePin>
 800554e:	2200      	movs	r2, #0
 8005550:	2101      	movs	r1, #1
 8005552:	4869      	ldr	r0, [pc, #420]	; (80056f8 <main+0x220>)
 8005554:	f7fc f822 	bl	800159c <HAL_GPIO_WritePin>
 8005558:	2090      	movs	r0, #144	; 0x90
 800555a:	2200      	movs	r2, #0
 800555c:	4967      	ldr	r1, [pc, #412]	; (80056fc <main+0x224>)
 800555e:	05c0      	lsls	r0, r0, #23
 8005560:	f7fc f81c 	bl	800159c <HAL_GPIO_WritePin>
 8005564:	2090      	movs	r0, #144	; 0x90
 8005566:	2201      	movs	r2, #1
 8005568:	21b0      	movs	r1, #176	; 0xb0
 800556a:	05c0      	lsls	r0, r0, #23
 800556c:	f7fc f816 	bl	800159c <HAL_GPIO_WritePin>
 8005570:	023f      	lsls	r7, r7, #8
 8005572:	2201      	movs	r2, #1
 8005574:	2110      	movs	r1, #16
 8005576:	485e      	ldr	r0, [pc, #376]	; (80056f0 <main+0x218>)
 8005578:	f7fc f810 	bl	800159c <HAL_GPIO_WritePin>
 800557c:	2200      	movs	r2, #0
 800557e:	0039      	movs	r1, r7
 8005580:	485f      	ldr	r0, [pc, #380]	; (8005700 <main+0x228>)
 8005582:	f7fc f80b 	bl	800159c <HAL_GPIO_WritePin>
 8005586:	4b5f      	ldr	r3, [pc, #380]	; (8005704 <main+0x22c>)
 8005588:	a905      	add	r1, sp, #20
 800558a:	4859      	ldr	r0, [pc, #356]	; (80056f0 <main+0x218>)
 800558c:	9305      	str	r3, [sp, #20]
 800558e:	9606      	str	r6, [sp, #24]
 8005590:	9407      	str	r4, [sp, #28]
 8005592:	9408      	str	r4, [sp, #32]
 8005594:	f7fb ff20 	bl	80013d8 <HAL_GPIO_Init>
 8005598:	a905      	add	r1, sp, #20
 800559a:	4857      	ldr	r0, [pc, #348]	; (80056f8 <main+0x220>)
 800559c:	9605      	str	r6, [sp, #20]
 800559e:	9606      	str	r6, [sp, #24]
 80055a0:	9407      	str	r4, [sp, #28]
 80055a2:	9408      	str	r4, [sp, #32]
 80055a4:	f7fb ff18 	bl	80013d8 <HAL_GPIO_Init>
 80055a8:	2090      	movs	r0, #144	; 0x90
 80055aa:	a905      	add	r1, sp, #20
 80055ac:	05c0      	lsls	r0, r0, #23
 80055ae:	9605      	str	r6, [sp, #20]
 80055b0:	9406      	str	r4, [sp, #24]
 80055b2:	9407      	str	r4, [sp, #28]
 80055b4:	f7fb ff10 	bl	80013d8 <HAL_GPIO_Init>
 80055b8:	2090      	movs	r0, #144	; 0x90
 80055ba:	4b53      	ldr	r3, [pc, #332]	; (8005708 <main+0x230>)
 80055bc:	a905      	add	r1, sp, #20
 80055be:	05c0      	lsls	r0, r0, #23
 80055c0:	9305      	str	r3, [sp, #20]
 80055c2:	9606      	str	r6, [sp, #24]
 80055c4:	9407      	str	r4, [sp, #28]
 80055c6:	9408      	str	r4, [sp, #32]
 80055c8:	f7fb ff06 	bl	80013d8 <HAL_GPIO_Init>
 80055cc:	4b4f      	ldr	r3, [pc, #316]	; (800570c <main+0x234>)
 80055ce:	a905      	add	r1, sp, #20
 80055d0:	9305      	str	r3, [sp, #20]
 80055d2:	2303      	movs	r3, #3
 80055d4:	484a      	ldr	r0, [pc, #296]	; (8005700 <main+0x228>)
 80055d6:	9306      	str	r3, [sp, #24]
 80055d8:	9407      	str	r4, [sp, #28]
 80055da:	f7fb fefd 	bl	80013d8 <HAL_GPIO_Init>
 80055de:	a905      	add	r1, sp, #20
 80055e0:	4847      	ldr	r0, [pc, #284]	; (8005700 <main+0x228>)
 80055e2:	9705      	str	r7, [sp, #20]
 80055e4:	9606      	str	r6, [sp, #24]
 80055e6:	9407      	str	r4, [sp, #28]
 80055e8:	9408      	str	r4, [sp, #32]
 80055ea:	f7fb fef5 	bl	80013d8 <HAL_GPIO_Init>
 80055ee:	2360      	movs	r3, #96	; 0x60
 80055f0:	9305      	str	r3, [sp, #20]
 80055f2:	4b47      	ldr	r3, [pc, #284]	; (8005710 <main+0x238>)
 80055f4:	a905      	add	r1, sp, #20
 80055f6:	4842      	ldr	r0, [pc, #264]	; (8005700 <main+0x228>)
 80055f8:	9306      	str	r3, [sp, #24]
 80055fa:	9407      	str	r4, [sp, #28]
 80055fc:	f7fb feec 	bl	80013d8 <HAL_GPIO_Init>
 8005600:	696b      	ldr	r3, [r5, #20]
 8005602:	2200      	movs	r2, #0
 8005604:	4333      	orrs	r3, r6
 8005606:	616b      	str	r3, [r5, #20]
 8005608:	696b      	ldr	r3, [r5, #20]
 800560a:	2100      	movs	r1, #0
 800560c:	4033      	ands	r3, r6
 800560e:	9305      	str	r3, [sp, #20]
 8005610:	200a      	movs	r0, #10
 8005612:	9b05      	ldr	r3, [sp, #20]
 8005614:	f7fb fdc2 	bl	800119c <HAL_NVIC_SetPriority>
 8005618:	200a      	movs	r0, #10
 800561a:	f7fb fdeb 	bl	80011f4 <HAL_NVIC_EnableIRQ>
 800561e:	2200      	movs	r2, #0
 8005620:	2100      	movs	r1, #0
 8005622:	200b      	movs	r0, #11
 8005624:	f7fb fdba 	bl	800119c <HAL_NVIC_SetPriority>
 8005628:	200b      	movs	r0, #11
 800562a:	f7fb fde3 	bl	80011f4 <HAL_NVIC_EnableIRQ>
 800562e:	4d39      	ldr	r5, [pc, #228]	; (8005714 <main+0x23c>)
 8005630:	4b39      	ldr	r3, [pc, #228]	; (8005718 <main+0x240>)
 8005632:	0028      	movs	r0, r5
 8005634:	602b      	str	r3, [r5, #0]
 8005636:	4b39      	ldr	r3, [pc, #228]	; (800571c <main+0x244>)
 8005638:	60ee      	str	r6, [r5, #12]
 800563a:	606b      	str	r3, [r5, #4]
 800563c:	60ac      	str	r4, [r5, #8]
 800563e:	612c      	str	r4, [r5, #16]
 8005640:	616c      	str	r4, [r5, #20]
 8005642:	61ac      	str	r4, [r5, #24]
 8005644:	61ec      	str	r4, [r5, #28]
 8005646:	622c      	str	r4, [r5, #32]
 8005648:	f7fc f878 	bl	800173c <HAL_I2C_Init>
 800564c:	2100      	movs	r1, #0
 800564e:	0028      	movs	r0, r5
 8005650:	f7fc fb42 	bl	8001cd8 <HAL_I2CEx_ConfigAnalogFilter>
 8005654:	2100      	movs	r1, #0
 8005656:	0028      	movs	r0, r5
 8005658:	f7fc fb6c 	bl	8001d34 <HAL_I2CEx_ConfigDigitalFilter>
 800565c:	4e30      	ldr	r6, [pc, #192]	; (8005720 <main+0x248>)
 800565e:	4b31      	ldr	r3, [pc, #196]	; (8005724 <main+0x24c>)
 8005660:	2780      	movs	r7, #128	; 0x80
 8005662:	6033      	str	r3, [r6, #0]
 8005664:	2396      	movs	r3, #150	; 0x96
 8005666:	021b      	lsls	r3, r3, #8
 8005668:	6073      	str	r3, [r6, #4]
 800566a:	230c      	movs	r3, #12
 800566c:	017f      	lsls	r7, r7, #5
 800566e:	4699      	mov	r9, r3
 8005670:	6173      	str	r3, [r6, #20]
 8005672:	0030      	movs	r0, r6
 8005674:	3304      	adds	r3, #4
 8005676:	4698      	mov	r8, r3
 8005678:	6273      	str	r3, [r6, #36]	; 0x24
 800567a:	60b4      	str	r4, [r6, #8]
 800567c:	60f4      	str	r4, [r6, #12]
 800567e:	6134      	str	r4, [r6, #16]
 8005680:	61b4      	str	r4, [r6, #24]
 8005682:	61f4      	str	r4, [r6, #28]
 8005684:	6234      	str	r4, [r6, #32]
 8005686:	63b7      	str	r7, [r6, #56]	; 0x38
 8005688:	f7fd fbd8 	bl	8002e3c <HAL_UART_Init>
 800568c:	4d26      	ldr	r5, [pc, #152]	; (8005728 <main+0x250>)
 800568e:	4b27      	ldr	r3, [pc, #156]	; (800572c <main+0x254>)
 8005690:	0028      	movs	r0, r5
 8005692:	602b      	str	r3, [r5, #0]
 8005694:	2396      	movs	r3, #150	; 0x96
 8005696:	019b      	lsls	r3, r3, #6
 8005698:	606b      	str	r3, [r5, #4]
 800569a:	464b      	mov	r3, r9
 800569c:	616b      	str	r3, [r5, #20]
 800569e:	4643      	mov	r3, r8
 80056a0:	60ac      	str	r4, [r5, #8]
 80056a2:	626b      	str	r3, [r5, #36]	; 0x24
 80056a4:	60ec      	str	r4, [r5, #12]
 80056a6:	612c      	str	r4, [r5, #16]
 80056a8:	61ac      	str	r4, [r5, #24]
 80056aa:	61ec      	str	r4, [r5, #28]
 80056ac:	622c      	str	r4, [r5, #32]
 80056ae:	63af      	str	r7, [r5, #56]	; 0x38
 80056b0:	f7fd fbc4 	bl	8002e3c <HAL_UART_Init>
 80056b4:	20fa      	movs	r0, #250	; 0xfa
 80056b6:	0080      	lsls	r0, r0, #2
 80056b8:	f7fb fd5e 	bl	8001178 <HAL_Delay>
 80056bc:	f7fe fb12 	bl	8003ce4 <LCD_Init>
 80056c0:	481b      	ldr	r0, [pc, #108]	; (8005730 <main+0x258>)
 80056c2:	f7fe f8af 	bl	8003824 <fillScreen>
 80056c6:	2200      	movs	r2, #0
 80056c8:	2102      	movs	r1, #2
 80056ca:	201d      	movs	r0, #29
 80056cc:	f7ff fe02 	bl	80052d4 <initMMA8452Q>
 80056d0:	0030      	movs	r0, r6
 80056d2:	f7fd fd07 	bl	80030e4 <ble_init>
 80056d6:	0028      	movs	r0, r5
 80056d8:	f7fd fd16 	bl	8003108 <gps_init>
 80056dc:	f7ff f902 	bl	80048e4 <print_idle>
 80056e0:	f000 fb42 	bl	8005d68 <RTOS_INIT_TASKS>
 80056e4:	f000 fb32 	bl	8005d4c <RTOS_INIT>
 80056e8:	e7fe      	b.n	80056e8 <main+0x210>
 80056ea:	46c0      	nop			; (mov r8, r8)
 80056ec:	40021000 	.word	0x40021000
 80056f0:	48000800 	.word	0x48000800
 80056f4:	0000efe0 	.word	0x0000efe0
 80056f8:	48001400 	.word	0x48001400
 80056fc:	00008002 	.word	0x00008002
 8005700:	48000400 	.word	0x48000400
 8005704:	0000eff0 	.word	0x0000eff0
 8005708:	000080b2 	.word	0x000080b2
 800570c:	00000407 	.word	0x00000407
 8005710:	10110000 	.word	0x10110000
 8005714:	20001504 	.word	0x20001504
 8005718:	40005400 	.word	0x40005400
 800571c:	2000090e 	.word	0x2000090e
 8005720:	200015d8 	.word	0x200015d8
 8005724:	40013800 	.word	0x40013800
 8005728:	20001658 	.word	0x20001658
 800572c:	40004400 	.word	0x40004400
 8005730:	0000ffff 	.word	0x0000ffff

08005734 <HAL_UART_RxCpltCallback>:
 8005734:	4b08      	ldr	r3, [pc, #32]	; (8005758 <HAL_UART_RxCpltCallback+0x24>)
 8005736:	b510      	push	{r4, lr}
 8005738:	4298      	cmp	r0, r3
 800573a:	d009      	beq.n	8005750 <HAL_UART_RxCpltCallback+0x1c>
 800573c:	4b07      	ldr	r3, [pc, #28]	; (800575c <HAL_UART_RxCpltCallback+0x28>)
 800573e:	4298      	cmp	r0, r3
 8005740:	d000      	beq.n	8005744 <HAL_UART_RxCpltCallback+0x10>
 8005742:	bd10      	pop	{r4, pc}
 8005744:	4b06      	ldr	r3, [pc, #24]	; (8005760 <HAL_UART_RxCpltCallback+0x2c>)
 8005746:	2100      	movs	r1, #0
 8005748:	6818      	ldr	r0, [r3, #0]
 800574a:	f000 fde1 	bl	8006310 <xQueueGiveFromISR>
 800574e:	e7f8      	b.n	8005742 <HAL_UART_RxCpltCallback+0xe>
 8005750:	f7fd fd5e 	bl	8003210 <gps_recieve_full>
 8005754:	e7f5      	b.n	8005742 <HAL_UART_RxCpltCallback+0xe>
 8005756:	46c0      	nop			; (mov r8, r8)
 8005758:	20001658 	.word	0x20001658
 800575c:	200015d8 	.word	0x200015d8
 8005760:	20000d70 	.word	0x20000d70

08005764 <HAL_UART_RxHalfCpltCallback>:
 8005764:	4b03      	ldr	r3, [pc, #12]	; (8005774 <HAL_UART_RxHalfCpltCallback+0x10>)
 8005766:	b510      	push	{r4, lr}
 8005768:	4298      	cmp	r0, r3
 800576a:	d000      	beq.n	800576e <HAL_UART_RxHalfCpltCallback+0xa>
 800576c:	bd10      	pop	{r4, pc}
 800576e:	f7fd fd69 	bl	8003244 <gps_recieve_half>
 8005772:	e7fb      	b.n	800576c <HAL_UART_RxHalfCpltCallback+0x8>
 8005774:	20001658 	.word	0x20001658

08005778 <HAL_TIM_PeriodElapsedCallback>:
 8005778:	4b04      	ldr	r3, [pc, #16]	; (800578c <HAL_TIM_PeriodElapsedCallback+0x14>)
 800577a:	6802      	ldr	r2, [r0, #0]
 800577c:	b510      	push	{r4, lr}
 800577e:	429a      	cmp	r2, r3
 8005780:	d000      	beq.n	8005784 <HAL_TIM_PeriodElapsedCallback+0xc>
 8005782:	bd10      	pop	{r4, pc}
 8005784:	f7fb fce6 	bl	8001154 <HAL_IncTick>
 8005788:	e7fb      	b.n	8005782 <HAL_TIM_PeriodElapsedCallback+0xa>
 800578a:	46c0      	nop			; (mov r8, r8)
 800578c:	40012c00 	.word	0x40012c00

08005790 <Error_Handler>:
 8005790:	4770      	bx	lr
 8005792:	46c0      	nop			; (mov r8, r8)

08005794 <task_send_ble_packet>:
 8005794:	b5f0      	push	{r4, r5, r6, r7, lr}
 8005796:	464e      	mov	r6, r9
 8005798:	4645      	mov	r5, r8
 800579a:	46de      	mov	lr, fp
 800579c:	4657      	mov	r7, sl
 800579e:	b5e0      	push	{r5, r6, r7, lr}
 80057a0:	b083      	sub	sp, #12
 80057a2:	f001 f9bb 	bl	8006b1c <xTaskGetTickCount>
 80057a6:	4b38      	ldr	r3, [pc, #224]	; (8005888 <task_send_ble_packet+0xf4>)
 80057a8:	4c38      	ldr	r4, [pc, #224]	; (800588c <task_send_ble_packet+0xf8>)
 80057aa:	4698      	mov	r8, r3
 80057ac:	4b38      	ldr	r3, [pc, #224]	; (8005890 <task_send_ble_packet+0xfc>)
 80057ae:	0025      	movs	r5, r4
 80057b0:	4699      	mov	r9, r3
 80057b2:	26dc      	movs	r6, #220	; 0xdc
 80057b4:	9001      	str	r0, [sp, #4]
 80057b6:	35dc      	adds	r5, #220	; 0xdc
 80057b8:	2132      	movs	r1, #50	; 0x32
 80057ba:	a801      	add	r0, sp, #4
 80057bc:	f001 fae6 	bl	8006d8c <vTaskDelayUntil>
 80057c0:	f7fd fd5a 	bl	8003278 <gps_get_data>
 80057c4:	6801      	ldr	r1, [r0, #0]
 80057c6:	0007      	movs	r7, r0
 80057c8:	2900      	cmp	r1, #0
 80057ca:	d0f5      	beq.n	80057b8 <task_send_ble_packet+0x24>
 80057cc:	6840      	ldr	r0, [r0, #4]
 80057ce:	2800      	cmp	r0, #0
 80057d0:	d0f2      	beq.n	80057b8 <task_send_ble_packet+0x24>
 80057d2:	4281      	cmp	r1, r0
 80057d4:	d23c      	bcs.n	8005850 <task_send_ble_packet+0xbc>
 80057d6:	1a47      	subs	r7, r0, r1
 80057d8:	003a      	movs	r2, r7
 80057da:	0020      	movs	r0, r4
 80057dc:	f001 fee4 	bl	80075a8 <memcpy>
 80057e0:	1bf2      	subs	r2, r6, r7
 80057e2:	19e0      	adds	r0, r4, r7
 80057e4:	2100      	movs	r1, #0
 80057e6:	f001 fee8 	bl	80075ba <memset>
 80057ea:	f7ff fdc9 	bl	8005380 <getX>
 80057ee:	0a03      	lsrs	r3, r0, #8
 80057f0:	55a0      	strb	r0, [r4, r6]
 80057f2:	706b      	strb	r3, [r5, #1]
 80057f4:	0c03      	lsrs	r3, r0, #16
 80057f6:	0e00      	lsrs	r0, r0, #24
 80057f8:	70ab      	strb	r3, [r5, #2]
 80057fa:	70e8      	strb	r0, [r5, #3]
 80057fc:	f7ff fdea 	bl	80053d4 <getY>
 8005800:	23e0      	movs	r3, #224	; 0xe0
 8005802:	54e0      	strb	r0, [r4, r3]
 8005804:	0023      	movs	r3, r4
 8005806:	0a02      	lsrs	r2, r0, #8
 8005808:	33e0      	adds	r3, #224	; 0xe0
 800580a:	705a      	strb	r2, [r3, #1]
 800580c:	0c02      	lsrs	r2, r0, #16
 800580e:	0e00      	lsrs	r0, r0, #24
 8005810:	709a      	strb	r2, [r3, #2]
 8005812:	70d8      	strb	r0, [r3, #3]
 8005814:	f7ff fe08 	bl	8005428 <getZ>
 8005818:	23e4      	movs	r3, #228	; 0xe4
 800581a:	54e0      	strb	r0, [r4, r3]
 800581c:	0023      	movs	r3, r4
 800581e:	0a02      	lsrs	r2, r0, #8
 8005820:	33e4      	adds	r3, #228	; 0xe4
 8005822:	705a      	strb	r2, [r3, #1]
 8005824:	0c02      	lsrs	r2, r0, #16
 8005826:	0e00      	lsrs	r0, r0, #24
 8005828:	709a      	strb	r2, [r3, #2]
 800582a:	70d8      	strb	r0, [r3, #3]
 800582c:	22e8      	movs	r2, #232	; 0xe8
 800582e:	232d      	movs	r3, #45	; 0x2d
 8005830:	54a3      	strb	r3, [r4, r2]
 8005832:	3201      	adds	r2, #1
 8005834:	54a3      	strb	r3, [r4, r2]
 8005836:	3201      	adds	r2, #1
 8005838:	54a3      	strb	r3, [r4, r2]
 800583a:	33be      	adds	r3, #190	; 0xbe
 800583c:	3add      	subs	r2, #221	; 0xdd
 800583e:	54e2      	strb	r2, [r4, r3]
 8005840:	0021      	movs	r1, r4
 8005842:	3301      	adds	r3, #1
 8005844:	3a03      	subs	r2, #3
 8005846:	4648      	mov	r0, r9
 8005848:	54e2      	strb	r2, [r4, r3]
 800584a:	f7fd fc57 	bl	80030fc <ble_send>
 800584e:	e7b3      	b.n	80057b8 <task_send_ble_packet+0x24>
 8005850:	4643      	mov	r3, r8
 8005852:	1a5b      	subs	r3, r3, r1
 8005854:	469a      	mov	sl, r3
 8005856:	001a      	movs	r2, r3
 8005858:	0020      	movs	r0, r4
 800585a:	f001 fea5 	bl	80075a8 <memcpy>
 800585e:	4653      	mov	r3, sl
 8005860:	18e0      	adds	r0, r4, r3
 8005862:	4b0c      	ldr	r3, [pc, #48]	; (8005894 <task_send_ble_packet+0x100>)
 8005864:	4443      	add	r3, r8
 8005866:	469b      	mov	fp, r3
 8005868:	465a      	mov	r2, fp
 800586a:	687b      	ldr	r3, [r7, #4]
 800586c:	4659      	mov	r1, fp
 800586e:	1a9a      	subs	r2, r3, r2
 8005870:	f001 fe9a 	bl	80075a8 <memcpy>
 8005874:	465b      	mov	r3, fp
 8005876:	6878      	ldr	r0, [r7, #4]
 8005878:	2100      	movs	r1, #0
 800587a:	1ac0      	subs	r0, r0, r3
 800587c:	4450      	add	r0, sl
 800587e:	1a32      	subs	r2, r6, r0
 8005880:	1820      	adds	r0, r4, r0
 8005882:	f001 fe9a 	bl	80075ba <memset>
 8005886:	e7b0      	b.n	80057ea <task_send_ble_packet+0x56>
 8005888:	2000140c 	.word	0x2000140c
 800588c:	20000df4 	.word	0x20000df4
 8005890:	200015d8 	.word	0x200015d8
 8005894:	fffffc00 	.word	0xfffffc00

08005898 <task_receive_ble_packet>:
 8005898:	b5f0      	push	{r4, r5, r6, r7, lr}
 800589a:	4bc4      	ldr	r3, [pc, #784]	; (8005bac <task_receive_ble_packet+0x314>)
 800589c:	46de      	mov	lr, fp
 800589e:	4657      	mov	r7, sl
 80058a0:	4645      	mov	r5, r8
 80058a2:	464e      	mov	r6, r9
 80058a4:	469a      	mov	sl, r3
 80058a6:	4bc2      	ldr	r3, [pc, #776]	; (8005bb0 <task_receive_ble_packet+0x318>)
 80058a8:	b5e0      	push	{r5, r6, r7, lr}
 80058aa:	4698      	mov	r8, r3
 80058ac:	4bc1      	ldr	r3, [pc, #772]	; (8005bb4 <task_receive_ble_packet+0x31c>)
 80058ae:	b08d      	sub	sp, #52	; 0x34
 80058b0:	469b      	mov	fp, r3
 80058b2:	2201      	movs	r2, #1
 80058b4:	4650      	mov	r0, sl
 80058b6:	2300      	movs	r3, #0
 80058b8:	4252      	negs	r2, r2
 80058ba:	2100      	movs	r1, #0
 80058bc:	6800      	ldr	r0, [r0, #0]
 80058be:	f000 fd61 	bl	8006384 <xQueueGenericReceive>
 80058c2:	4abd      	ldr	r2, [pc, #756]	; (8005bb8 <task_receive_ble_packet+0x320>)
 80058c4:	ab09      	add	r3, sp, #36	; 0x24
 80058c6:	ca13      	ldmia	r2!, {r0, r1, r4}
 80058c8:	c313      	stmia	r3!, {r0, r1, r4}
 80058ca:	4643      	mov	r3, r8
 80058cc:	781b      	ldrb	r3, [r3, #0]
 80058ce:	3b40      	subs	r3, #64	; 0x40
 80058d0:	b2db      	uxtb	r3, r3
 80058d2:	2b05      	cmp	r3, #5
 80058d4:	d8ed      	bhi.n	80058b2 <task_receive_ble_packet+0x1a>
 80058d6:	4ab9      	ldr	r2, [pc, #740]	; (8005bbc <task_receive_ble_packet+0x324>)
 80058d8:	009b      	lsls	r3, r3, #2
 80058da:	58d3      	ldr	r3, [r2, r3]
 80058dc:	469f      	mov	pc, r3
 80058de:	4643      	mov	r3, r8
 80058e0:	785e      	ldrb	r6, [r3, #1]
 80058e2:	2e00      	cmp	r6, #0
 80058e4:	d01c      	beq.n	8005920 <task_receive_ble_packet+0x88>
 80058e6:	2600      	movs	r6, #0
 80058e8:	2500      	movs	r5, #0
 80058ea:	1c5f      	adds	r7, r3, #1
 80058ec:	2114      	movs	r1, #20
 80058ee:	0028      	movs	r0, r5
 80058f0:	f7fa fc12 	bl	8000118 <__udivsi3>
 80058f4:	4bb2      	ldr	r3, [pc, #712]	; (8005bc0 <task_receive_ble_packet+0x328>)
 80058f6:	b2c0      	uxtb	r0, r0
 80058f8:	469c      	mov	ip, r3
 80058fa:	0084      	lsls	r4, r0, #2
 80058fc:	1824      	adds	r4, r4, r0
 80058fe:	00a4      	lsls	r4, r4, #2
 8005900:	4464      	add	r4, ip
 8005902:	0039      	movs	r1, r7
 8005904:	2213      	movs	r2, #19
 8005906:	0020      	movs	r0, r4
 8005908:	f001 fe4e 	bl	80075a8 <memcpy>
 800590c:	7cfb      	ldrb	r3, [r7, #19]
 800590e:	3714      	adds	r7, #20
 8005910:	74e3      	strb	r3, [r4, #19]
 8005912:	783b      	ldrb	r3, [r7, #0]
 8005914:	3601      	adds	r6, #1
 8005916:	3514      	adds	r5, #20
 8005918:	b2f6      	uxtb	r6, r6
 800591a:	b2ed      	uxtb	r5, r5
 800591c:	2b00      	cmp	r3, #0
 800591e:	d1e5      	bne.n	80058ec <task_receive_ble_packet+0x54>
 8005920:	4aa8      	ldr	r2, [pc, #672]	; (8005bc4 <task_receive_ble_packet+0x32c>)
 8005922:	ab06      	add	r3, sp, #24
 8005924:	ca03      	ldmia	r2!, {r0, r1}
 8005926:	c303      	stmia	r3!, {r0, r1}
 8005928:	8811      	ldrh	r1, [r2, #0]
 800592a:	8019      	strh	r1, [r3, #0]
 800592c:	7892      	ldrb	r2, [r2, #2]
 800592e:	709a      	strb	r2, [r3, #2]
 8005930:	4ba5      	ldr	r3, [pc, #660]	; (8005bc8 <task_receive_ble_packet+0x330>)
 8005932:	aa02      	add	r2, sp, #8
 8005934:	881b      	ldrh	r3, [r3, #0]
 8005936:	8193      	strh	r3, [r2, #12]
 8005938:	4ba3      	ldr	r3, [pc, #652]	; (8005bc8 <task_receive_ble_packet+0x330>)
 800593a:	789b      	ldrb	r3, [r3, #2]
 800593c:	7393      	strb	r3, [r2, #14]
 800593e:	4ba3      	ldr	r3, [pc, #652]	; (8005bcc <task_receive_ble_packet+0x334>)
 8005940:	781b      	ldrb	r3, [r3, #0]
 8005942:	2b01      	cmp	r3, #1
 8005944:	d100      	bne.n	8005948 <task_receive_ble_packet+0xb0>
 8005946:	e1f1      	b.n	8005d2c <task_receive_ble_packet+0x494>
 8005948:	2b02      	cmp	r3, #2
 800594a:	d100      	bne.n	800594e <task_receive_ble_packet+0xb6>
 800594c:	e1f1      	b.n	8005d32 <task_receive_ble_packet+0x49a>
 800594e:	2b03      	cmp	r3, #3
 8005950:	d100      	bne.n	8005954 <task_receive_ble_packet+0xbc>
 8005952:	e1c9      	b.n	8005ce8 <task_receive_ble_packet+0x450>
 8005954:	2403      	movs	r4, #3
 8005956:	4b9d      	ldr	r3, [pc, #628]	; (8005bcc <task_receive_ble_packet+0x334>)
 8005958:	a806      	add	r0, sp, #24
 800595a:	701c      	strb	r4, [r3, #0]
 800595c:	4b9c      	ldr	r3, [pc, #624]	; (8005bd0 <task_receive_ble_packet+0x338>)
 800595e:	2500      	movs	r5, #0
 8005960:	701e      	strb	r6, [r3, #0]
 8005962:	f7fa fbd1 	bl	8000108 <strlen>
 8005966:	2304      	movs	r3, #4
 8005968:	b2c1      	uxtb	r1, r0
 800596a:	2200      	movs	r2, #0
 800596c:	9300      	str	r3, [sp, #0]
 800596e:	a806      	add	r0, sp, #24
 8005970:	2300      	movs	r3, #0
 8005972:	9501      	str	r5, [sp, #4]
 8005974:	f7fe fdf0 	bl	8004558 <LCD_draw_text>
 8005978:	a805      	add	r0, sp, #20
 800597a:	f7fa fbc5 	bl	8000108 <strlen>
 800597e:	465b      	mov	r3, fp
 8005980:	4a94      	ldr	r2, [pc, #592]	; (8005bd4 <task_receive_ble_packet+0x33c>)
 8005982:	881b      	ldrh	r3, [r3, #0]
 8005984:	8812      	ldrh	r2, [r2, #0]
 8005986:	b2c1      	uxtb	r1, r0
 8005988:	9501      	str	r5, [sp, #4]
 800598a:	9400      	str	r4, [sp, #0]
 800598c:	a805      	add	r0, sp, #20
 800598e:	f7fe fc25 	bl	80041dc <LCD_draw_text_helper>
 8005992:	2e00      	cmp	r6, #0
 8005994:	d100      	bne.n	8005998 <task_receive_ble_packet+0x100>
 8005996:	e1a7      	b.n	8005ce8 <task_receive_ble_packet+0x450>
 8005998:	3631      	adds	r6, #49	; 0x31
 800599a:	b2f3      	uxtb	r3, r6
 800599c:	4d88      	ldr	r5, [pc, #544]	; (8005bc0 <task_receive_ble_packet+0x328>)
 800599e:	4f8e      	ldr	r7, [pc, #568]	; (8005bd8 <task_receive_ble_packet+0x340>)
 80059a0:	9303      	str	r3, [sp, #12]
 80059a2:	342e      	adds	r4, #46	; 0x2e
 80059a4:	2603      	movs	r6, #3
 80059a6:	e022      	b.n	80059ee <task_receive_ble_packet+0x156>
 80059a8:	21f8      	movs	r1, #248	; 0xf8
 80059aa:	465b      	mov	r3, fp
 80059ac:	0209      	lsls	r1, r1, #8
 80059ae:	4689      	mov	r9, r1
 80059b0:	4a88      	ldr	r2, [pc, #544]	; (8005bd4 <task_receive_ble_packet+0x33c>)
 80059b2:	881b      	ldrh	r3, [r3, #0]
 80059b4:	8812      	ldrh	r2, [r2, #0]
 80059b6:	9101      	str	r1, [sp, #4]
 80059b8:	a804      	add	r0, sp, #16
 80059ba:	2102      	movs	r1, #2
 80059bc:	9600      	str	r6, [sp, #0]
 80059be:	f7fe fc0d 	bl	80041dc <LCD_draw_text_helper>
 80059c2:	0028      	movs	r0, r5
 80059c4:	f7fa fba0 	bl	8000108 <strlen>
 80059c8:	465b      	mov	r3, fp
 80059ca:	b2c1      	uxtb	r1, r0
 80059cc:	4648      	mov	r0, r9
 80059ce:	4a81      	ldr	r2, [pc, #516]	; (8005bd4 <task_receive_ble_packet+0x33c>)
 80059d0:	881b      	ldrh	r3, [r3, #0]
 80059d2:	8812      	ldrh	r2, [r2, #0]
 80059d4:	9001      	str	r0, [sp, #4]
 80059d6:	9600      	str	r6, [sp, #0]
 80059d8:	0028      	movs	r0, r5
 80059da:	f7fe fbff 	bl	80041dc <LCD_draw_text_helper>
 80059de:	3401      	adds	r4, #1
 80059e0:	9b03      	ldr	r3, [sp, #12]
 80059e2:	b2e4      	uxtb	r4, r4
 80059e4:	3514      	adds	r5, #20
 80059e6:	3714      	adds	r7, #20
 80059e8:	42a3      	cmp	r3, r4
 80059ea:	d100      	bne.n	80059ee <task_receive_ble_packet+0x156>
 80059ec:	e17c      	b.n	8005ce8 <task_receive_ble_packet+0x450>
 80059ee:	2220      	movs	r2, #32
 80059f0:	ab02      	add	r3, sp, #8
 80059f2:	a805      	add	r0, sp, #20
 80059f4:	725a      	strb	r2, [r3, #9]
 80059f6:	721c      	strb	r4, [r3, #8]
 80059f8:	f7fa fb86 	bl	8000108 <strlen>
 80059fc:	465b      	mov	r3, fp
 80059fe:	b2c1      	uxtb	r1, r0
 8005a00:	2000      	movs	r0, #0
 8005a02:	4a74      	ldr	r2, [pc, #464]	; (8005bd4 <task_receive_ble_packet+0x33c>)
 8005a04:	881b      	ldrh	r3, [r3, #0]
 8005a06:	8812      	ldrh	r2, [r2, #0]
 8005a08:	9001      	str	r0, [sp, #4]
 8005a0a:	9600      	str	r6, [sp, #0]
 8005a0c:	a805      	add	r0, sp, #20
 8005a0e:	f7fe fbe5 	bl	80041dc <LCD_draw_text_helper>
 8005a12:	2214      	movs	r2, #20
 8005a14:	0029      	movs	r1, r5
 8005a16:	0038      	movs	r0, r7
 8005a18:	f001 fdc6 	bl	80075a8 <memcpy>
 8005a1c:	7ceb      	ldrb	r3, [r5, #19]
 8005a1e:	4699      	mov	r9, r3
 8005a20:	2b00      	cmp	r3, #0
 8005a22:	d1c1      	bne.n	80059a8 <task_receive_ble_packet+0x110>
 8005a24:	465b      	mov	r3, fp
 8005a26:	4a6b      	ldr	r2, [pc, #428]	; (8005bd4 <task_receive_ble_packet+0x33c>)
 8005a28:	881b      	ldrh	r3, [r3, #0]
 8005a2a:	8812      	ldrh	r2, [r2, #0]
 8005a2c:	4649      	mov	r1, r9
 8005a2e:	e7c2      	b.n	80059b6 <task_receive_ble_packet+0x11e>
 8005a30:	4643      	mov	r3, r8
 8005a32:	7858      	ldrb	r0, [r3, #1]
 8005a34:	3830      	subs	r0, #48	; 0x30
 8005a36:	f7fb f9d5 	bl	8000de4 <__aeabi_i2f>
 8005a3a:	2100      	movs	r1, #0
 8005a3c:	f7fa fc10 	bl	8000260 <__aeabi_fadd>
 8005a40:	4966      	ldr	r1, [pc, #408]	; (8005bdc <task_receive_ble_packet+0x344>)
 8005a42:	f7fa feb9 	bl	80007b8 <__aeabi_fmul>
 8005a46:	4643      	mov	r3, r8
 8005a48:	1c04      	adds	r4, r0, #0
 8005a4a:	7898      	ldrb	r0, [r3, #2]
 8005a4c:	3830      	subs	r0, #48	; 0x30
 8005a4e:	f7fb f9c9 	bl	8000de4 <__aeabi_i2f>
 8005a52:	1c21      	adds	r1, r4, #0
 8005a54:	f7fa fc04 	bl	8000260 <__aeabi_fadd>
 8005a58:	4960      	ldr	r1, [pc, #384]	; (8005bdc <task_receive_ble_packet+0x344>)
 8005a5a:	f7fa fead 	bl	80007b8 <__aeabi_fmul>
 8005a5e:	4643      	mov	r3, r8
 8005a60:	1c04      	adds	r4, r0, #0
 8005a62:	78d8      	ldrb	r0, [r3, #3]
 8005a64:	3830      	subs	r0, #48	; 0x30
 8005a66:	f7fb f9bd 	bl	8000de4 <__aeabi_i2f>
 8005a6a:	1c21      	adds	r1, r4, #0
 8005a6c:	f7fa fbf8 	bl	8000260 <__aeabi_fadd>
 8005a70:	495a      	ldr	r1, [pc, #360]	; (8005bdc <task_receive_ble_packet+0x344>)
 8005a72:	f7fa fea1 	bl	80007b8 <__aeabi_fmul>
 8005a76:	4643      	mov	r3, r8
 8005a78:	1c04      	adds	r4, r0, #0
 8005a7a:	7918      	ldrb	r0, [r3, #4]
 8005a7c:	3830      	subs	r0, #48	; 0x30
 8005a7e:	f7fb f9b1 	bl	8000de4 <__aeabi_i2f>
 8005a82:	1c21      	adds	r1, r4, #0
 8005a84:	f7fa fbec 	bl	8000260 <__aeabi_fadd>
 8005a88:	4954      	ldr	r1, [pc, #336]	; (8005bdc <task_receive_ble_packet+0x344>)
 8005a8a:	f7fa fe95 	bl	80007b8 <__aeabi_fmul>
 8005a8e:	4643      	mov	r3, r8
 8005a90:	1c04      	adds	r4, r0, #0
 8005a92:	7958      	ldrb	r0, [r3, #5]
 8005a94:	3830      	subs	r0, #48	; 0x30
 8005a96:	f7fb f9a5 	bl	8000de4 <__aeabi_i2f>
 8005a9a:	1c21      	adds	r1, r4, #0
 8005a9c:	f7fa fbe0 	bl	8000260 <__aeabi_fadd>
 8005aa0:	494e      	ldr	r1, [pc, #312]	; (8005bdc <task_receive_ble_packet+0x344>)
 8005aa2:	f7fa fe89 	bl	80007b8 <__aeabi_fmul>
 8005aa6:	4643      	mov	r3, r8
 8005aa8:	1c04      	adds	r4, r0, #0
 8005aaa:	7a18      	ldrb	r0, [r3, #8]
 8005aac:	3830      	subs	r0, #48	; 0x30
 8005aae:	f7fb f999 	bl	8000de4 <__aeabi_i2f>
 8005ab2:	2100      	movs	r1, #0
 8005ab4:	f7fa fbd4 	bl	8000260 <__aeabi_fadd>
 8005ab8:	4948      	ldr	r1, [pc, #288]	; (8005bdc <task_receive_ble_packet+0x344>)
 8005aba:	f7fa fe7d 	bl	80007b8 <__aeabi_fmul>
 8005abe:	4643      	mov	r3, r8
 8005ac0:	1c05      	adds	r5, r0, #0
 8005ac2:	7a58      	ldrb	r0, [r3, #9]
 8005ac4:	3830      	subs	r0, #48	; 0x30
 8005ac6:	f7fb f98d 	bl	8000de4 <__aeabi_i2f>
 8005aca:	1c29      	adds	r1, r5, #0
 8005acc:	f7fa fbc8 	bl	8000260 <__aeabi_fadd>
 8005ad0:	4643      	mov	r3, r8
 8005ad2:	1c05      	adds	r5, r0, #0
 8005ad4:	7998      	ldrb	r0, [r3, #6]
 8005ad6:	3830      	subs	r0, #48	; 0x30
 8005ad8:	f7fb f984 	bl	8000de4 <__aeabi_i2f>
 8005adc:	1c21      	adds	r1, r4, #0
 8005ade:	f7fa fbbf 	bl	8000260 <__aeabi_fadd>
 8005ae2:	493f      	ldr	r1, [pc, #252]	; (8005be0 <task_receive_ble_packet+0x348>)
 8005ae4:	1c04      	adds	r4, r0, #0
 8005ae6:	1c28      	adds	r0, r5, #0
 8005ae8:	f7fa fd54 	bl	8000594 <__aeabi_fdiv>
 8005aec:	1c01      	adds	r1, r0, #0
 8005aee:	1c20      	adds	r0, r4, #0
 8005af0:	f7fa fbb6 	bl	8000260 <__aeabi_fadd>
 8005af4:	4b3b      	ldr	r3, [pc, #236]	; (8005be4 <task_receive_ble_packet+0x34c>)
 8005af6:	6018      	str	r0, [r3, #0]
 8005af8:	f7fe ff38 	bl	800496c <print_race_start>
 8005afc:	4b3a      	ldr	r3, [pc, #232]	; (8005be8 <task_receive_ble_packet+0x350>)
 8005afe:	785b      	ldrb	r3, [r3, #1]
 8005b00:	2b47      	cmp	r3, #71	; 0x47
 8005b02:	d077      	beq.n	8005bf4 <task_receive_ble_packet+0x35c>
 8005b04:	2100      	movs	r1, #0
 8005b06:	4b37      	ldr	r3, [pc, #220]	; (8005be4 <task_receive_ble_packet+0x34c>)
 8005b08:	6818      	ldr	r0, [r3, #0]
 8005b0a:	f7fa ff87 	bl	8000a1c <__aeabi_fsub>
 8005b0e:	2180      	movs	r1, #128	; 0x80
 8005b10:	05c9      	lsls	r1, r1, #23
 8005b12:	f7fa ff83 	bl	8000a1c <__aeabi_fsub>
 8005b16:	4932      	ldr	r1, [pc, #200]	; (8005be0 <task_receive_ble_packet+0x348>)
 8005b18:	f7fa fe4e 	bl	80007b8 <__aeabi_fmul>
 8005b1c:	f7fa fb88 	bl	8000230 <__aeabi_f2uiz>
 8005b20:	f001 f964 	bl	8006dec <vTaskDelay>
 8005b24:	2101      	movs	r1, #1
 8005b26:	2000      	movs	r0, #0
 8005b28:	f7ff fade 	bl	80050e8 <setLED>
 8005b2c:	20fa      	movs	r0, #250	; 0xfa
 8005b2e:	0080      	lsls	r0, r0, #2
 8005b30:	f001 f95c 	bl	8006dec <vTaskDelay>
 8005b34:	2101      	movs	r1, #1
 8005b36:	2001      	movs	r0, #1
 8005b38:	f7ff fad6 	bl	80050e8 <setLED>
 8005b3c:	20fa      	movs	r0, #250	; 0xfa
 8005b3e:	0080      	lsls	r0, r0, #2
 8005b40:	f001 f954 	bl	8006dec <vTaskDelay>
 8005b44:	2101      	movs	r1, #1
 8005b46:	2002      	movs	r0, #2
 8005b48:	f7ff face 	bl	80050e8 <setLED>
 8005b4c:	f7fe fe96 	bl	800487c <race>
 8005b50:	e6af      	b.n	80058b2 <task_receive_ble_packet+0x1a>
 8005b52:	4643      	mov	r3, r8
 8005b54:	785c      	ldrb	r4, [r3, #1]
 8005b56:	210a      	movs	r1, #10
 8005b58:	0020      	movs	r0, r4
 8005b5a:	f7fa fb63 	bl	8000224 <__aeabi_uidivmod>
 8005b5e:	b2cd      	uxtb	r5, r1
 8005b60:	2d01      	cmp	r5, #1
 8005b62:	d100      	bne.n	8005b66 <task_receive_ble_packet+0x2ce>
 8005b64:	e0d6      	b.n	8005d14 <task_receive_ble_packet+0x47c>
 8005b66:	2d02      	cmp	r5, #2
 8005b68:	d100      	bne.n	8005b6c <task_receive_ble_packet+0x2d4>
 8005b6a:	e0d9      	b.n	8005d20 <task_receive_ble_packet+0x488>
 8005b6c:	2d03      	cmp	r5, #3
 8005b6e:	d105      	bne.n	8005b7c <task_receive_ble_packet+0x2e4>
 8005b70:	2c0d      	cmp	r4, #13
 8005b72:	d100      	bne.n	8005b76 <task_receive_ble_packet+0x2de>
 8005b74:	e0c5      	b.n	8005d02 <task_receive_ble_packet+0x46a>
 8005b76:	4b1d      	ldr	r3, [pc, #116]	; (8005bec <task_receive_ble_packet+0x354>)
 8005b78:	aa02      	add	r2, sp, #8
 8005b7a:	83d3      	strh	r3, [r2, #30]
 8005b7c:	2c09      	cmp	r4, #9
 8005b7e:	d900      	bls.n	8005b82 <task_receive_ble_packet+0x2ea>
 8005b80:	e0bf      	b.n	8005d02 <task_receive_ble_packet+0x46a>
 8005b82:	3430      	adds	r4, #48	; 0x30
 8005b84:	ab02      	add	r3, sp, #8
 8005b86:	a809      	add	r0, sp, #36	; 0x24
 8005b88:	775c      	strb	r4, [r3, #29]
 8005b8a:	f7ff f96f 	bl	8004e6c <print_race_end>
 8005b8e:	e690      	b.n	80058b2 <task_receive_ble_packet+0x1a>
 8005b90:	f7fe fea8 	bl	80048e4 <print_idle>
 8005b94:	e68d      	b.n	80058b2 <task_receive_ble_packet+0x1a>
 8005b96:	f7ff f9fd 	bl	8004f94 <print_gps_rip>
 8005b9a:	e68a      	b.n	80058b2 <task_receive_ble_packet+0x1a>
 8005b9c:	4643      	mov	r3, r8
 8005b9e:	7858      	ldrb	r0, [r3, #1]
 8005ba0:	4b13      	ldr	r3, [pc, #76]	; (8005bf0 <task_receive_ble_packet+0x358>)
 8005ba2:	7018      	strb	r0, [r3, #0]
 8005ba4:	f7fe ff26 	bl	80049f4 <print_pos_update>
 8005ba8:	e683      	b.n	80058b2 <task_receive_ble_packet+0x1a>
 8005baa:	46c0      	nop			; (mov r8, r8)
 8005bac:	20000d70 	.word	0x20000d70
 8005bb0:	20000d78 	.word	0x20000d78
 8005bb4:	20000f6c 	.word	0x20000f6c
 8005bb8:	08007dbc 	.word	0x08007dbc
 8005bbc:	08007d80 	.word	0x08007d80
 8005bc0:	20000ee4 	.word	0x20000ee4
 8005bc4:	08007dc8 	.word	0x08007dc8
 8005bc8:	08007dd4 	.word	0x08007dd4
 8005bcc:	20000d74 	.word	0x20000d74
 8005bd0:	20000f74 	.word	0x20000f74
 8005bd4:	2000148c 	.word	0x2000148c
 8005bd8:	20001414 	.word	0x20001414
 8005bdc:	41200000 	.word	0x41200000
 8005be0:	447a0000 	.word	0x447a0000
 8005be4:	20000f5c 	.word	0x20000f5c
 8005be8:	20000df4 	.word	0x20000df4
 8005bec:	00006472 	.word	0x00006472
 8005bf0:	200014b8 	.word	0x200014b8
 8005bf4:	22fd      	movs	r2, #253	; 0xfd
 8005bf6:	4b50      	ldr	r3, [pc, #320]	; (8005d38 <task_receive_ble_packet+0x4a0>)
 8005bf8:	789b      	ldrb	r3, [r3, #2]
 8005bfa:	3b4e      	subs	r3, #78	; 0x4e
 8005bfc:	4213      	tst	r3, r2
 8005bfe:	d000      	beq.n	8005c02 <task_receive_ble_packet+0x36a>
 8005c00:	e780      	b.n	8005b04 <task_receive_ble_packet+0x26c>
 8005c02:	4b4d      	ldr	r3, [pc, #308]	; (8005d38 <task_receive_ble_packet+0x4a0>)
 8005c04:	78db      	ldrb	r3, [r3, #3]
 8005c06:	2b52      	cmp	r3, #82	; 0x52
 8005c08:	d000      	beq.n	8005c0c <task_receive_ble_packet+0x374>
 8005c0a:	e77b      	b.n	8005b04 <task_receive_ble_packet+0x26c>
 8005c0c:	4b4a      	ldr	r3, [pc, #296]	; (8005d38 <task_receive_ble_packet+0x4a0>)
 8005c0e:	791b      	ldrb	r3, [r3, #4]
 8005c10:	2b4d      	cmp	r3, #77	; 0x4d
 8005c12:	d000      	beq.n	8005c16 <task_receive_ble_packet+0x37e>
 8005c14:	e776      	b.n	8005b04 <task_receive_ble_packet+0x26c>
 8005c16:	4b48      	ldr	r3, [pc, #288]	; (8005d38 <task_receive_ble_packet+0x4a0>)
 8005c18:	795b      	ldrb	r3, [r3, #5]
 8005c1a:	2b43      	cmp	r3, #67	; 0x43
 8005c1c:	d000      	beq.n	8005c20 <task_receive_ble_packet+0x388>
 8005c1e:	e771      	b.n	8005b04 <task_receive_ble_packet+0x26c>
 8005c20:	4b45      	ldr	r3, [pc, #276]	; (8005d38 <task_receive_ble_packet+0x4a0>)
 8005c22:	79d8      	ldrb	r0, [r3, #7]
 8005c24:	3830      	subs	r0, #48	; 0x30
 8005c26:	f7fb f8dd 	bl	8000de4 <__aeabi_i2f>
 8005c2a:	2100      	movs	r1, #0
 8005c2c:	f7fa fb18 	bl	8000260 <__aeabi_fadd>
 8005c30:	4942      	ldr	r1, [pc, #264]	; (8005d3c <task_receive_ble_packet+0x4a4>)
 8005c32:	f7fa fdc1 	bl	80007b8 <__aeabi_fmul>
 8005c36:	4b40      	ldr	r3, [pc, #256]	; (8005d38 <task_receive_ble_packet+0x4a0>)
 8005c38:	1c04      	adds	r4, r0, #0
 8005c3a:	7a18      	ldrb	r0, [r3, #8]
 8005c3c:	3830      	subs	r0, #48	; 0x30
 8005c3e:	f7fb f8d1 	bl	8000de4 <__aeabi_i2f>
 8005c42:	1c21      	adds	r1, r4, #0
 8005c44:	f7fa fb0c 	bl	8000260 <__aeabi_fadd>
 8005c48:	493c      	ldr	r1, [pc, #240]	; (8005d3c <task_receive_ble_packet+0x4a4>)
 8005c4a:	f7fa fdb5 	bl	80007b8 <__aeabi_fmul>
 8005c4e:	4b3a      	ldr	r3, [pc, #232]	; (8005d38 <task_receive_ble_packet+0x4a0>)
 8005c50:	1c04      	adds	r4, r0, #0
 8005c52:	7a58      	ldrb	r0, [r3, #9]
 8005c54:	3830      	subs	r0, #48	; 0x30
 8005c56:	f7fb f8c5 	bl	8000de4 <__aeabi_i2f>
 8005c5a:	1c21      	adds	r1, r4, #0
 8005c5c:	f7fa fb00 	bl	8000260 <__aeabi_fadd>
 8005c60:	4936      	ldr	r1, [pc, #216]	; (8005d3c <task_receive_ble_packet+0x4a4>)
 8005c62:	f7fa fda9 	bl	80007b8 <__aeabi_fmul>
 8005c66:	4b34      	ldr	r3, [pc, #208]	; (8005d38 <task_receive_ble_packet+0x4a0>)
 8005c68:	1c04      	adds	r4, r0, #0
 8005c6a:	7a98      	ldrb	r0, [r3, #10]
 8005c6c:	3830      	subs	r0, #48	; 0x30
 8005c6e:	f7fb f8b9 	bl	8000de4 <__aeabi_i2f>
 8005c72:	1c21      	adds	r1, r4, #0
 8005c74:	f7fa faf4 	bl	8000260 <__aeabi_fadd>
 8005c78:	4930      	ldr	r1, [pc, #192]	; (8005d3c <task_receive_ble_packet+0x4a4>)
 8005c7a:	f7fa fd9d 	bl	80007b8 <__aeabi_fmul>
 8005c7e:	4b2e      	ldr	r3, [pc, #184]	; (8005d38 <task_receive_ble_packet+0x4a0>)
 8005c80:	1c04      	adds	r4, r0, #0
 8005c82:	7ad8      	ldrb	r0, [r3, #11]
 8005c84:	3830      	subs	r0, #48	; 0x30
 8005c86:	f7fb f8ad 	bl	8000de4 <__aeabi_i2f>
 8005c8a:	1c21      	adds	r1, r4, #0
 8005c8c:	f7fa fae8 	bl	8000260 <__aeabi_fadd>
 8005c90:	492a      	ldr	r1, [pc, #168]	; (8005d3c <task_receive_ble_packet+0x4a4>)
 8005c92:	f7fa fd91 	bl	80007b8 <__aeabi_fmul>
 8005c96:	4b28      	ldr	r3, [pc, #160]	; (8005d38 <task_receive_ble_packet+0x4a0>)
 8005c98:	1c04      	adds	r4, r0, #0
 8005c9a:	7b98      	ldrb	r0, [r3, #14]
 8005c9c:	3830      	subs	r0, #48	; 0x30
 8005c9e:	f7fb f8a1 	bl	8000de4 <__aeabi_i2f>
 8005ca2:	2100      	movs	r1, #0
 8005ca4:	f7fa fadc 	bl	8000260 <__aeabi_fadd>
 8005ca8:	4924      	ldr	r1, [pc, #144]	; (8005d3c <task_receive_ble_packet+0x4a4>)
 8005caa:	f7fa fd85 	bl	80007b8 <__aeabi_fmul>
 8005cae:	4b22      	ldr	r3, [pc, #136]	; (8005d38 <task_receive_ble_packet+0x4a0>)
 8005cb0:	1c05      	adds	r5, r0, #0
 8005cb2:	7bd8      	ldrb	r0, [r3, #15]
 8005cb4:	3830      	subs	r0, #48	; 0x30
 8005cb6:	f7fb f895 	bl	8000de4 <__aeabi_i2f>
 8005cba:	1c29      	adds	r1, r5, #0
 8005cbc:	f7fa fad0 	bl	8000260 <__aeabi_fadd>
 8005cc0:	4b1d      	ldr	r3, [pc, #116]	; (8005d38 <task_receive_ble_packet+0x4a0>)
 8005cc2:	1c05      	adds	r5, r0, #0
 8005cc4:	7b18      	ldrb	r0, [r3, #12]
 8005cc6:	3830      	subs	r0, #48	; 0x30
 8005cc8:	f7fb f88c 	bl	8000de4 <__aeabi_i2f>
 8005ccc:	1c21      	adds	r1, r4, #0
 8005cce:	f7fa fac7 	bl	8000260 <__aeabi_fadd>
 8005cd2:	491b      	ldr	r1, [pc, #108]	; (8005d40 <task_receive_ble_packet+0x4a8>)
 8005cd4:	1c04      	adds	r4, r0, #0
 8005cd6:	1c28      	adds	r0, r5, #0
 8005cd8:	f7fa fc5c 	bl	8000594 <__aeabi_fdiv>
 8005cdc:	1c01      	adds	r1, r0, #0
 8005cde:	1c20      	adds	r0, r4, #0
 8005ce0:	f7fa fabe 	bl	8000260 <__aeabi_fadd>
 8005ce4:	1c01      	adds	r1, r0, #0
 8005ce6:	e70e      	b.n	8005b06 <task_receive_ble_packet+0x26e>
 8005ce8:	2100      	movs	r1, #0
 8005cea:	2000      	movs	r0, #0
 8005cec:	f7ff f9fc 	bl	80050e8 <setLED>
 8005cf0:	2100      	movs	r1, #0
 8005cf2:	2001      	movs	r0, #1
 8005cf4:	f7ff f9f8 	bl	80050e8 <setLED>
 8005cf8:	2100      	movs	r1, #0
 8005cfa:	2002      	movs	r0, #2
 8005cfc:	f7ff f9f4 	bl	80050e8 <setLED>
 8005d00:	e5d7      	b.n	80058b2 <task_receive_ble_packet+0x1a>
 8005d02:	0020      	movs	r0, r4
 8005d04:	210a      	movs	r1, #10
 8005d06:	f7fa fa07 	bl	8000118 <__udivsi3>
 8005d0a:	ab02      	add	r3, sp, #8
 8005d0c:	3030      	adds	r0, #48	; 0x30
 8005d0e:	7718      	strb	r0, [r3, #28]
 8005d10:	002c      	movs	r4, r5
 8005d12:	e736      	b.n	8005b82 <task_receive_ble_packet+0x2ea>
 8005d14:	2c0b      	cmp	r4, #11
 8005d16:	d0f4      	beq.n	8005d02 <task_receive_ble_packet+0x46a>
 8005d18:	4b0a      	ldr	r3, [pc, #40]	; (8005d44 <task_receive_ble_packet+0x4ac>)
 8005d1a:	aa02      	add	r2, sp, #8
 8005d1c:	83d3      	strh	r3, [r2, #30]
 8005d1e:	e72d      	b.n	8005b7c <task_receive_ble_packet+0x2e4>
 8005d20:	2c0c      	cmp	r4, #12
 8005d22:	d0ee      	beq.n	8005d02 <task_receive_ble_packet+0x46a>
 8005d24:	4b08      	ldr	r3, [pc, #32]	; (8005d48 <task_receive_ble_packet+0x4b0>)
 8005d26:	aa02      	add	r2, sp, #8
 8005d28:	83d3      	strh	r3, [r2, #30]
 8005d2a:	e727      	b.n	8005b7c <task_receive_ble_packet+0x2e4>
 8005d2c:	f7fe ffd0 	bl	8004cd0 <erase_update>
 8005d30:	e610      	b.n	8005954 <task_receive_ble_packet+0xbc>
 8005d32:	f7ff f9a7 	bl	8005084 <erase_end>
 8005d36:	e60d      	b.n	8005954 <task_receive_ble_packet+0xbc>
 8005d38:	20000df4 	.word	0x20000df4
 8005d3c:	41200000 	.word	0x41200000
 8005d40:	447a0000 	.word	0x447a0000
 8005d44:	00007473 	.word	0x00007473
 8005d48:	0000646e 	.word	0x0000646e

08005d4c <RTOS_INIT>:
 8005d4c:	b510      	push	{r4, lr}
 8005d4e:	2203      	movs	r2, #3
 8005d50:	2100      	movs	r1, #0
 8005d52:	2001      	movs	r0, #1
 8005d54:	f000 fa9e 	bl	8006294 <xQueueGenericCreate>
 8005d58:	4b02      	ldr	r3, [pc, #8]	; (8005d64 <RTOS_INIT+0x18>)
 8005d5a:	6018      	str	r0, [r3, #0]
 8005d5c:	f000 fe00 	bl	8006960 <vTaskStartScheduler>
 8005d60:	bd10      	pop	{r4, pc}
 8005d62:	46c0      	nop			; (mov r8, r8)
 8005d64:	20000d70 	.word	0x20000d70

08005d68 <RTOS_INIT_TASKS>:
 8005d68:	b510      	push	{r4, lr}
 8005d6a:	4b0d      	ldr	r3, [pc, #52]	; (8005da0 <RTOS_INIT_TASKS+0x38>)
 8005d6c:	b082      	sub	sp, #8
 8005d6e:	681b      	ldr	r3, [r3, #0]
 8005d70:	2480      	movs	r4, #128	; 0x80
 8005d72:	9301      	str	r3, [sp, #4]
 8005d74:	2301      	movs	r3, #1
 8005d76:	0064      	lsls	r4, r4, #1
 8005d78:	9300      	str	r3, [sp, #0]
 8005d7a:	0022      	movs	r2, r4
 8005d7c:	2300      	movs	r3, #0
 8005d7e:	4909      	ldr	r1, [pc, #36]	; (8005da4 <RTOS_INIT_TASKS+0x3c>)
 8005d80:	4809      	ldr	r0, [pc, #36]	; (8005da8 <RTOS_INIT_TASKS+0x40>)
 8005d82:	f000 fcb9 	bl	80066f8 <xTaskCreate>
 8005d86:	4b09      	ldr	r3, [pc, #36]	; (8005dac <RTOS_INIT_TASKS+0x44>)
 8005d88:	0022      	movs	r2, r4
 8005d8a:	681b      	ldr	r3, [r3, #0]
 8005d8c:	4908      	ldr	r1, [pc, #32]	; (8005db0 <RTOS_INIT_TASKS+0x48>)
 8005d8e:	9301      	str	r3, [sp, #4]
 8005d90:	2300      	movs	r3, #0
 8005d92:	4808      	ldr	r0, [pc, #32]	; (8005db4 <RTOS_INIT_TASKS+0x4c>)
 8005d94:	9300      	str	r3, [sp, #0]
 8005d96:	f000 fcaf 	bl	80066f8 <xTaskCreate>
 8005d9a:	b002      	add	sp, #8
 8005d9c:	bd10      	pop	{r4, pc}
 8005d9e:	46c0      	nop			; (mov r8, r8)
 8005da0:	20000f68 	.word	0x20000f68
 8005da4:	08007d98 	.word	0x08007d98
 8005da8:	08005795 	.word	0x08005795
 8005dac:	20000fb0 	.word	0x20000fb0
 8005db0:	08007da8 	.word	0x08007da8
 8005db4:	08005899 	.word	0x08005899

08005db8 <erase_end_all>:
 8005db8:	b5f0      	push	{r4, r5, r6, r7, lr}
 8005dba:	46de      	mov	lr, fp
 8005dbc:	4657      	mov	r7, sl
 8005dbe:	464e      	mov	r6, r9
 8005dc0:	4645      	mov	r5, r8
 8005dc2:	b5e0      	push	{r5, r6, r7, lr}
 8005dc4:	b089      	sub	sp, #36	; 0x24
 8005dc6:	a805      	add	r0, sp, #20
 8005dc8:	0002      	movs	r2, r0
 8005dca:	2503      	movs	r5, #3
 8005dcc:	4b39      	ldr	r3, [pc, #228]	; (8005eb4 <erase_end_all+0xfc>)
 8005dce:	af04      	add	r7, sp, #16
 8005dd0:	cb12      	ldmia	r3!, {r1, r4}
 8005dd2:	c212      	stmia	r2!, {r1, r4}
 8005dd4:	8819      	ldrh	r1, [r3, #0]
 8005dd6:	4c38      	ldr	r4, [pc, #224]	; (8005eb8 <erase_end_all+0x100>)
 8005dd8:	8011      	strh	r1, [r2, #0]
 8005dda:	789b      	ldrb	r3, [r3, #2]
 8005ddc:	210a      	movs	r1, #10
 8005dde:	7093      	strb	r3, [r2, #2]
 8005de0:	4b36      	ldr	r3, [pc, #216]	; (8005ebc <erase_end_all+0x104>)
 8005de2:	881a      	ldrh	r2, [r3, #0]
 8005de4:	803a      	strh	r2, [r7, #0]
 8005de6:	789b      	ldrb	r3, [r3, #2]
 8005de8:	2200      	movs	r2, #0
 8005dea:	70bb      	strb	r3, [r7, #2]
 8005dec:	4b34      	ldr	r3, [pc, #208]	; (8005ec0 <erase_end_all+0x108>)
 8005dee:	701d      	strb	r5, [r3, #0]
 8005df0:	2304      	movs	r3, #4
 8005df2:	9401      	str	r4, [sp, #4]
 8005df4:	9300      	str	r3, [sp, #0]
 8005df6:	2300      	movs	r3, #0
 8005df8:	f7fe f9f0 	bl	80041dc <LCD_draw_text_helper>
 8005dfc:	0038      	movs	r0, r7
 8005dfe:	f7fa f983 	bl	8000108 <strlen>
 8005e02:	b2c1      	uxtb	r1, r0
 8005e04:	2000      	movs	r0, #0
 8005e06:	4b2f      	ldr	r3, [pc, #188]	; (8005ec4 <erase_end_all+0x10c>)
 8005e08:	4a2f      	ldr	r2, [pc, #188]	; (8005ec8 <erase_end_all+0x110>)
 8005e0a:	4699      	mov	r9, r3
 8005e0c:	4692      	mov	sl, r2
 8005e0e:	881b      	ldrh	r3, [r3, #0]
 8005e10:	8812      	ldrh	r2, [r2, #0]
 8005e12:	9001      	str	r0, [sp, #4]
 8005e14:	9500      	str	r5, [sp, #0]
 8005e16:	0038      	movs	r0, r7
 8005e18:	f7fe f9e0 	bl	80041dc <LCD_draw_text_helper>
 8005e1c:	4b2b      	ldr	r3, [pc, #172]	; (8005ecc <erase_end_all+0x114>)
 8005e1e:	781b      	ldrb	r3, [r3, #0]
 8005e20:	2b00      	cmp	r3, #0
 8005e22:	d03f      	beq.n	8005ea4 <erase_end_all+0xec>
 8005e24:	2303      	movs	r3, #3
 8005e26:	2500      	movs	r5, #0
 8005e28:	46a0      	mov	r8, r4
 8005e2a:	469b      	mov	fp, r3
 8005e2c:	ae03      	add	r6, sp, #12
 8005e2e:	002b      	movs	r3, r5
 8005e30:	3331      	adds	r3, #49	; 0x31
 8005e32:	7033      	strb	r3, [r6, #0]
 8005e34:	2320      	movs	r3, #32
 8005e36:	0038      	movs	r0, r7
 8005e38:	7073      	strb	r3, [r6, #1]
 8005e3a:	f7fa f965 	bl	8000108 <strlen>
 8005e3e:	464b      	mov	r3, r9
 8005e40:	b2c1      	uxtb	r1, r0
 8005e42:	4652      	mov	r2, sl
 8005e44:	4640      	mov	r0, r8
 8005e46:	881b      	ldrh	r3, [r3, #0]
 8005e48:	8812      	ldrh	r2, [r2, #0]
 8005e4a:	9001      	str	r0, [sp, #4]
 8005e4c:	4658      	mov	r0, fp
 8005e4e:	9000      	str	r0, [sp, #0]
 8005e50:	0038      	movs	r0, r7
 8005e52:	f7fe f9c3 	bl	80041dc <LCD_draw_text_helper>
 8005e56:	4641      	mov	r1, r8
 8005e58:	464b      	mov	r3, r9
 8005e5a:	4652      	mov	r2, sl
 8005e5c:	881b      	ldrh	r3, [r3, #0]
 8005e5e:	8812      	ldrh	r2, [r2, #0]
 8005e60:	9101      	str	r1, [sp, #4]
 8005e62:	4659      	mov	r1, fp
 8005e64:	0030      	movs	r0, r6
 8005e66:	9100      	str	r1, [sp, #0]
 8005e68:	2102      	movs	r1, #2
 8005e6a:	f7fe f9b7 	bl	80041dc <LCD_draw_text_helper>
 8005e6e:	4b18      	ldr	r3, [pc, #96]	; (8005ed0 <erase_end_all+0x118>)
 8005e70:	00ac      	lsls	r4, r5, #2
 8005e72:	469c      	mov	ip, r3
 8005e74:	1964      	adds	r4, r4, r5
 8005e76:	00a4      	lsls	r4, r4, #2
 8005e78:	4464      	add	r4, ip
 8005e7a:	0020      	movs	r0, r4
 8005e7c:	f7fa f944 	bl	8000108 <strlen>
 8005e80:	464b      	mov	r3, r9
 8005e82:	b2c1      	uxtb	r1, r0
 8005e84:	4652      	mov	r2, sl
 8005e86:	4640      	mov	r0, r8
 8005e88:	881b      	ldrh	r3, [r3, #0]
 8005e8a:	8812      	ldrh	r2, [r2, #0]
 8005e8c:	9001      	str	r0, [sp, #4]
 8005e8e:	4658      	mov	r0, fp
 8005e90:	9000      	str	r0, [sp, #0]
 8005e92:	0020      	movs	r0, r4
 8005e94:	f7fe f9a2 	bl	80041dc <LCD_draw_text_helper>
 8005e98:	4b0c      	ldr	r3, [pc, #48]	; (8005ecc <erase_end_all+0x114>)
 8005e9a:	3501      	adds	r5, #1
 8005e9c:	781b      	ldrb	r3, [r3, #0]
 8005e9e:	b2ed      	uxtb	r5, r5
 8005ea0:	42ab      	cmp	r3, r5
 8005ea2:	d8c4      	bhi.n	8005e2e <erase_end_all+0x76>
 8005ea4:	b009      	add	sp, #36	; 0x24
 8005ea6:	bc3c      	pop	{r2, r3, r4, r5}
 8005ea8:	4690      	mov	r8, r2
 8005eaa:	4699      	mov	r9, r3
 8005eac:	46a2      	mov	sl, r4
 8005eae:	46ab      	mov	fp, r5
 8005eb0:	bdf0      	pop	{r4, r5, r6, r7, pc}
 8005eb2:	46c0      	nop			; (mov r8, r8)
 8005eb4:	08007dc8 	.word	0x08007dc8
 8005eb8:	0000ffff 	.word	0x0000ffff
 8005ebc:	08007dd4 	.word	0x08007dd4
 8005ec0:	20000d74 	.word	0x20000d74
 8005ec4:	20000f6c 	.word	0x20000f6c
 8005ec8:	2000148c 	.word	0x2000148c
 8005ecc:	20000f74 	.word	0x20000f74
 8005ed0:	20001414 	.word	0x20001414

08005ed4 <HAL_MspInit>:
 8005ed4:	2201      	movs	r2, #1
 8005ed6:	4b0a      	ldr	r3, [pc, #40]	; (8005f00 <HAL_MspInit+0x2c>)
 8005ed8:	b082      	sub	sp, #8
 8005eda:	6999      	ldr	r1, [r3, #24]
 8005edc:	4311      	orrs	r1, r2
 8005ede:	6199      	str	r1, [r3, #24]
 8005ee0:	6999      	ldr	r1, [r3, #24]
 8005ee2:	400a      	ands	r2, r1
 8005ee4:	2180      	movs	r1, #128	; 0x80
 8005ee6:	9200      	str	r2, [sp, #0]
 8005ee8:	9a00      	ldr	r2, [sp, #0]
 8005eea:	69da      	ldr	r2, [r3, #28]
 8005eec:	0549      	lsls	r1, r1, #21
 8005eee:	430a      	orrs	r2, r1
 8005ef0:	61da      	str	r2, [r3, #28]
 8005ef2:	69db      	ldr	r3, [r3, #28]
 8005ef4:	400b      	ands	r3, r1
 8005ef6:	9301      	str	r3, [sp, #4]
 8005ef8:	9b01      	ldr	r3, [sp, #4]
 8005efa:	b002      	add	sp, #8
 8005efc:	4770      	bx	lr
 8005efe:	46c0      	nop			; (mov r8, r8)
 8005f00:	40021000 	.word	0x40021000

08005f04 <HAL_I2C_MspInit>:
 8005f04:	b510      	push	{r4, lr}
 8005f06:	0004      	movs	r4, r0
 8005f08:	b088      	sub	sp, #32
 8005f0a:	2214      	movs	r2, #20
 8005f0c:	2100      	movs	r1, #0
 8005f0e:	a803      	add	r0, sp, #12
 8005f10:	f001 fb53 	bl	80075ba <memset>
 8005f14:	4b14      	ldr	r3, [pc, #80]	; (8005f68 <HAL_I2C_MspInit+0x64>)
 8005f16:	6822      	ldr	r2, [r4, #0]
 8005f18:	429a      	cmp	r2, r3
 8005f1a:	d001      	beq.n	8005f20 <HAL_I2C_MspInit+0x1c>
 8005f1c:	b008      	add	sp, #32
 8005f1e:	bd10      	pop	{r4, pc}
 8005f20:	2180      	movs	r1, #128	; 0x80
 8005f22:	4c12      	ldr	r4, [pc, #72]	; (8005f6c <HAL_I2C_MspInit+0x68>)
 8005f24:	02c9      	lsls	r1, r1, #11
 8005f26:	6962      	ldr	r2, [r4, #20]
 8005f28:	4811      	ldr	r0, [pc, #68]	; (8005f70 <HAL_I2C_MspInit+0x6c>)
 8005f2a:	430a      	orrs	r2, r1
 8005f2c:	6162      	str	r2, [r4, #20]
 8005f2e:	6963      	ldr	r3, [r4, #20]
 8005f30:	2203      	movs	r2, #3
 8005f32:	400b      	ands	r3, r1
 8005f34:	9301      	str	r3, [sp, #4]
 8005f36:	9b01      	ldr	r3, [sp, #4]
 8005f38:	23c0      	movs	r3, #192	; 0xc0
 8005f3a:	005b      	lsls	r3, r3, #1
 8005f3c:	9303      	str	r3, [sp, #12]
 8005f3e:	3b6f      	subs	r3, #111	; 0x6f
 8005f40:	3bff      	subs	r3, #255	; 0xff
 8005f42:	9304      	str	r3, [sp, #16]
 8005f44:	a903      	add	r1, sp, #12
 8005f46:	3b11      	subs	r3, #17
 8005f48:	9305      	str	r3, [sp, #20]
 8005f4a:	9206      	str	r2, [sp, #24]
 8005f4c:	9307      	str	r3, [sp, #28]
 8005f4e:	f7fb fa43 	bl	80013d8 <HAL_GPIO_Init>
 8005f52:	2180      	movs	r1, #128	; 0x80
 8005f54:	69e2      	ldr	r2, [r4, #28]
 8005f56:	0389      	lsls	r1, r1, #14
 8005f58:	430a      	orrs	r2, r1
 8005f5a:	61e2      	str	r2, [r4, #28]
 8005f5c:	69e3      	ldr	r3, [r4, #28]
 8005f5e:	400b      	ands	r3, r1
 8005f60:	9302      	str	r3, [sp, #8]
 8005f62:	9b02      	ldr	r3, [sp, #8]
 8005f64:	e7da      	b.n	8005f1c <HAL_I2C_MspInit+0x18>
 8005f66:	46c0      	nop			; (mov r8, r8)
 8005f68:	40005400 	.word	0x40005400
 8005f6c:	40021000 	.word	0x40021000
 8005f70:	48000400 	.word	0x48000400

08005f74 <HAL_UART_MspInit>:
 8005f74:	b530      	push	{r4, r5, lr}
 8005f76:	0004      	movs	r4, r0
 8005f78:	b08b      	sub	sp, #44	; 0x2c
 8005f7a:	2214      	movs	r2, #20
 8005f7c:	2100      	movs	r1, #0
 8005f7e:	a805      	add	r0, sp, #20
 8005f80:	f001 fb1b 	bl	80075ba <memset>
 8005f84:	6823      	ldr	r3, [r4, #0]
 8005f86:	4a4d      	ldr	r2, [pc, #308]	; (80060bc <HAL_UART_MspInit+0x148>)
 8005f88:	4293      	cmp	r3, r2
 8005f8a:	d004      	beq.n	8005f96 <HAL_UART_MspInit+0x22>
 8005f8c:	4a4c      	ldr	r2, [pc, #304]	; (80060c0 <HAL_UART_MspInit+0x14c>)
 8005f8e:	4293      	cmp	r3, r2
 8005f90:	d059      	beq.n	8006046 <HAL_UART_MspInit+0xd2>
 8005f92:	b00b      	add	sp, #44	; 0x2c
 8005f94:	bd30      	pop	{r4, r5, pc}
 8005f96:	2080      	movs	r0, #128	; 0x80
 8005f98:	4b4a      	ldr	r3, [pc, #296]	; (80060c4 <HAL_UART_MspInit+0x150>)
 8005f9a:	01c0      	lsls	r0, r0, #7
 8005f9c:	6999      	ldr	r1, [r3, #24]
 8005f9e:	4301      	orrs	r1, r0
 8005fa0:	6199      	str	r1, [r3, #24]
 8005fa2:	2180      	movs	r1, #128	; 0x80
 8005fa4:	699a      	ldr	r2, [r3, #24]
 8005fa6:	0289      	lsls	r1, r1, #10
 8005fa8:	4002      	ands	r2, r0
 8005faa:	9201      	str	r2, [sp, #4]
 8005fac:	9a01      	ldr	r2, [sp, #4]
 8005fae:	695a      	ldr	r2, [r3, #20]
 8005fb0:	2090      	movs	r0, #144	; 0x90
 8005fb2:	430a      	orrs	r2, r1
 8005fb4:	615a      	str	r2, [r3, #20]
 8005fb6:	695b      	ldr	r3, [r3, #20]
 8005fb8:	05c0      	lsls	r0, r0, #23
 8005fba:	400b      	ands	r3, r1
 8005fbc:	9302      	str	r3, [sp, #8]
 8005fbe:	9b02      	ldr	r3, [sp, #8]
 8005fc0:	23c0      	movs	r3, #192	; 0xc0
 8005fc2:	00db      	lsls	r3, r3, #3
 8005fc4:	9305      	str	r3, [sp, #20]
 8005fc6:	2302      	movs	r3, #2
 8005fc8:	9306      	str	r3, [sp, #24]
 8005fca:	3301      	adds	r3, #1
 8005fcc:	9308      	str	r3, [sp, #32]
 8005fce:	a905      	add	r1, sp, #20
 8005fd0:	3b02      	subs	r3, #2
 8005fd2:	9309      	str	r3, [sp, #36]	; 0x24
 8005fd4:	f7fb fa00 	bl	80013d8 <HAL_GPIO_Init>
 8005fd8:	4d3b      	ldr	r5, [pc, #236]	; (80060c8 <HAL_UART_MspInit+0x154>)
 8005fda:	4b3c      	ldr	r3, [pc, #240]	; (80060cc <HAL_UART_MspInit+0x158>)
 8005fdc:	2280      	movs	r2, #128	; 0x80
 8005fde:	602b      	str	r3, [r5, #0]
 8005fe0:	2310      	movs	r3, #16
 8005fe2:	606b      	str	r3, [r5, #4]
 8005fe4:	2300      	movs	r3, #0
 8005fe6:	60ab      	str	r3, [r5, #8]
 8005fe8:	612b      	str	r3, [r5, #16]
 8005fea:	616b      	str	r3, [r5, #20]
 8005fec:	61ab      	str	r3, [r5, #24]
 8005fee:	2380      	movs	r3, #128	; 0x80
 8005ff0:	0028      	movs	r0, r5
 8005ff2:	019b      	lsls	r3, r3, #6
 8005ff4:	60ea      	str	r2, [r5, #12]
 8005ff6:	61eb      	str	r3, [r5, #28]
 8005ff8:	f7fb f908 	bl	800120c <HAL_DMA_Init>
 8005ffc:	2800      	cmp	r0, #0
 8005ffe:	d157      	bne.n	80060b0 <HAL_UART_MspInit+0x13c>
 8006000:	4b33      	ldr	r3, [pc, #204]	; (80060d0 <HAL_UART_MspInit+0x15c>)
 8006002:	66a5      	str	r5, [r4, #104]	; 0x68
 8006004:	626c      	str	r4, [r5, #36]	; 0x24
 8006006:	4d33      	ldr	r5, [pc, #204]	; (80060d4 <HAL_UART_MspInit+0x160>)
 8006008:	2280      	movs	r2, #128	; 0x80
 800600a:	602b      	str	r3, [r5, #0]
 800600c:	2300      	movs	r3, #0
 800600e:	606b      	str	r3, [r5, #4]
 8006010:	60ab      	str	r3, [r5, #8]
 8006012:	612b      	str	r3, [r5, #16]
 8006014:	616b      	str	r3, [r5, #20]
 8006016:	3320      	adds	r3, #32
 8006018:	61ab      	str	r3, [r5, #24]
 800601a:	2380      	movs	r3, #128	; 0x80
 800601c:	0028      	movs	r0, r5
 800601e:	015b      	lsls	r3, r3, #5
 8006020:	60ea      	str	r2, [r5, #12]
 8006022:	61eb      	str	r3, [r5, #28]
 8006024:	f7fb f8f2 	bl	800120c <HAL_DMA_Init>
 8006028:	2800      	cmp	r0, #0
 800602a:	d001      	beq.n	8006030 <HAL_UART_MspInit+0xbc>
 800602c:	f7ff fbb0 	bl	8005790 <Error_Handler>
 8006030:	66e5      	str	r5, [r4, #108]	; 0x6c
 8006032:	2200      	movs	r2, #0
 8006034:	2100      	movs	r1, #0
 8006036:	201b      	movs	r0, #27
 8006038:	626c      	str	r4, [r5, #36]	; 0x24
 800603a:	f7fb f8af 	bl	800119c <HAL_NVIC_SetPriority>
 800603e:	201b      	movs	r0, #27
 8006040:	f7fb f8d8 	bl	80011f4 <HAL_NVIC_EnableIRQ>
 8006044:	e7a5      	b.n	8005f92 <HAL_UART_MspInit+0x1e>
 8006046:	2280      	movs	r2, #128	; 0x80
 8006048:	4b1e      	ldr	r3, [pc, #120]	; (80060c4 <HAL_UART_MspInit+0x150>)
 800604a:	0292      	lsls	r2, r2, #10
 800604c:	69d9      	ldr	r1, [r3, #28]
 800604e:	2090      	movs	r0, #144	; 0x90
 8006050:	4311      	orrs	r1, r2
 8006052:	61d9      	str	r1, [r3, #28]
 8006054:	69d9      	ldr	r1, [r3, #28]
 8006056:	05c0      	lsls	r0, r0, #23
 8006058:	4011      	ands	r1, r2
 800605a:	9103      	str	r1, [sp, #12]
 800605c:	9903      	ldr	r1, [sp, #12]
 800605e:	6959      	ldr	r1, [r3, #20]
 8006060:	4311      	orrs	r1, r2
 8006062:	6159      	str	r1, [r3, #20]
 8006064:	695b      	ldr	r3, [r3, #20]
 8006066:	a905      	add	r1, sp, #20
 8006068:	401a      	ands	r2, r3
 800606a:	9204      	str	r2, [sp, #16]
 800606c:	9b04      	ldr	r3, [sp, #16]
 800606e:	230c      	movs	r3, #12
 8006070:	9305      	str	r3, [sp, #20]
 8006072:	3b0a      	subs	r3, #10
 8006074:	9306      	str	r3, [sp, #24]
 8006076:	3301      	adds	r3, #1
 8006078:	9308      	str	r3, [sp, #32]
 800607a:	3b02      	subs	r3, #2
 800607c:	9309      	str	r3, [sp, #36]	; 0x24
 800607e:	f7fb f9ab 	bl	80013d8 <HAL_GPIO_Init>
 8006082:	4d15      	ldr	r5, [pc, #84]	; (80060d8 <HAL_UART_MspInit+0x164>)
 8006084:	4b15      	ldr	r3, [pc, #84]	; (80060dc <HAL_UART_MspInit+0x168>)
 8006086:	2280      	movs	r2, #128	; 0x80
 8006088:	602b      	str	r3, [r5, #0]
 800608a:	2300      	movs	r3, #0
 800608c:	606b      	str	r3, [r5, #4]
 800608e:	60ab      	str	r3, [r5, #8]
 8006090:	612b      	str	r3, [r5, #16]
 8006092:	616b      	str	r3, [r5, #20]
 8006094:	3320      	adds	r3, #32
 8006096:	61ab      	str	r3, [r5, #24]
 8006098:	23c0      	movs	r3, #192	; 0xc0
 800609a:	0028      	movs	r0, r5
 800609c:	019b      	lsls	r3, r3, #6
 800609e:	60ea      	str	r2, [r5, #12]
 80060a0:	61eb      	str	r3, [r5, #28]
 80060a2:	f7fb f8b3 	bl	800120c <HAL_DMA_Init>
 80060a6:	2800      	cmp	r0, #0
 80060a8:	d105      	bne.n	80060b6 <HAL_UART_MspInit+0x142>
 80060aa:	66e5      	str	r5, [r4, #108]	; 0x6c
 80060ac:	626c      	str	r4, [r5, #36]	; 0x24
 80060ae:	e770      	b.n	8005f92 <HAL_UART_MspInit+0x1e>
 80060b0:	f7ff fb6e 	bl	8005790 <Error_Handler>
 80060b4:	e7a4      	b.n	8006000 <HAL_UART_MspInit+0x8c>
 80060b6:	f7ff fb6b 	bl	8005790 <Error_Handler>
 80060ba:	e7f6      	b.n	80060aa <HAL_UART_MspInit+0x136>
 80060bc:	40013800 	.word	0x40013800
 80060c0:	40004400 	.word	0x40004400
 80060c4:	40021000 	.word	0x40021000
 80060c8:	20001550 	.word	0x20001550
 80060cc:	4002001c 	.word	0x4002001c
 80060d0:	40020030 	.word	0x40020030
 80060d4:	20001594 	.word	0x20001594
 80060d8:	200014c0 	.word	0x200014c0
 80060dc:	40020058 	.word	0x40020058

080060e0 <HAL_InitTick>:
 80060e0:	b510      	push	{r4, lr}
 80060e2:	0001      	movs	r1, r0
 80060e4:	b086      	sub	sp, #24
 80060e6:	2200      	movs	r2, #0
 80060e8:	200d      	movs	r0, #13
 80060ea:	f7fb f857 	bl	800119c <HAL_NVIC_SetPriority>
 80060ee:	200d      	movs	r0, #13
 80060f0:	f7fb f880 	bl	80011f4 <HAL_NVIC_EnableIRQ>
 80060f4:	2080      	movs	r0, #128	; 0x80
 80060f6:	4a14      	ldr	r2, [pc, #80]	; (8006148 <HAL_InitTick+0x68>)
 80060f8:	0100      	lsls	r0, r0, #4
 80060fa:	6991      	ldr	r1, [r2, #24]
 80060fc:	4301      	orrs	r1, r0
 80060fe:	6191      	str	r1, [r2, #24]
 8006100:	6993      	ldr	r3, [r2, #24]
 8006102:	4669      	mov	r1, sp
 8006104:	4003      	ands	r3, r0
 8006106:	9301      	str	r3, [sp, #4]
 8006108:	a802      	add	r0, sp, #8
 800610a:	9b01      	ldr	r3, [sp, #4]
 800610c:	f7fc f990 	bl	8002430 <HAL_RCC_GetClockConfig>
 8006110:	f7fc f97e 	bl	8002410 <HAL_RCC_GetPCLK1Freq>
 8006114:	4c0d      	ldr	r4, [pc, #52]	; (800614c <HAL_InitTick+0x6c>)
 8006116:	4b0e      	ldr	r3, [pc, #56]	; (8006150 <HAL_InitTick+0x70>)
 8006118:	490e      	ldr	r1, [pc, #56]	; (8006154 <HAL_InitTick+0x74>)
 800611a:	6023      	str	r3, [r4, #0]
 800611c:	4b0e      	ldr	r3, [pc, #56]	; (8006158 <HAL_InitTick+0x78>)
 800611e:	60e3      	str	r3, [r4, #12]
 8006120:	f7f9 fffa 	bl	8000118 <__udivsi3>
 8006124:	2300      	movs	r3, #0
 8006126:	3801      	subs	r0, #1
 8006128:	6060      	str	r0, [r4, #4]
 800612a:	0020      	movs	r0, r4
 800612c:	6123      	str	r3, [r4, #16]
 800612e:	60a3      	str	r3, [r4, #8]
 8006130:	f7fc fa2c 	bl	800258c <HAL_TIM_Base_Init>
 8006134:	0003      	movs	r3, r0
 8006136:	2001      	movs	r0, #1
 8006138:	2b00      	cmp	r3, #0
 800613a:	d102      	bne.n	8006142 <HAL_InitTick+0x62>
 800613c:	0020      	movs	r0, r4
 800613e:	f7fc fa83 	bl	8002648 <HAL_TIM_Base_Start_IT>
 8006142:	b006      	add	sp, #24
 8006144:	bd10      	pop	{r4, pc}
 8006146:	46c0      	nop			; (mov r8, r8)
 8006148:	40021000 	.word	0x40021000
 800614c:	200016d8 	.word	0x200016d8
 8006150:	40012c00 	.word	0x40012c00
 8006154:	000f4240 	.word	0x000f4240
 8006158:	000003e7 	.word	0x000003e7

0800615c <NMI_Handler>:
 800615c:	4770      	bx	lr
 800615e:	46c0      	nop			; (mov r8, r8)

08006160 <HardFault_Handler>:
 8006160:	e7fe      	b.n	8006160 <HardFault_Handler>
 8006162:	46c0      	nop			; (mov r8, r8)

08006164 <DMA1_Channel2_3_IRQHandler>:
 8006164:	b510      	push	{r4, lr}
 8006166:	4803      	ldr	r0, [pc, #12]	; (8006174 <DMA1_Channel2_3_IRQHandler+0x10>)
 8006168:	f7fb f8e8 	bl	800133c <HAL_DMA_IRQHandler>
 800616c:	4802      	ldr	r0, [pc, #8]	; (8006178 <DMA1_Channel2_3_IRQHandler+0x14>)
 800616e:	f7fb f8e5 	bl	800133c <HAL_DMA_IRQHandler>
 8006172:	bd10      	pop	{r4, pc}
 8006174:	20001550 	.word	0x20001550
 8006178:	20001594 	.word	0x20001594

0800617c <DMA1_Channel4_5_IRQHandler>:
 800617c:	b510      	push	{r4, lr}
 800617e:	4802      	ldr	r0, [pc, #8]	; (8006188 <DMA1_Channel4_5_IRQHandler+0xc>)
 8006180:	f7fb f8dc 	bl	800133c <HAL_DMA_IRQHandler>
 8006184:	bd10      	pop	{r4, pc}
 8006186:	46c0      	nop			; (mov r8, r8)
 8006188:	200014c0 	.word	0x200014c0

0800618c <TIM1_BRK_UP_TRG_COM_IRQHandler>:
 800618c:	b510      	push	{r4, lr}
 800618e:	4802      	ldr	r0, [pc, #8]	; (8006198 <TIM1_BRK_UP_TRG_COM_IRQHandler+0xc>)
 8006190:	f7fc fa72 	bl	8002678 <HAL_TIM_IRQHandler>
 8006194:	bd10      	pop	{r4, pc}
 8006196:	46c0      	nop			; (mov r8, r8)
 8006198:	200016d8 	.word	0x200016d8

0800619c <USART1_IRQHandler>:
 800619c:	b510      	push	{r4, lr}
 800619e:	4802      	ldr	r0, [pc, #8]	; (80061a8 <USART1_IRQHandler+0xc>)
 80061a0:	f7fc fd22 	bl	8002be8 <HAL_UART_IRQHandler>
 80061a4:	bd10      	pop	{r4, pc}
 80061a6:	46c0      	nop			; (mov r8, r8)
 80061a8:	200015d8 	.word	0x200015d8

080061ac <SystemInit>:
 80061ac:	2101      	movs	r1, #1
 80061ae:	4b11      	ldr	r3, [pc, #68]	; (80061f4 <SystemInit+0x48>)
 80061b0:	4811      	ldr	r0, [pc, #68]	; (80061f8 <SystemInit+0x4c>)
 80061b2:	681a      	ldr	r2, [r3, #0]
 80061b4:	430a      	orrs	r2, r1
 80061b6:	601a      	str	r2, [r3, #0]
 80061b8:	685a      	ldr	r2, [r3, #4]
 80061ba:	4002      	ands	r2, r0
 80061bc:	605a      	str	r2, [r3, #4]
 80061be:	681a      	ldr	r2, [r3, #0]
 80061c0:	480e      	ldr	r0, [pc, #56]	; (80061fc <SystemInit+0x50>)
 80061c2:	4002      	ands	r2, r0
 80061c4:	601a      	str	r2, [r3, #0]
 80061c6:	681a      	ldr	r2, [r3, #0]
 80061c8:	480d      	ldr	r0, [pc, #52]	; (8006200 <SystemInit+0x54>)
 80061ca:	4002      	ands	r2, r0
 80061cc:	601a      	str	r2, [r3, #0]
 80061ce:	685a      	ldr	r2, [r3, #4]
 80061d0:	480c      	ldr	r0, [pc, #48]	; (8006204 <SystemInit+0x58>)
 80061d2:	4002      	ands	r2, r0
 80061d4:	200f      	movs	r0, #15
 80061d6:	605a      	str	r2, [r3, #4]
 80061d8:	6ada      	ldr	r2, [r3, #44]	; 0x2c
 80061da:	4382      	bics	r2, r0
 80061dc:	62da      	str	r2, [r3, #44]	; 0x2c
 80061de:	6b1a      	ldr	r2, [r3, #48]	; 0x30
 80061e0:	4809      	ldr	r0, [pc, #36]	; (8006208 <SystemInit+0x5c>)
 80061e2:	4002      	ands	r2, r0
 80061e4:	631a      	str	r2, [r3, #48]	; 0x30
 80061e6:	6b5a      	ldr	r2, [r3, #52]	; 0x34
 80061e8:	438a      	bics	r2, r1
 80061ea:	635a      	str	r2, [r3, #52]	; 0x34
 80061ec:	2200      	movs	r2, #0
 80061ee:	609a      	str	r2, [r3, #8]
 80061f0:	4770      	bx	lr
 80061f2:	46c0      	nop			; (mov r8, r8)
 80061f4:	40021000 	.word	0x40021000
 80061f8:	08ffb80c 	.word	0x08ffb80c
 80061fc:	fef6ffff 	.word	0xfef6ffff
 8006200:	fffbffff 	.word	0xfffbffff
 8006204:	ffc0ffff 	.word	0xffc0ffff
 8006208:	fffffeec 	.word	0xfffffeec

0800620c <vListInitialise>:
 800620c:	0003      	movs	r3, r0
 800620e:	2201      	movs	r2, #1
 8006210:	3308      	adds	r3, #8
 8006212:	6043      	str	r3, [r0, #4]
 8006214:	60c3      	str	r3, [r0, #12]
 8006216:	6103      	str	r3, [r0, #16]
 8006218:	2300      	movs	r3, #0
 800621a:	4252      	negs	r2, r2
 800621c:	6082      	str	r2, [r0, #8]
 800621e:	6003      	str	r3, [r0, #0]
 8006220:	4770      	bx	lr
 8006222:	46c0      	nop			; (mov r8, r8)

08006224 <vListInitialiseItem>:
 8006224:	2300      	movs	r3, #0
 8006226:	6103      	str	r3, [r0, #16]
 8006228:	4770      	bx	lr
 800622a:	46c0      	nop			; (mov r8, r8)

0800622c <vListInsertEnd>:
 800622c:	6843      	ldr	r3, [r0, #4]
 800622e:	689a      	ldr	r2, [r3, #8]
 8006230:	604b      	str	r3, [r1, #4]
 8006232:	608a      	str	r2, [r1, #8]
 8006234:	689a      	ldr	r2, [r3, #8]
 8006236:	6051      	str	r1, [r2, #4]
 8006238:	6099      	str	r1, [r3, #8]
 800623a:	6803      	ldr	r3, [r0, #0]
 800623c:	6108      	str	r0, [r1, #16]
 800623e:	3301      	adds	r3, #1
 8006240:	6003      	str	r3, [r0, #0]
 8006242:	4770      	bx	lr

08006244 <vListInsert>:
 8006244:	0002      	movs	r2, r0
 8006246:	b530      	push	{r4, r5, lr}
 8006248:	680c      	ldr	r4, [r1, #0]
 800624a:	3208      	adds	r2, #8
 800624c:	1c63      	adds	r3, r4, #1
 800624e:	d101      	bne.n	8006254 <vListInsert+0x10>
 8006250:	e00d      	b.n	800626e <vListInsert+0x2a>
 8006252:	001a      	movs	r2, r3
 8006254:	6853      	ldr	r3, [r2, #4]
 8006256:	681d      	ldr	r5, [r3, #0]
 8006258:	42a5      	cmp	r5, r4
 800625a:	d9fa      	bls.n	8006252 <vListInsert+0xe>
 800625c:	604b      	str	r3, [r1, #4]
 800625e:	6099      	str	r1, [r3, #8]
 8006260:	6803      	ldr	r3, [r0, #0]
 8006262:	608a      	str	r2, [r1, #8]
 8006264:	3301      	adds	r3, #1
 8006266:	6051      	str	r1, [r2, #4]
 8006268:	6108      	str	r0, [r1, #16]
 800626a:	6003      	str	r3, [r0, #0]
 800626c:	bd30      	pop	{r4, r5, pc}
 800626e:	6902      	ldr	r2, [r0, #16]
 8006270:	6853      	ldr	r3, [r2, #4]
 8006272:	e7f3      	b.n	800625c <vListInsert+0x18>

08006274 <uxListRemove>:
 8006274:	6842      	ldr	r2, [r0, #4]
 8006276:	6881      	ldr	r1, [r0, #8]
 8006278:	6903      	ldr	r3, [r0, #16]
 800627a:	6091      	str	r1, [r2, #8]
 800627c:	6881      	ldr	r1, [r0, #8]
 800627e:	604a      	str	r2, [r1, #4]
 8006280:	685a      	ldr	r2, [r3, #4]
 8006282:	4282      	cmp	r2, r0
 8006284:	d100      	bne.n	8006288 <uxListRemove+0x14>
 8006286:	6059      	str	r1, [r3, #4]
 8006288:	2200      	movs	r2, #0
 800628a:	6102      	str	r2, [r0, #16]
 800628c:	681a      	ldr	r2, [r3, #0]
 800628e:	1e50      	subs	r0, r2, #1
 8006290:	6018      	str	r0, [r3, #0]
 8006292:	4770      	bx	lr

08006294 <xQueueGenericCreate>:
 8006294:	b570      	push	{r4, r5, r6, lr}
 8006296:	0005      	movs	r5, r0
 8006298:	000e      	movs	r6, r1
 800629a:	2800      	cmp	r0, #0
 800629c:	d101      	bne.n	80062a2 <xQueueGenericCreate+0xe>
 800629e:	b672      	cpsid	i
 80062a0:	e7fe      	b.n	80062a0 <xQueueGenericCreate+0xc>
 80062a2:	2900      	cmp	r1, #0
 80062a4:	d00a      	beq.n	80062bc <xQueueGenericCreate+0x28>
 80062a6:	0008      	movs	r0, r1
 80062a8:	4368      	muls	r0, r5
 80062aa:	3048      	adds	r0, #72	; 0x48
 80062ac:	f001 f882 	bl	80073b4 <pvPortMalloc>
 80062b0:	1e04      	subs	r4, r0, #0
 80062b2:	d02a      	beq.n	800630a <xQueueGenericCreate+0x76>
 80062b4:	0003      	movs	r3, r0
 80062b6:	3348      	adds	r3, #72	; 0x48
 80062b8:	6003      	str	r3, [r0, #0]
 80062ba:	e005      	b.n	80062c8 <xQueueGenericCreate+0x34>
 80062bc:	2048      	movs	r0, #72	; 0x48
 80062be:	f001 f879 	bl	80073b4 <pvPortMalloc>
 80062c2:	1e04      	subs	r4, r0, #0
 80062c4:	d021      	beq.n	800630a <xQueueGenericCreate+0x76>
 80062c6:	6024      	str	r4, [r4, #0]
 80062c8:	63e5      	str	r5, [r4, #60]	; 0x3c
 80062ca:	6426      	str	r6, [r4, #64]	; 0x40
 80062cc:	f000 ffc0 	bl	8007250 <vPortEnterCritical>
 80062d0:	6c21      	ldr	r1, [r4, #64]	; 0x40
 80062d2:	6be3      	ldr	r3, [r4, #60]	; 0x3c
 80062d4:	6822      	ldr	r2, [r4, #0]
 80062d6:	434b      	muls	r3, r1
 80062d8:	18d0      	adds	r0, r2, r3
 80062da:	6060      	str	r0, [r4, #4]
 80062dc:	2000      	movs	r0, #0
 80062de:	1a5b      	subs	r3, r3, r1
 80062e0:	18d3      	adds	r3, r2, r3
 80062e2:	60a2      	str	r2, [r4, #8]
 80062e4:	60e3      	str	r3, [r4, #12]
 80062e6:	2244      	movs	r2, #68	; 0x44
 80062e8:	23ff      	movs	r3, #255	; 0xff
 80062ea:	63a0      	str	r0, [r4, #56]	; 0x38
 80062ec:	0020      	movs	r0, r4
 80062ee:	54a3      	strb	r3, [r4, r2]
 80062f0:	3201      	adds	r2, #1
 80062f2:	54a3      	strb	r3, [r4, r2]
 80062f4:	3010      	adds	r0, #16
 80062f6:	f7ff ff89 	bl	800620c <vListInitialise>
 80062fa:	0020      	movs	r0, r4
 80062fc:	3024      	adds	r0, #36	; 0x24
 80062fe:	f7ff ff85 	bl	800620c <vListInitialise>
 8006302:	f000 ffb1 	bl	8007268 <vPortExitCritical>
 8006306:	0020      	movs	r0, r4
 8006308:	bd70      	pop	{r4, r5, r6, pc}
 800630a:	2400      	movs	r4, #0
 800630c:	e7fb      	b.n	8006306 <xQueueGenericCreate+0x72>
 800630e:	46c0      	nop			; (mov r8, r8)

08006310 <xQueueGiveFromISR>:
 8006310:	b5f8      	push	{r3, r4, r5, r6, r7, lr}
 8006312:	0004      	movs	r4, r0
 8006314:	000f      	movs	r7, r1
 8006316:	2800      	cmp	r0, #0
 8006318:	d01f      	beq.n	800635a <xQueueGiveFromISR+0x4a>
 800631a:	6c03      	ldr	r3, [r0, #64]	; 0x40
 800631c:	2b00      	cmp	r3, #0
 800631e:	d001      	beq.n	8006324 <xQueueGiveFromISR+0x14>
 8006320:	b672      	cpsid	i
 8006322:	e7fe      	b.n	8006322 <xQueueGiveFromISR+0x12>
 8006324:	6803      	ldr	r3, [r0, #0]
 8006326:	2b00      	cmp	r3, #0
 8006328:	d019      	beq.n	800635e <xQueueGiveFromISR+0x4e>
 800632a:	f000 ffab 	bl	8007284 <ulSetInterruptMaskFromISR>
 800632e:	6ba2      	ldr	r2, [r4, #56]	; 0x38
 8006330:	6be3      	ldr	r3, [r4, #60]	; 0x3c
 8006332:	0006      	movs	r6, r0
 8006334:	2500      	movs	r5, #0
 8006336:	4293      	cmp	r3, r2
 8006338:	d90a      	bls.n	8006350 <xQueueGiveFromISR+0x40>
 800633a:	2145      	movs	r1, #69	; 0x45
 800633c:	5c63      	ldrb	r3, [r4, r1]
 800633e:	3201      	adds	r2, #1
 8006340:	b25b      	sxtb	r3, r3
 8006342:	63a2      	str	r2, [r4, #56]	; 0x38
 8006344:	1c5a      	adds	r2, r3, #1
 8006346:	d00f      	beq.n	8006368 <xQueueGiveFromISR+0x58>
 8006348:	3301      	adds	r3, #1
 800634a:	b25b      	sxtb	r3, r3
 800634c:	5463      	strb	r3, [r4, r1]
 800634e:	2501      	movs	r5, #1
 8006350:	0030      	movs	r0, r6
 8006352:	f000 ff9d 	bl	8007290 <vClearInterruptMaskFromISR>
 8006356:	0028      	movs	r0, r5
 8006358:	bdf8      	pop	{r3, r4, r5, r6, r7, pc}
 800635a:	b672      	cpsid	i
 800635c:	e7fe      	b.n	800635c <xQueueGiveFromISR+0x4c>
 800635e:	6843      	ldr	r3, [r0, #4]
 8006360:	2b00      	cmp	r3, #0
 8006362:	d0e2      	beq.n	800632a <xQueueGiveFromISR+0x1a>
 8006364:	b672      	cpsid	i
 8006366:	e7fe      	b.n	8006366 <xQueueGiveFromISR+0x56>
 8006368:	6a63      	ldr	r3, [r4, #36]	; 0x24
 800636a:	42ab      	cmp	r3, r5
 800636c:	d0ef      	beq.n	800634e <xQueueGiveFromISR+0x3e>
 800636e:	0020      	movs	r0, r4
 8006370:	3024      	adds	r0, #36	; 0x24
 8006372:	f000 fe4b 	bl	800700c <xTaskRemoveFromEventList>
 8006376:	2800      	cmp	r0, #0
 8006378:	d0e9      	beq.n	800634e <xQueueGiveFromISR+0x3e>
 800637a:	2f00      	cmp	r7, #0
 800637c:	d0e7      	beq.n	800634e <xQueueGiveFromISR+0x3e>
 800637e:	2501      	movs	r5, #1
 8006380:	603d      	str	r5, [r7, #0]
 8006382:	e7e5      	b.n	8006350 <xQueueGiveFromISR+0x40>

08006384 <xQueueGenericReceive>:
 8006384:	b5f0      	push	{r4, r5, r6, r7, lr}
 8006386:	46de      	mov	lr, fp
 8006388:	464e      	mov	r6, r9
 800638a:	4657      	mov	r7, sl
 800638c:	4645      	mov	r5, r8
 800638e:	b5e0      	push	{r5, r6, r7, lr}
 8006390:	b085      	sub	sp, #20
 8006392:	1e04      	subs	r4, r0, #0
 8006394:	4689      	mov	r9, r1
 8006396:	9201      	str	r2, [sp, #4]
 8006398:	469b      	mov	fp, r3
 800639a:	d100      	bne.n	800639e <xQueueGenericReceive+0x1a>
 800639c:	e156      	b.n	800664c <xQueueGenericReceive+0x2c8>
 800639e:	2900      	cmp	r1, #0
 80063a0:	d100      	bne.n	80063a4 <xQueueGenericReceive+0x20>
 80063a2:	e14d      	b.n	8006640 <xQueueGenericReceive+0x2bc>
 80063a4:	f000 febc 	bl	8007120 <xTaskGetSchedulerState>
 80063a8:	2800      	cmp	r0, #0
 80063aa:	d104      	bne.n	80063b6 <xQueueGenericReceive+0x32>
 80063ac:	9b01      	ldr	r3, [sp, #4]
 80063ae:	2b00      	cmp	r3, #0
 80063b0:	d001      	beq.n	80063b6 <xQueueGenericReceive+0x32>
 80063b2:	b672      	cpsid	i
 80063b4:	e7fe      	b.n	80063b4 <xQueueGenericReceive+0x30>
 80063b6:	f000 ff4b 	bl	8007250 <vPortEnterCritical>
 80063ba:	6ba5      	ldr	r5, [r4, #56]	; 0x38
 80063bc:	2d00      	cmp	r5, #0
 80063be:	d000      	beq.n	80063c2 <xQueueGenericReceive+0x3e>
 80063c0:	e0c9      	b.n	8006556 <xQueueGenericReceive+0x1d2>
 80063c2:	9b01      	ldr	r3, [sp, #4]
 80063c4:	2b00      	cmp	r3, #0
 80063c6:	d06e      	beq.n	80064a6 <xQueueGenericReceive+0x122>
 80063c8:	a802      	add	r0, sp, #8
 80063ca:	f000 fe5f 	bl	800708c <vTaskSetTimeOutState>
 80063ce:	2300      	movs	r3, #0
 80063d0:	2744      	movs	r7, #68	; 0x44
 80063d2:	469a      	mov	sl, r3
 80063d4:	2645      	movs	r6, #69	; 0x45
 80063d6:	f000 ff47 	bl	8007268 <vPortExitCritical>
 80063da:	f000 fb97 	bl	8006b0c <vTaskSuspendAll>
 80063de:	f000 ff37 	bl	8007250 <vPortEnterCritical>
 80063e2:	5de3      	ldrb	r3, [r4, r7]
 80063e4:	b25b      	sxtb	r3, r3
 80063e6:	3301      	adds	r3, #1
 80063e8:	d100      	bne.n	80063ec <xQueueGenericReceive+0x68>
 80063ea:	e126      	b.n	800663a <xQueueGenericReceive+0x2b6>
 80063ec:	5da3      	ldrb	r3, [r4, r6]
 80063ee:	b25b      	sxtb	r3, r3
 80063f0:	3301      	adds	r3, #1
 80063f2:	d100      	bne.n	80063f6 <xQueueGenericReceive+0x72>
 80063f4:	e11e      	b.n	8006634 <xQueueGenericReceive+0x2b0>
 80063f6:	f000 ff37 	bl	8007268 <vPortExitCritical>
 80063fa:	a901      	add	r1, sp, #4
 80063fc:	a802      	add	r0, sp, #8
 80063fe:	f000 fe55 	bl	80070ac <xTaskCheckForTimeOut>
 8006402:	2800      	cmp	r0, #0
 8006404:	d159      	bne.n	80064ba <xQueueGenericReceive+0x136>
 8006406:	f000 ff23 	bl	8007250 <vPortEnterCritical>
 800640a:	6ba3      	ldr	r3, [r4, #56]	; 0x38
 800640c:	2b00      	cmp	r3, #0
 800640e:	d100      	bne.n	8006412 <xQueueGenericReceive+0x8e>
 8006410:	e0c4      	b.n	800659c <xQueueGenericReceive+0x218>
 8006412:	f000 ff29 	bl	8007268 <vPortExitCritical>
 8006416:	f000 ff1b 	bl	8007250 <vPortEnterCritical>
 800641a:	5da5      	ldrb	r5, [r4, r6]
 800641c:	b26d      	sxtb	r5, r5
 800641e:	2d00      	cmp	r5, #0
 8006420:	dd14      	ble.n	800644c <xQueueGenericReceive+0xc8>
 8006422:	6a63      	ldr	r3, [r4, #36]	; 0x24
 8006424:	2b00      	cmp	r3, #0
 8006426:	d011      	beq.n	800644c <xQueueGenericReceive+0xc8>
 8006428:	2324      	movs	r3, #36	; 0x24
 800642a:	4698      	mov	r8, r3
 800642c:	44a0      	add	r8, r4
 800642e:	4640      	mov	r0, r8
 8006430:	f000 fdec 	bl	800700c <xTaskRemoveFromEventList>
 8006434:	2800      	cmp	r0, #0
 8006436:	d001      	beq.n	800643c <xQueueGenericReceive+0xb8>
 8006438:	f000 fe6c 	bl	8007114 <vTaskMissedYield>
 800643c:	3d01      	subs	r5, #1
 800643e:	b2eb      	uxtb	r3, r5
 8006440:	b25d      	sxtb	r5, r3
 8006442:	2b00      	cmp	r3, #0
 8006444:	d002      	beq.n	800644c <xQueueGenericReceive+0xc8>
 8006446:	6a63      	ldr	r3, [r4, #36]	; 0x24
 8006448:	2b00      	cmp	r3, #0
 800644a:	d1f0      	bne.n	800642e <xQueueGenericReceive+0xaa>
 800644c:	23ff      	movs	r3, #255	; 0xff
 800644e:	55a3      	strb	r3, [r4, r6]
 8006450:	f000 ff0a 	bl	8007268 <vPortExitCritical>
 8006454:	f000 fefc 	bl	8007250 <vPortEnterCritical>
 8006458:	5de5      	ldrb	r5, [r4, r7]
 800645a:	b26d      	sxtb	r5, r5
 800645c:	2d00      	cmp	r5, #0
 800645e:	dd14      	ble.n	800648a <xQueueGenericReceive+0x106>
 8006460:	6923      	ldr	r3, [r4, #16]
 8006462:	2b00      	cmp	r3, #0
 8006464:	d011      	beq.n	800648a <xQueueGenericReceive+0x106>
 8006466:	2310      	movs	r3, #16
 8006468:	4698      	mov	r8, r3
 800646a:	44a0      	add	r8, r4
 800646c:	4640      	mov	r0, r8
 800646e:	f000 fdcd 	bl	800700c <xTaskRemoveFromEventList>
 8006472:	2800      	cmp	r0, #0
 8006474:	d001      	beq.n	800647a <xQueueGenericReceive+0xf6>
 8006476:	f000 fe4d 	bl	8007114 <vTaskMissedYield>
 800647a:	3d01      	subs	r5, #1
 800647c:	b2eb      	uxtb	r3, r5
 800647e:	b25d      	sxtb	r5, r3
 8006480:	2b00      	cmp	r3, #0
 8006482:	d002      	beq.n	800648a <xQueueGenericReceive+0x106>
 8006484:	6923      	ldr	r3, [r4, #16]
 8006486:	2b00      	cmp	r3, #0
 8006488:	d1f0      	bne.n	800646c <xQueueGenericReceive+0xe8>
 800648a:	23ff      	movs	r3, #255	; 0xff
 800648c:	55e3      	strb	r3, [r4, r7]
 800648e:	f000 feeb 	bl	8007268 <vPortExitCritical>
 8006492:	f000 fbf7 	bl	8006c84 <xTaskResumeAll>
 8006496:	f000 fedb 	bl	8007250 <vPortEnterCritical>
 800649a:	6ba5      	ldr	r5, [r4, #56]	; 0x38
 800649c:	2d00      	cmp	r5, #0
 800649e:	d15a      	bne.n	8006556 <xQueueGenericReceive+0x1d2>
 80064a0:	9b01      	ldr	r3, [sp, #4]
 80064a2:	2b00      	cmp	r3, #0
 80064a4:	d197      	bne.n	80063d6 <xQueueGenericReceive+0x52>
 80064a6:	f000 fedf 	bl	8007268 <vPortExitCritical>
 80064aa:	2000      	movs	r0, #0
 80064ac:	b005      	add	sp, #20
 80064ae:	bc3c      	pop	{r2, r3, r4, r5}
 80064b0:	4690      	mov	r8, r2
 80064b2:	4699      	mov	r9, r3
 80064b4:	46a2      	mov	sl, r4
 80064b6:	46ab      	mov	fp, r5
 80064b8:	bdf0      	pop	{r4, r5, r6, r7, pc}
 80064ba:	f000 fec9 	bl	8007250 <vPortEnterCritical>
 80064be:	5da5      	ldrb	r5, [r4, r6]
 80064c0:	b26d      	sxtb	r5, r5
 80064c2:	2d00      	cmp	r5, #0
 80064c4:	dd15      	ble.n	80064f2 <xQueueGenericReceive+0x16e>
 80064c6:	6a63      	ldr	r3, [r4, #36]	; 0x24
 80064c8:	2b00      	cmp	r3, #0
 80064ca:	d012      	beq.n	80064f2 <xQueueGenericReceive+0x16e>
 80064cc:	2324      	movs	r3, #36	; 0x24
 80064ce:	4698      	mov	r8, r3
 80064d0:	44a0      	add	r8, r4
 80064d2:	e002      	b.n	80064da <xQueueGenericReceive+0x156>
 80064d4:	6a63      	ldr	r3, [r4, #36]	; 0x24
 80064d6:	2b00      	cmp	r3, #0
 80064d8:	d00b      	beq.n	80064f2 <xQueueGenericReceive+0x16e>
 80064da:	4640      	mov	r0, r8
 80064dc:	f000 fd96 	bl	800700c <xTaskRemoveFromEventList>
 80064e0:	2800      	cmp	r0, #0
 80064e2:	d001      	beq.n	80064e8 <xQueueGenericReceive+0x164>
 80064e4:	f000 fe16 	bl	8007114 <vTaskMissedYield>
 80064e8:	3d01      	subs	r5, #1
 80064ea:	b2eb      	uxtb	r3, r5
 80064ec:	b25d      	sxtb	r5, r3
 80064ee:	2b00      	cmp	r3, #0
 80064f0:	d1f0      	bne.n	80064d4 <xQueueGenericReceive+0x150>
 80064f2:	23ff      	movs	r3, #255	; 0xff
 80064f4:	55a3      	strb	r3, [r4, r6]
 80064f6:	f000 feb7 	bl	8007268 <vPortExitCritical>
 80064fa:	f000 fea9 	bl	8007250 <vPortEnterCritical>
 80064fe:	5de5      	ldrb	r5, [r4, r7]
 8006500:	b26d      	sxtb	r5, r5
 8006502:	2d00      	cmp	r5, #0
 8006504:	dd15      	ble.n	8006532 <xQueueGenericReceive+0x1ae>
 8006506:	6923      	ldr	r3, [r4, #16]
 8006508:	2b00      	cmp	r3, #0
 800650a:	d012      	beq.n	8006532 <xQueueGenericReceive+0x1ae>
 800650c:	2310      	movs	r3, #16
 800650e:	4698      	mov	r8, r3
 8006510:	44a0      	add	r8, r4
 8006512:	e002      	b.n	800651a <xQueueGenericReceive+0x196>
 8006514:	6923      	ldr	r3, [r4, #16]
 8006516:	2b00      	cmp	r3, #0
 8006518:	d00b      	beq.n	8006532 <xQueueGenericReceive+0x1ae>
 800651a:	4640      	mov	r0, r8
 800651c:	f000 fd76 	bl	800700c <xTaskRemoveFromEventList>
 8006520:	2800      	cmp	r0, #0
 8006522:	d001      	beq.n	8006528 <xQueueGenericReceive+0x1a4>
 8006524:	f000 fdf6 	bl	8007114 <vTaskMissedYield>
 8006528:	3d01      	subs	r5, #1
 800652a:	b2eb      	uxtb	r3, r5
 800652c:	b25d      	sxtb	r5, r3
 800652e:	2b00      	cmp	r3, #0
 8006530:	d1f0      	bne.n	8006514 <xQueueGenericReceive+0x190>
 8006532:	23ff      	movs	r3, #255	; 0xff
 8006534:	55e3      	strb	r3, [r4, r7]
 8006536:	f000 fe97 	bl	8007268 <vPortExitCritical>
 800653a:	f000 fba3 	bl	8006c84 <xTaskResumeAll>
 800653e:	f000 fe87 	bl	8007250 <vPortEnterCritical>
 8006542:	6ba3      	ldr	r3, [r4, #56]	; 0x38
 8006544:	2b00      	cmp	r3, #0
 8006546:	d0ae      	beq.n	80064a6 <xQueueGenericReceive+0x122>
 8006548:	f000 fe8e 	bl	8007268 <vPortExitCritical>
 800654c:	f000 fe80 	bl	8007250 <vPortEnterCritical>
 8006550:	6ba5      	ldr	r5, [r4, #56]	; 0x38
 8006552:	2d00      	cmp	r5, #0
 8006554:	d0a4      	beq.n	80064a0 <xQueueGenericReceive+0x11c>
 8006556:	6c22      	ldr	r2, [r4, #64]	; 0x40
 8006558:	68e6      	ldr	r6, [r4, #12]
 800655a:	2a00      	cmp	r2, #0
 800655c:	d00a      	beq.n	8006574 <xQueueGenericReceive+0x1f0>
 800655e:	6861      	ldr	r1, [r4, #4]
 8006560:	18b3      	adds	r3, r6, r2
 8006562:	60e3      	str	r3, [r4, #12]
 8006564:	428b      	cmp	r3, r1
 8006566:	d301      	bcc.n	800656c <xQueueGenericReceive+0x1e8>
 8006568:	6823      	ldr	r3, [r4, #0]
 800656a:	60e3      	str	r3, [r4, #12]
 800656c:	68e1      	ldr	r1, [r4, #12]
 800656e:	4648      	mov	r0, r9
 8006570:	f001 f81a 	bl	80075a8 <memcpy>
 8006574:	465b      	mov	r3, fp
 8006576:	2b00      	cmp	r3, #0
 8006578:	d172      	bne.n	8006660 <xQueueGenericReceive+0x2dc>
 800657a:	6823      	ldr	r3, [r4, #0]
 800657c:	3d01      	subs	r5, #1
 800657e:	63a5      	str	r5, [r4, #56]	; 0x38
 8006580:	2b00      	cmp	r3, #0
 8006582:	d075      	beq.n	8006670 <xQueueGenericReceive+0x2ec>
 8006584:	6923      	ldr	r3, [r4, #16]
 8006586:	2b00      	cmp	r3, #0
 8006588:	d06e      	beq.n	8006668 <xQueueGenericReceive+0x2e4>
 800658a:	0020      	movs	r0, r4
 800658c:	3010      	adds	r0, #16
 800658e:	f000 fd3d 	bl	800700c <xTaskRemoveFromEventList>
 8006592:	2800      	cmp	r0, #0
 8006594:	d068      	beq.n	8006668 <xQueueGenericReceive+0x2e4>
 8006596:	f000 fe4f 	bl	8007238 <vPortYield>
 800659a:	e065      	b.n	8006668 <xQueueGenericReceive+0x2e4>
 800659c:	f000 fe64 	bl	8007268 <vPortExitCritical>
 80065a0:	6823      	ldr	r3, [r4, #0]
 80065a2:	2b00      	cmp	r3, #0
 80065a4:	d054      	beq.n	8006650 <xQueueGenericReceive+0x2cc>
 80065a6:	2324      	movs	r3, #36	; 0x24
 80065a8:	4698      	mov	r8, r3
 80065aa:	44a0      	add	r8, r4
 80065ac:	9901      	ldr	r1, [sp, #4]
 80065ae:	4640      	mov	r0, r8
 80065b0:	f000 fcee 	bl	8006f90 <vTaskPlaceOnEventList>
 80065b4:	f000 fe4c 	bl	8007250 <vPortEnterCritical>
 80065b8:	5da5      	ldrb	r5, [r4, r6]
 80065ba:	b26d      	sxtb	r5, r5
 80065bc:	2d00      	cmp	r5, #0
 80065be:	dc0c      	bgt.n	80065da <xQueueGenericReceive+0x256>
 80065c0:	e00e      	b.n	80065e0 <xQueueGenericReceive+0x25c>
 80065c2:	4640      	mov	r0, r8
 80065c4:	f000 fd22 	bl	800700c <xTaskRemoveFromEventList>
 80065c8:	2800      	cmp	r0, #0
 80065ca:	d001      	beq.n	80065d0 <xQueueGenericReceive+0x24c>
 80065cc:	f000 fda2 	bl	8007114 <vTaskMissedYield>
 80065d0:	3d01      	subs	r5, #1
 80065d2:	b2eb      	uxtb	r3, r5
 80065d4:	b25d      	sxtb	r5, r3
 80065d6:	2b00      	cmp	r3, #0
 80065d8:	d002      	beq.n	80065e0 <xQueueGenericReceive+0x25c>
 80065da:	6a63      	ldr	r3, [r4, #36]	; 0x24
 80065dc:	2b00      	cmp	r3, #0
 80065de:	d1f0      	bne.n	80065c2 <xQueueGenericReceive+0x23e>
 80065e0:	23ff      	movs	r3, #255	; 0xff
 80065e2:	55a3      	strb	r3, [r4, r6]
 80065e4:	f000 fe40 	bl	8007268 <vPortExitCritical>
 80065e8:	f000 fe32 	bl	8007250 <vPortEnterCritical>
 80065ec:	5de5      	ldrb	r5, [r4, r7]
 80065ee:	b26d      	sxtb	r5, r5
 80065f0:	2d00      	cmp	r5, #0
 80065f2:	dd14      	ble.n	800661e <xQueueGenericReceive+0x29a>
 80065f4:	6923      	ldr	r3, [r4, #16]
 80065f6:	2b00      	cmp	r3, #0
 80065f8:	d011      	beq.n	800661e <xQueueGenericReceive+0x29a>
 80065fa:	2310      	movs	r3, #16
 80065fc:	4698      	mov	r8, r3
 80065fe:	44a0      	add	r8, r4
 8006600:	4640      	mov	r0, r8
 8006602:	f000 fd03 	bl	800700c <xTaskRemoveFromEventList>
 8006606:	2800      	cmp	r0, #0
 8006608:	d001      	beq.n	800660e <xQueueGenericReceive+0x28a>
 800660a:	f000 fd83 	bl	8007114 <vTaskMissedYield>
 800660e:	3d01      	subs	r5, #1
 8006610:	b2eb      	uxtb	r3, r5
 8006612:	b25d      	sxtb	r5, r3
 8006614:	2b00      	cmp	r3, #0
 8006616:	d002      	beq.n	800661e <xQueueGenericReceive+0x29a>
 8006618:	6923      	ldr	r3, [r4, #16]
 800661a:	2b00      	cmp	r3, #0
 800661c:	d1f0      	bne.n	8006600 <xQueueGenericReceive+0x27c>
 800661e:	23ff      	movs	r3, #255	; 0xff
 8006620:	55e3      	strb	r3, [r4, r7]
 8006622:	f000 fe21 	bl	8007268 <vPortExitCritical>
 8006626:	f000 fb2d 	bl	8006c84 <xTaskResumeAll>
 800662a:	2800      	cmp	r0, #0
 800662c:	d18e      	bne.n	800654c <xQueueGenericReceive+0x1c8>
 800662e:	f000 fe03 	bl	8007238 <vPortYield>
 8006632:	e78b      	b.n	800654c <xQueueGenericReceive+0x1c8>
 8006634:	4653      	mov	r3, sl
 8006636:	55a3      	strb	r3, [r4, r6]
 8006638:	e6dd      	b.n	80063f6 <xQueueGenericReceive+0x72>
 800663a:	4653      	mov	r3, sl
 800663c:	55e3      	strb	r3, [r4, r7]
 800663e:	e6d5      	b.n	80063ec <xQueueGenericReceive+0x68>
 8006640:	6c03      	ldr	r3, [r0, #64]	; 0x40
 8006642:	2b00      	cmp	r3, #0
 8006644:	d100      	bne.n	8006648 <xQueueGenericReceive+0x2c4>
 8006646:	e6ad      	b.n	80063a4 <xQueueGenericReceive+0x20>
 8006648:	b672      	cpsid	i
 800664a:	e7fe      	b.n	800664a <xQueueGenericReceive+0x2c6>
 800664c:	b672      	cpsid	i
 800664e:	e7fe      	b.n	800664e <xQueueGenericReceive+0x2ca>
 8006650:	f000 fdfe 	bl	8007250 <vPortEnterCritical>
 8006654:	6860      	ldr	r0, [r4, #4]
 8006656:	f000 fd73 	bl	8007140 <vTaskPriorityInherit>
 800665a:	f000 fe05 	bl	8007268 <vPortExitCritical>
 800665e:	e7a2      	b.n	80065a6 <xQueueGenericReceive+0x222>
 8006660:	6a63      	ldr	r3, [r4, #36]	; 0x24
 8006662:	60e6      	str	r6, [r4, #12]
 8006664:	2b00      	cmp	r3, #0
 8006666:	d107      	bne.n	8006678 <xQueueGenericReceive+0x2f4>
 8006668:	f000 fdfe 	bl	8007268 <vPortExitCritical>
 800666c:	2001      	movs	r0, #1
 800666e:	e71d      	b.n	80064ac <xQueueGenericReceive+0x128>
 8006670:	f000 fd9e 	bl	80071b0 <pvTaskIncrementMutexHeldCount>
 8006674:	6060      	str	r0, [r4, #4]
 8006676:	e785      	b.n	8006584 <xQueueGenericReceive+0x200>
 8006678:	0020      	movs	r0, r4
 800667a:	3024      	adds	r0, #36	; 0x24
 800667c:	f000 fcc6 	bl	800700c <xTaskRemoveFromEventList>
 8006680:	2800      	cmp	r0, #0
 8006682:	d0f1      	beq.n	8006668 <xQueueGenericReceive+0x2e4>
 8006684:	e787      	b.n	8006596 <xQueueGenericReceive+0x212>
 8006686:	46c0      	nop			; (mov r8, r8)

08006688 <prvAddCurrentTaskToDelayedList>:
 8006688:	b5f8      	push	{r3, r4, r5, r6, r7, lr}
 800668a:	0004      	movs	r4, r0
 800668c:	4b14      	ldr	r3, [pc, #80]	; (80066e0 <prvAddCurrentTaskToDelayedList+0x58>)
 800668e:	4d15      	ldr	r5, [pc, #84]	; (80066e4 <prvAddCurrentTaskToDelayedList+0x5c>)
 8006690:	681e      	ldr	r6, [r3, #0]
 8006692:	6828      	ldr	r0, [r5, #0]
 8006694:	000f      	movs	r7, r1
 8006696:	3004      	adds	r0, #4
 8006698:	f7ff fdec 	bl	8006274 <uxListRemove>
 800669c:	1c63      	adds	r3, r4, #1
 800669e:	d017      	beq.n	80066d0 <prvAddCurrentTaskToDelayedList+0x48>
 80066a0:	682b      	ldr	r3, [r5, #0]
 80066a2:	1934      	adds	r4, r6, r4
 80066a4:	605c      	str	r4, [r3, #4]
 80066a6:	42a6      	cmp	r6, r4
 80066a8:	d80b      	bhi.n	80066c2 <prvAddCurrentTaskToDelayedList+0x3a>
 80066aa:	4b0f      	ldr	r3, [pc, #60]	; (80066e8 <prvAddCurrentTaskToDelayedList+0x60>)
 80066ac:	6818      	ldr	r0, [r3, #0]
 80066ae:	6829      	ldr	r1, [r5, #0]
 80066b0:	3104      	adds	r1, #4
 80066b2:	f7ff fdc7 	bl	8006244 <vListInsert>
 80066b6:	4b0d      	ldr	r3, [pc, #52]	; (80066ec <prvAddCurrentTaskToDelayedList+0x64>)
 80066b8:	681a      	ldr	r2, [r3, #0]
 80066ba:	42a2      	cmp	r2, r4
 80066bc:	d900      	bls.n	80066c0 <prvAddCurrentTaskToDelayedList+0x38>
 80066be:	601c      	str	r4, [r3, #0]
 80066c0:	bdf8      	pop	{r3, r4, r5, r6, r7, pc}
 80066c2:	4b0b      	ldr	r3, [pc, #44]	; (80066f0 <prvAddCurrentTaskToDelayedList+0x68>)
 80066c4:	6818      	ldr	r0, [r3, #0]
 80066c6:	6829      	ldr	r1, [r5, #0]
 80066c8:	3104      	adds	r1, #4
 80066ca:	f7ff fdbb 	bl	8006244 <vListInsert>
 80066ce:	e7f7      	b.n	80066c0 <prvAddCurrentTaskToDelayedList+0x38>
 80066d0:	2f00      	cmp	r7, #0
 80066d2:	d0e5      	beq.n	80066a0 <prvAddCurrentTaskToDelayedList+0x18>
 80066d4:	6829      	ldr	r1, [r5, #0]
 80066d6:	4807      	ldr	r0, [pc, #28]	; (80066f4 <prvAddCurrentTaskToDelayedList+0x6c>)
 80066d8:	3104      	adds	r1, #4
 80066da:	f7ff fda7 	bl	800622c <vListInsertEnd>
 80066de:	e7ef      	b.n	80066c0 <prvAddCurrentTaskToDelayedList+0x38>
 80066e0:	2000014c 	.word	0x2000014c
 80066e4:	20000028 	.word	0x20000028
 80066e8:	2000002c 	.word	0x2000002c
 80066ec:	20000104 	.word	0x20000104
 80066f0:	20000030 	.word	0x20000030
 80066f4:	20000124 	.word	0x20000124

080066f8 <xTaskCreate>:
 80066f8:	b5f0      	push	{r4, r5, r6, r7, lr}
 80066fa:	464f      	mov	r7, r9
 80066fc:	4646      	mov	r6, r8
 80066fe:	46de      	mov	lr, fp
 8006700:	b5c0      	push	{r6, r7, lr}
 8006702:	0096      	lsls	r6, r2, #2
 8006704:	4680      	mov	r8, r0
 8006706:	0030      	movs	r0, r6
 8006708:	000d      	movs	r5, r1
 800670a:	4699      	mov	r9, r3
 800670c:	f000 fe52 	bl	80073b4 <pvPortMalloc>
 8006710:	1e07      	subs	r7, r0, #0
 8006712:	d100      	bne.n	8006716 <xTaskCreate+0x1e>
 8006714:	e106      	b.n	8006924 <xTaskCreate+0x22c>
 8006716:	2054      	movs	r0, #84	; 0x54
 8006718:	f000 fe4c 	bl	80073b4 <pvPortMalloc>
 800671c:	1e04      	subs	r4, r0, #0
 800671e:	d100      	bne.n	8006722 <xTaskCreate+0x2a>
 8006720:	e0d0      	b.n	80068c4 <xTaskCreate+0x1cc>
 8006722:	2307      	movs	r3, #7
 8006724:	6307      	str	r7, [r0, #48]	; 0x30
 8006726:	3e04      	subs	r6, #4
 8006728:	19be      	adds	r6, r7, r6
 800672a:	782a      	ldrb	r2, [r5, #0]
 800672c:	439e      	bics	r6, r3
 800672e:	332d      	adds	r3, #45	; 0x2d
 8006730:	54c2      	strb	r2, [r0, r3]
 8006732:	782b      	ldrb	r3, [r5, #0]
 8006734:	2b00      	cmp	r3, #0
 8006736:	d056      	beq.n	80067e6 <xTaskCreate+0xee>
 8006738:	2335      	movs	r3, #53	; 0x35
 800673a:	786a      	ldrb	r2, [r5, #1]
 800673c:	54c2      	strb	r2, [r0, r3]
 800673e:	786b      	ldrb	r3, [r5, #1]
 8006740:	2b00      	cmp	r3, #0
 8006742:	d050      	beq.n	80067e6 <xTaskCreate+0xee>
 8006744:	2336      	movs	r3, #54	; 0x36
 8006746:	78aa      	ldrb	r2, [r5, #2]
 8006748:	54c2      	strb	r2, [r0, r3]
 800674a:	78ab      	ldrb	r3, [r5, #2]
 800674c:	2b00      	cmp	r3, #0
 800674e:	d04a      	beq.n	80067e6 <xTaskCreate+0xee>
 8006750:	2337      	movs	r3, #55	; 0x37
 8006752:	78ea      	ldrb	r2, [r5, #3]
 8006754:	54c2      	strb	r2, [r0, r3]
 8006756:	78eb      	ldrb	r3, [r5, #3]
 8006758:	2b00      	cmp	r3, #0
 800675a:	d044      	beq.n	80067e6 <xTaskCreate+0xee>
 800675c:	2338      	movs	r3, #56	; 0x38
 800675e:	792a      	ldrb	r2, [r5, #4]
 8006760:	54c2      	strb	r2, [r0, r3]
 8006762:	792b      	ldrb	r3, [r5, #4]
 8006764:	2b00      	cmp	r3, #0
 8006766:	d03e      	beq.n	80067e6 <xTaskCreate+0xee>
 8006768:	2339      	movs	r3, #57	; 0x39
 800676a:	796a      	ldrb	r2, [r5, #5]
 800676c:	54c2      	strb	r2, [r0, r3]
 800676e:	796b      	ldrb	r3, [r5, #5]
 8006770:	2b00      	cmp	r3, #0
 8006772:	d038      	beq.n	80067e6 <xTaskCreate+0xee>
 8006774:	233a      	movs	r3, #58	; 0x3a
 8006776:	79aa      	ldrb	r2, [r5, #6]
 8006778:	54c2      	strb	r2, [r0, r3]
 800677a:	79ab      	ldrb	r3, [r5, #6]
 800677c:	2b00      	cmp	r3, #0
 800677e:	d032      	beq.n	80067e6 <xTaskCreate+0xee>
 8006780:	233b      	movs	r3, #59	; 0x3b
 8006782:	79ea      	ldrb	r2, [r5, #7]
 8006784:	54c2      	strb	r2, [r0, r3]
 8006786:	79eb      	ldrb	r3, [r5, #7]
 8006788:	2b00      	cmp	r3, #0
 800678a:	d02c      	beq.n	80067e6 <xTaskCreate+0xee>
 800678c:	233c      	movs	r3, #60	; 0x3c
 800678e:	7a2a      	ldrb	r2, [r5, #8]
 8006790:	54c2      	strb	r2, [r0, r3]
 8006792:	7a2b      	ldrb	r3, [r5, #8]
 8006794:	2b00      	cmp	r3, #0
 8006796:	d026      	beq.n	80067e6 <xTaskCreate+0xee>
 8006798:	233d      	movs	r3, #61	; 0x3d
 800679a:	7a6a      	ldrb	r2, [r5, #9]
 800679c:	54c2      	strb	r2, [r0, r3]
 800679e:	7a6b      	ldrb	r3, [r5, #9]
 80067a0:	2b00      	cmp	r3, #0
 80067a2:	d020      	beq.n	80067e6 <xTaskCreate+0xee>
 80067a4:	233e      	movs	r3, #62	; 0x3e
 80067a6:	7aaa      	ldrb	r2, [r5, #10]
 80067a8:	54c2      	strb	r2, [r0, r3]
 80067aa:	7aab      	ldrb	r3, [r5, #10]
 80067ac:	2b00      	cmp	r3, #0
 80067ae:	d01a      	beq.n	80067e6 <xTaskCreate+0xee>
 80067b0:	233f      	movs	r3, #63	; 0x3f
 80067b2:	7aea      	ldrb	r2, [r5, #11]
 80067b4:	54c2      	strb	r2, [r0, r3]
 80067b6:	7aeb      	ldrb	r3, [r5, #11]
 80067b8:	2b00      	cmp	r3, #0
 80067ba:	d014      	beq.n	80067e6 <xTaskCreate+0xee>
 80067bc:	2340      	movs	r3, #64	; 0x40
 80067be:	7b2a      	ldrb	r2, [r5, #12]
 80067c0:	54c2      	strb	r2, [r0, r3]
 80067c2:	7b2b      	ldrb	r3, [r5, #12]
 80067c4:	2b00      	cmp	r3, #0
 80067c6:	d00e      	beq.n	80067e6 <xTaskCreate+0xee>
 80067c8:	2341      	movs	r3, #65	; 0x41
 80067ca:	7b6a      	ldrb	r2, [r5, #13]
 80067cc:	54c2      	strb	r2, [r0, r3]
 80067ce:	7b6b      	ldrb	r3, [r5, #13]
 80067d0:	2b00      	cmp	r3, #0
 80067d2:	d008      	beq.n	80067e6 <xTaskCreate+0xee>
 80067d4:	2342      	movs	r3, #66	; 0x42
 80067d6:	7baa      	ldrb	r2, [r5, #14]
 80067d8:	54c2      	strb	r2, [r0, r3]
 80067da:	7bab      	ldrb	r3, [r5, #14]
 80067dc:	2b00      	cmp	r3, #0
 80067de:	d002      	beq.n	80067e6 <xTaskCreate+0xee>
 80067e0:	2343      	movs	r3, #67	; 0x43
 80067e2:	7bea      	ldrb	r2, [r5, #15]
 80067e4:	54c2      	strb	r2, [r0, r3]
 80067e6:	2343      	movs	r3, #67	; 0x43
 80067e8:	2200      	movs	r2, #0
 80067ea:	9f08      	ldr	r7, [sp, #32]
 80067ec:	54e2      	strb	r2, [r4, r3]
 80067ee:	2f06      	cmp	r7, #6
 80067f0:	d854      	bhi.n	800689c <xTaskCreate+0x1a4>
 80067f2:	2300      	movs	r3, #0
 80067f4:	1d25      	adds	r5, r4, #4
 80067f6:	64a3      	str	r3, [r4, #72]	; 0x48
 80067f8:	0028      	movs	r0, r5
 80067fa:	62e7      	str	r7, [r4, #44]	; 0x2c
 80067fc:	6467      	str	r7, [r4, #68]	; 0x44
 80067fe:	469b      	mov	fp, r3
 8006800:	f7ff fd10 	bl	8006224 <vListInitialiseItem>
 8006804:	0020      	movs	r0, r4
 8006806:	3018      	adds	r0, #24
 8006808:	f7ff fd0c 	bl	8006224 <vListInitialiseItem>
 800680c:	2307      	movs	r3, #7
 800680e:	1bdb      	subs	r3, r3, r7
 8006810:	61a3      	str	r3, [r4, #24]
 8006812:	465b      	mov	r3, fp
 8006814:	465a      	mov	r2, fp
 8006816:	64e3      	str	r3, [r4, #76]	; 0x4c
 8006818:	3350      	adds	r3, #80	; 0x50
 800681a:	6124      	str	r4, [r4, #16]
 800681c:	6264      	str	r4, [r4, #36]	; 0x24
 800681e:	4641      	mov	r1, r8
 8006820:	54e2      	strb	r2, [r4, r3]
 8006822:	0030      	movs	r0, r6
 8006824:	464a      	mov	r2, r9
 8006826:	f000 fcf5 	bl	8007214 <pxPortInitialiseStack>
 800682a:	9b09      	ldr	r3, [sp, #36]	; 0x24
 800682c:	6020      	str	r0, [r4, #0]
 800682e:	2b00      	cmp	r3, #0
 8006830:	d000      	beq.n	8006834 <xTaskCreate+0x13c>
 8006832:	601c      	str	r4, [r3, #0]
 8006834:	f000 fd0c 	bl	8007250 <vPortEnterCritical>
 8006838:	4a3c      	ldr	r2, [pc, #240]	; (800692c <xTaskCreate+0x234>)
 800683a:	4f3d      	ldr	r7, [pc, #244]	; (8006930 <xTaskCreate+0x238>)
 800683c:	6813      	ldr	r3, [r2, #0]
 800683e:	3301      	adds	r3, #1
 8006840:	6013      	str	r3, [r2, #0]
 8006842:	683b      	ldr	r3, [r7, #0]
 8006844:	2b00      	cmp	r3, #0
 8006846:	d031      	beq.n	80068ac <xTaskCreate+0x1b4>
 8006848:	4b3a      	ldr	r3, [pc, #232]	; (8006934 <xTaskCreate+0x23c>)
 800684a:	681a      	ldr	r2, [r3, #0]
 800684c:	4698      	mov	r8, r3
 800684e:	6ae3      	ldr	r3, [r4, #44]	; 0x2c
 8006850:	2a00      	cmp	r2, #0
 8006852:	d025      	beq.n	80068a0 <xTaskCreate+0x1a8>
 8006854:	4e38      	ldr	r6, [pc, #224]	; (8006938 <xTaskCreate+0x240>)
 8006856:	4939      	ldr	r1, [pc, #228]	; (800693c <xTaskCreate+0x244>)
 8006858:	680a      	ldr	r2, [r1, #0]
 800685a:	3201      	adds	r2, #1
 800685c:	600a      	str	r2, [r1, #0]
 800685e:	4a38      	ldr	r2, [pc, #224]	; (8006940 <xTaskCreate+0x248>)
 8006860:	6811      	ldr	r1, [r2, #0]
 8006862:	4299      	cmp	r1, r3
 8006864:	d318      	bcc.n	8006898 <xTaskCreate+0x1a0>
 8006866:	0098      	lsls	r0, r3, #2
 8006868:	18c0      	adds	r0, r0, r3
 800686a:	0080      	lsls	r0, r0, #2
 800686c:	0029      	movs	r1, r5
 800686e:	1830      	adds	r0, r6, r0
 8006870:	f7ff fcdc 	bl	800622c <vListInsertEnd>
 8006874:	f000 fcf8 	bl	8007268 <vPortExitCritical>
 8006878:	4643      	mov	r3, r8
 800687a:	681b      	ldr	r3, [r3, #0]
 800687c:	2501      	movs	r5, #1
 800687e:	2b00      	cmp	r3, #0
 8006880:	d004      	beq.n	800688c <xTaskCreate+0x194>
 8006882:	683b      	ldr	r3, [r7, #0]
 8006884:	6ada      	ldr	r2, [r3, #44]	; 0x2c
 8006886:	6ae3      	ldr	r3, [r4, #44]	; 0x2c
 8006888:	429a      	cmp	r2, r3
 800688a:	d318      	bcc.n	80068be <xTaskCreate+0x1c6>
 800688c:	0028      	movs	r0, r5
 800688e:	bc1c      	pop	{r2, r3, r4}
 8006890:	4690      	mov	r8, r2
 8006892:	4699      	mov	r9, r3
 8006894:	46a3      	mov	fp, r4
 8006896:	bdf0      	pop	{r4, r5, r6, r7, pc}
 8006898:	6013      	str	r3, [r2, #0]
 800689a:	e7e4      	b.n	8006866 <xTaskCreate+0x16e>
 800689c:	2706      	movs	r7, #6
 800689e:	e7a8      	b.n	80067f2 <xTaskCreate+0xfa>
 80068a0:	683a      	ldr	r2, [r7, #0]
 80068a2:	6ad2      	ldr	r2, [r2, #44]	; 0x2c
 80068a4:	429a      	cmp	r2, r3
 80068a6:	d8d5      	bhi.n	8006854 <xTaskCreate+0x15c>
 80068a8:	603c      	str	r4, [r7, #0]
 80068aa:	e7d3      	b.n	8006854 <xTaskCreate+0x15c>
 80068ac:	603c      	str	r4, [r7, #0]
 80068ae:	6813      	ldr	r3, [r2, #0]
 80068b0:	2b01      	cmp	r3, #1
 80068b2:	d00d      	beq.n	80068d0 <xTaskCreate+0x1d8>
 80068b4:	4a1f      	ldr	r2, [pc, #124]	; (8006934 <xTaskCreate+0x23c>)
 80068b6:	6ae3      	ldr	r3, [r4, #44]	; 0x2c
 80068b8:	4e1f      	ldr	r6, [pc, #124]	; (8006938 <xTaskCreate+0x240>)
 80068ba:	4690      	mov	r8, r2
 80068bc:	e7cb      	b.n	8006856 <xTaskCreate+0x15e>
 80068be:	f000 fcbb 	bl	8007238 <vPortYield>
 80068c2:	e7e3      	b.n	800688c <xTaskCreate+0x194>
 80068c4:	2501      	movs	r5, #1
 80068c6:	0038      	movs	r0, r7
 80068c8:	f000 fdfa 	bl	80074c0 <vPortFree>
 80068cc:	426d      	negs	r5, r5
 80068ce:	e7dd      	b.n	800688c <xTaskCreate+0x194>
 80068d0:	238c      	movs	r3, #140	; 0x8c
 80068d2:	4e19      	ldr	r6, [pc, #100]	; (8006938 <xTaskCreate+0x240>)
 80068d4:	4699      	mov	r9, r3
 80068d6:	46b0      	mov	r8, r6
 80068d8:	44b1      	add	r9, r6
 80068da:	4640      	mov	r0, r8
 80068dc:	f7ff fc96 	bl	800620c <vListInitialise>
 80068e0:	2314      	movs	r3, #20
 80068e2:	469c      	mov	ip, r3
 80068e4:	44e0      	add	r8, ip
 80068e6:	45c8      	cmp	r8, r9
 80068e8:	d1f7      	bne.n	80068da <xTaskCreate+0x1e2>
 80068ea:	4b16      	ldr	r3, [pc, #88]	; (8006944 <xTaskCreate+0x24c>)
 80068ec:	4699      	mov	r9, r3
 80068ee:	0018      	movs	r0, r3
 80068f0:	f7ff fc8c 	bl	800620c <vListInitialise>
 80068f4:	4b14      	ldr	r3, [pc, #80]	; (8006948 <xTaskCreate+0x250>)
 80068f6:	0018      	movs	r0, r3
 80068f8:	4698      	mov	r8, r3
 80068fa:	f7ff fc87 	bl	800620c <vListInitialise>
 80068fe:	4813      	ldr	r0, [pc, #76]	; (800694c <xTaskCreate+0x254>)
 8006900:	f7ff fc84 	bl	800620c <vListInitialise>
 8006904:	4812      	ldr	r0, [pc, #72]	; (8006950 <xTaskCreate+0x258>)
 8006906:	f7ff fc81 	bl	800620c <vListInitialise>
 800690a:	4812      	ldr	r0, [pc, #72]	; (8006954 <xTaskCreate+0x25c>)
 800690c:	f7ff fc7e 	bl	800620c <vListInitialise>
 8006910:	464a      	mov	r2, r9
 8006912:	4b11      	ldr	r3, [pc, #68]	; (8006958 <xTaskCreate+0x260>)
 8006914:	601a      	str	r2, [r3, #0]
 8006916:	4642      	mov	r2, r8
 8006918:	4b10      	ldr	r3, [pc, #64]	; (800695c <xTaskCreate+0x264>)
 800691a:	601a      	str	r2, [r3, #0]
 800691c:	4a05      	ldr	r2, [pc, #20]	; (8006934 <xTaskCreate+0x23c>)
 800691e:	6ae3      	ldr	r3, [r4, #44]	; 0x2c
 8006920:	4690      	mov	r8, r2
 8006922:	e798      	b.n	8006856 <xTaskCreate+0x15e>
 8006924:	2501      	movs	r5, #1
 8006926:	426d      	negs	r5, r5
 8006928:	e7b0      	b.n	800688c <xTaskCreate+0x194>
 800692a:	46c0      	nop			; (mov r8, r8)
 800692c:	200000c0 	.word	0x200000c0
 8006930:	20000028 	.word	0x20000028
 8006934:	20000120 	.word	0x20000120
 8006938:	20000034 	.word	0x20000034
 800693c:	200000d0 	.word	0x200000d0
 8006940:	200000d4 	.word	0x200000d4
 8006944:	200000d8 	.word	0x200000d8
 8006948:	200000ec 	.word	0x200000ec
 800694c:	2000010c 	.word	0x2000010c
 8006950:	20000138 	.word	0x20000138
 8006954:	20000124 	.word	0x20000124
 8006958:	2000002c 	.word	0x2000002c
 800695c:	20000030 	.word	0x20000030

08006960 <vTaskStartScheduler>:
 8006960:	b5f8      	push	{r3, r4, r5, r6, r7, lr}
 8006962:	2080      	movs	r0, #128	; 0x80
 8006964:	46ce      	mov	lr, r9
 8006966:	4647      	mov	r7, r8
 8006968:	0080      	lsls	r0, r0, #2
 800696a:	b580      	push	{r7, lr}
 800696c:	f000 fd22 	bl	80073b4 <pvPortMalloc>
 8006970:	1e05      	subs	r5, r0, #0
 8006972:	d100      	bne.n	8006976 <vTaskStartScheduler+0x16>
 8006974:	e07e      	b.n	8006a74 <vTaskStartScheduler+0x114>
 8006976:	2054      	movs	r0, #84	; 0x54
 8006978:	f000 fd1c 	bl	80073b4 <pvPortMalloc>
 800697c:	1e04      	subs	r4, r0, #0
 800697e:	d100      	bne.n	8006982 <vTaskStartScheduler+0x22>
 8006980:	e075      	b.n	8006a6e <vTaskStartScheduler+0x10e>
 8006982:	2307      	movs	r3, #7
 8006984:	6305      	str	r5, [r0, #48]	; 0x30
 8006986:	35fd      	adds	r5, #253	; 0xfd
 8006988:	35ff      	adds	r5, #255	; 0xff
 800698a:	4698      	mov	r8, r3
 800698c:	439d      	bics	r5, r3
 800698e:	4b4d      	ldr	r3, [pc, #308]	; (8006ac4 <vTaskStartScheduler+0x164>)
 8006990:	002e      	movs	r6, r5
 8006992:	6343      	str	r3, [r0, #52]	; 0x34
 8006994:	2500      	movs	r5, #0
 8006996:	2338      	movs	r3, #56	; 0x38
 8006998:	1d07      	adds	r7, r0, #4
 800699a:	54c5      	strb	r5, [r0, r3]
 800699c:	330b      	adds	r3, #11
 800699e:	54c5      	strb	r5, [r0, r3]
 80069a0:	62c5      	str	r5, [r0, #44]	; 0x2c
 80069a2:	6445      	str	r5, [r0, #68]	; 0x44
 80069a4:	6485      	str	r5, [r0, #72]	; 0x48
 80069a6:	0038      	movs	r0, r7
 80069a8:	f7ff fc3c 	bl	8006224 <vListInitialiseItem>
 80069ac:	0020      	movs	r0, r4
 80069ae:	3018      	adds	r0, #24
 80069b0:	f7ff fc38 	bl	8006224 <vListInitialiseItem>
 80069b4:	4643      	mov	r3, r8
 80069b6:	61a3      	str	r3, [r4, #24]
 80069b8:	3349      	adds	r3, #73	; 0x49
 80069ba:	2200      	movs	r2, #0
 80069bc:	6124      	str	r4, [r4, #16]
 80069be:	6264      	str	r4, [r4, #36]	; 0x24
 80069c0:	64e5      	str	r5, [r4, #76]	; 0x4c
 80069c2:	4941      	ldr	r1, [pc, #260]	; (8006ac8 <vTaskStartScheduler+0x168>)
 80069c4:	54e5      	strb	r5, [r4, r3]
 80069c6:	0030      	movs	r0, r6
 80069c8:	f000 fc24 	bl	8007214 <pxPortInitialiseStack>
 80069cc:	4b3f      	ldr	r3, [pc, #252]	; (8006acc <vTaskStartScheduler+0x16c>)
 80069ce:	6020      	str	r0, [r4, #0]
 80069d0:	601c      	str	r4, [r3, #0]
 80069d2:	f000 fc3d 	bl	8007250 <vPortEnterCritical>
 80069d6:	4b3e      	ldr	r3, [pc, #248]	; (8006ad0 <vTaskStartScheduler+0x170>)
 80069d8:	681a      	ldr	r2, [r3, #0]
 80069da:	3201      	adds	r2, #1
 80069dc:	601a      	str	r2, [r3, #0]
 80069de:	4a3d      	ldr	r2, [pc, #244]	; (8006ad4 <vTaskStartScheduler+0x174>)
 80069e0:	4690      	mov	r8, r2
 80069e2:	6812      	ldr	r2, [r2, #0]
 80069e4:	2a00      	cmp	r2, #0
 80069e6:	d039      	beq.n	8006a5c <vTaskStartScheduler+0xfc>
 80069e8:	4e3b      	ldr	r6, [pc, #236]	; (8006ad8 <vTaskStartScheduler+0x178>)
 80069ea:	6ae3      	ldr	r3, [r4, #44]	; 0x2c
 80069ec:	6832      	ldr	r2, [r6, #0]
 80069ee:	2a00      	cmp	r2, #0
 80069f0:	d106      	bne.n	8006a00 <vTaskStartScheduler+0xa0>
 80069f2:	4642      	mov	r2, r8
 80069f4:	6812      	ldr	r2, [r2, #0]
 80069f6:	6ad2      	ldr	r2, [r2, #44]	; 0x2c
 80069f8:	429a      	cmp	r2, r3
 80069fa:	d801      	bhi.n	8006a00 <vTaskStartScheduler+0xa0>
 80069fc:	4642      	mov	r2, r8
 80069fe:	6014      	str	r4, [r2, #0]
 8006a00:	4d36      	ldr	r5, [pc, #216]	; (8006adc <vTaskStartScheduler+0x17c>)
 8006a02:	4937      	ldr	r1, [pc, #220]	; (8006ae0 <vTaskStartScheduler+0x180>)
 8006a04:	680a      	ldr	r2, [r1, #0]
 8006a06:	3201      	adds	r2, #1
 8006a08:	600a      	str	r2, [r1, #0]
 8006a0a:	4a36      	ldr	r2, [pc, #216]	; (8006ae4 <vTaskStartScheduler+0x184>)
 8006a0c:	6811      	ldr	r1, [r2, #0]
 8006a0e:	4299      	cmp	r1, r3
 8006a10:	d200      	bcs.n	8006a14 <vTaskStartScheduler+0xb4>
 8006a12:	6013      	str	r3, [r2, #0]
 8006a14:	0098      	lsls	r0, r3, #2
 8006a16:	18c0      	adds	r0, r0, r3
 8006a18:	0080      	lsls	r0, r0, #2
 8006a1a:	1828      	adds	r0, r5, r0
 8006a1c:	0039      	movs	r1, r7
 8006a1e:	f7ff fc05 	bl	800622c <vListInsertEnd>
 8006a22:	f000 fc21 	bl	8007268 <vPortExitCritical>
 8006a26:	6833      	ldr	r3, [r6, #0]
 8006a28:	2b00      	cmp	r3, #0
 8006a2a:	d007      	beq.n	8006a3c <vTaskStartScheduler+0xdc>
 8006a2c:	4643      	mov	r3, r8
 8006a2e:	681b      	ldr	r3, [r3, #0]
 8006a30:	6ada      	ldr	r2, [r3, #44]	; 0x2c
 8006a32:	6ae3      	ldr	r3, [r4, #44]	; 0x2c
 8006a34:	429a      	cmp	r2, r3
 8006a36:	d201      	bcs.n	8006a3c <vTaskStartScheduler+0xdc>
 8006a38:	f000 fbfe 	bl	8007238 <vPortYield>
 8006a3c:	b672      	cpsid	i
 8006a3e:	2201      	movs	r2, #1
 8006a40:	4b29      	ldr	r3, [pc, #164]	; (8006ae8 <vTaskStartScheduler+0x188>)
 8006a42:	4252      	negs	r2, r2
 8006a44:	601a      	str	r2, [r3, #0]
 8006a46:	2301      	movs	r3, #1
 8006a48:	2200      	movs	r2, #0
 8006a4a:	6033      	str	r3, [r6, #0]
 8006a4c:	4b27      	ldr	r3, [pc, #156]	; (8006aec <vTaskStartScheduler+0x18c>)
 8006a4e:	601a      	str	r2, [r3, #0]
 8006a50:	f000 fc6e 	bl	8007330 <xPortStartScheduler>
 8006a54:	bc0c      	pop	{r2, r3}
 8006a56:	4690      	mov	r8, r2
 8006a58:	4699      	mov	r9, r3
 8006a5a:	bdf8      	pop	{r3, r4, r5, r6, r7, pc}
 8006a5c:	4642      	mov	r2, r8
 8006a5e:	6014      	str	r4, [r2, #0]
 8006a60:	681b      	ldr	r3, [r3, #0]
 8006a62:	2b01      	cmp	r3, #1
 8006a64:	d008      	beq.n	8006a78 <vTaskStartScheduler+0x118>
 8006a66:	6ae3      	ldr	r3, [r4, #44]	; 0x2c
 8006a68:	4d1c      	ldr	r5, [pc, #112]	; (8006adc <vTaskStartScheduler+0x17c>)
 8006a6a:	4e1b      	ldr	r6, [pc, #108]	; (8006ad8 <vTaskStartScheduler+0x178>)
 8006a6c:	e7c9      	b.n	8006a02 <vTaskStartScheduler+0xa2>
 8006a6e:	0028      	movs	r0, r5
 8006a70:	f000 fd26 	bl	80074c0 <vPortFree>
 8006a74:	b672      	cpsid	i
 8006a76:	e7fe      	b.n	8006a76 <vTaskStartScheduler+0x116>
 8006a78:	238c      	movs	r3, #140	; 0x8c
 8006a7a:	4d18      	ldr	r5, [pc, #96]	; (8006adc <vTaskStartScheduler+0x17c>)
 8006a7c:	4699      	mov	r9, r3
 8006a7e:	002e      	movs	r6, r5
 8006a80:	44a9      	add	r9, r5
 8006a82:	0030      	movs	r0, r6
 8006a84:	3614      	adds	r6, #20
 8006a86:	f7ff fbc1 	bl	800620c <vListInitialise>
 8006a8a:	45b1      	cmp	r9, r6
 8006a8c:	d1f9      	bne.n	8006a82 <vTaskStartScheduler+0x122>
 8006a8e:	4b18      	ldr	r3, [pc, #96]	; (8006af0 <vTaskStartScheduler+0x190>)
 8006a90:	4699      	mov	r9, r3
 8006a92:	0018      	movs	r0, r3
 8006a94:	f7ff fbba 	bl	800620c <vListInitialise>
 8006a98:	4e16      	ldr	r6, [pc, #88]	; (8006af4 <vTaskStartScheduler+0x194>)
 8006a9a:	0030      	movs	r0, r6
 8006a9c:	f7ff fbb6 	bl	800620c <vListInitialise>
 8006aa0:	4815      	ldr	r0, [pc, #84]	; (8006af8 <vTaskStartScheduler+0x198>)
 8006aa2:	f7ff fbb3 	bl	800620c <vListInitialise>
 8006aa6:	4815      	ldr	r0, [pc, #84]	; (8006afc <vTaskStartScheduler+0x19c>)
 8006aa8:	f7ff fbb0 	bl	800620c <vListInitialise>
 8006aac:	4814      	ldr	r0, [pc, #80]	; (8006b00 <vTaskStartScheduler+0x1a0>)
 8006aae:	f7ff fbad 	bl	800620c <vListInitialise>
 8006ab2:	464a      	mov	r2, r9
 8006ab4:	4b13      	ldr	r3, [pc, #76]	; (8006b04 <vTaskStartScheduler+0x1a4>)
 8006ab6:	601a      	str	r2, [r3, #0]
 8006ab8:	4b13      	ldr	r3, [pc, #76]	; (8006b08 <vTaskStartScheduler+0x1a8>)
 8006aba:	601e      	str	r6, [r3, #0]
 8006abc:	6ae3      	ldr	r3, [r4, #44]	; 0x2c
 8006abe:	4e06      	ldr	r6, [pc, #24]	; (8006ad8 <vTaskStartScheduler+0x178>)
 8006ac0:	e79f      	b.n	8006a02 <vTaskStartScheduler+0xa2>
 8006ac2:	46c0      	nop			; (mov r8, r8)
 8006ac4:	454c4449 	.word	0x454c4449
 8006ac8:	08006e1d 	.word	0x08006e1d
 8006acc:	20000100 	.word	0x20000100
 8006ad0:	200000c0 	.word	0x200000c0
 8006ad4:	20000028 	.word	0x20000028
 8006ad8:	20000120 	.word	0x20000120
 8006adc:	20000034 	.word	0x20000034
 8006ae0:	200000d0 	.word	0x200000d0
 8006ae4:	200000d4 	.word	0x200000d4
 8006ae8:	20000104 	.word	0x20000104
 8006aec:	2000014c 	.word	0x2000014c
 8006af0:	200000d8 	.word	0x200000d8
 8006af4:	200000ec 	.word	0x200000ec
 8006af8:	2000010c 	.word	0x2000010c
 8006afc:	20000138 	.word	0x20000138
 8006b00:	20000124 	.word	0x20000124
 8006b04:	2000002c 	.word	0x2000002c
 8006b08:	20000030 	.word	0x20000030

08006b0c <vTaskSuspendAll>:
 8006b0c:	4a02      	ldr	r2, [pc, #8]	; (8006b18 <vTaskSuspendAll+0xc>)
 8006b0e:	6813      	ldr	r3, [r2, #0]
 8006b10:	3301      	adds	r3, #1
 8006b12:	6013      	str	r3, [r2, #0]
 8006b14:	4770      	bx	lr
 8006b16:	46c0      	nop			; (mov r8, r8)
 8006b18:	200000cc 	.word	0x200000cc

08006b1c <xTaskGetTickCount>:
 8006b1c:	4b01      	ldr	r3, [pc, #4]	; (8006b24 <xTaskGetTickCount+0x8>)
 8006b1e:	6818      	ldr	r0, [r3, #0]
 8006b20:	4770      	bx	lr
 8006b22:	46c0      	nop			; (mov r8, r8)
 8006b24:	2000014c 	.word	0x2000014c

08006b28 <xTaskIncrementTick>:
 8006b28:	b5f0      	push	{r4, r5, r6, r7, lr}
 8006b2a:	46de      	mov	lr, fp
 8006b2c:	4657      	mov	r7, sl
 8006b2e:	464e      	mov	r6, r9
 8006b30:	4645      	mov	r5, r8
 8006b32:	b5e0      	push	{r5, r6, r7, lr}
 8006b34:	4b48      	ldr	r3, [pc, #288]	; (8006c58 <xTaskIncrementTick+0x130>)
 8006b36:	b083      	sub	sp, #12
 8006b38:	681b      	ldr	r3, [r3, #0]
 8006b3a:	2b00      	cmp	r3, #0
 8006b3c:	d11a      	bne.n	8006b74 <xTaskIncrementTick+0x4c>
 8006b3e:	4b47      	ldr	r3, [pc, #284]	; (8006c5c <xTaskIncrementTick+0x134>)
 8006b40:	681f      	ldr	r7, [r3, #0]
 8006b42:	3701      	adds	r7, #1
 8006b44:	601f      	str	r7, [r3, #0]
 8006b46:	2f00      	cmp	r7, #0
 8006b48:	d026      	beq.n	8006b98 <xTaskIncrementTick+0x70>
 8006b4a:	4d45      	ldr	r5, [pc, #276]	; (8006c60 <xTaskIncrementTick+0x138>)
 8006b4c:	682b      	ldr	r3, [r5, #0]
 8006b4e:	2600      	movs	r6, #0
 8006b50:	42bb      	cmp	r3, r7
 8006b52:	d928      	bls.n	8006ba6 <xTaskIncrementTick+0x7e>
 8006b54:	4b43      	ldr	r3, [pc, #268]	; (8006c64 <xTaskIncrementTick+0x13c>)
 8006b56:	4699      	mov	r9, r3
 8006b58:	4b43      	ldr	r3, [pc, #268]	; (8006c68 <xTaskIncrementTick+0x140>)
 8006b5a:	469a      	mov	sl, r3
 8006b5c:	4653      	mov	r3, sl
 8006b5e:	681b      	ldr	r3, [r3, #0]
 8006b60:	6ada      	ldr	r2, [r3, #44]	; 0x2c
 8006b62:	0093      	lsls	r3, r2, #2
 8006b64:	189b      	adds	r3, r3, r2
 8006b66:	464a      	mov	r2, r9
 8006b68:	009b      	lsls	r3, r3, #2
 8006b6a:	58d3      	ldr	r3, [r2, r3]
 8006b6c:	2b01      	cmp	r3, #1
 8006b6e:	d906      	bls.n	8006b7e <xTaskIncrementTick+0x56>
 8006b70:	2601      	movs	r6, #1
 8006b72:	e004      	b.n	8006b7e <xTaskIncrementTick+0x56>
 8006b74:	2600      	movs	r6, #0
 8006b76:	4a3d      	ldr	r2, [pc, #244]	; (8006c6c <xTaskIncrementTick+0x144>)
 8006b78:	6813      	ldr	r3, [r2, #0]
 8006b7a:	3301      	adds	r3, #1
 8006b7c:	6013      	str	r3, [r2, #0]
 8006b7e:	4b3c      	ldr	r3, [pc, #240]	; (8006c70 <xTaskIncrementTick+0x148>)
 8006b80:	681b      	ldr	r3, [r3, #0]
 8006b82:	2b00      	cmp	r3, #0
 8006b84:	d000      	beq.n	8006b88 <xTaskIncrementTick+0x60>
 8006b86:	2601      	movs	r6, #1
 8006b88:	0030      	movs	r0, r6
 8006b8a:	b003      	add	sp, #12
 8006b8c:	bc3c      	pop	{r2, r3, r4, r5}
 8006b8e:	4690      	mov	r8, r2
 8006b90:	4699      	mov	r9, r3
 8006b92:	46a2      	mov	sl, r4
 8006b94:	46ab      	mov	fp, r5
 8006b96:	bdf0      	pop	{r4, r5, r6, r7, pc}
 8006b98:	4c36      	ldr	r4, [pc, #216]	; (8006c74 <xTaskIncrementTick+0x14c>)
 8006b9a:	6823      	ldr	r3, [r4, #0]
 8006b9c:	681b      	ldr	r3, [r3, #0]
 8006b9e:	2b00      	cmp	r3, #0
 8006ba0:	d041      	beq.n	8006c26 <xTaskIncrementTick+0xfe>
 8006ba2:	b672      	cpsid	i
 8006ba4:	e7fe      	b.n	8006ba4 <xTaskIncrementTick+0x7c>
 8006ba6:	4b2f      	ldr	r3, [pc, #188]	; (8006c64 <xTaskIncrementTick+0x13c>)
 8006ba8:	4c32      	ldr	r4, [pc, #200]	; (8006c74 <xTaskIncrementTick+0x14c>)
 8006baa:	4699      	mov	r9, r3
 8006bac:	4b2e      	ldr	r3, [pc, #184]	; (8006c68 <xTaskIncrementTick+0x140>)
 8006bae:	469a      	mov	sl, r3
 8006bb0:	4b31      	ldr	r3, [pc, #196]	; (8006c78 <xTaskIncrementTick+0x150>)
 8006bb2:	469b      	mov	fp, r3
 8006bb4:	6823      	ldr	r3, [r4, #0]
 8006bb6:	681b      	ldr	r3, [r3, #0]
 8006bb8:	2b00      	cmp	r3, #0
 8006bba:	d02f      	beq.n	8006c1c <xTaskIncrementTick+0xf4>
 8006bbc:	6823      	ldr	r3, [r4, #0]
 8006bbe:	68db      	ldr	r3, [r3, #12]
 8006bc0:	68db      	ldr	r3, [r3, #12]
 8006bc2:	4698      	mov	r8, r3
 8006bc4:	685b      	ldr	r3, [r3, #4]
 8006bc6:	429f      	cmp	r7, r3
 8006bc8:	d32b      	bcc.n	8006c22 <xTaskIncrementTick+0xfa>
 8006bca:	4643      	mov	r3, r8
 8006bcc:	3304      	adds	r3, #4
 8006bce:	0018      	movs	r0, r3
 8006bd0:	9301      	str	r3, [sp, #4]
 8006bd2:	f7ff fb4f 	bl	8006274 <uxListRemove>
 8006bd6:	4643      	mov	r3, r8
 8006bd8:	6a9b      	ldr	r3, [r3, #40]	; 0x28
 8006bda:	2b00      	cmp	r3, #0
 8006bdc:	d003      	beq.n	8006be6 <xTaskIncrementTick+0xbe>
 8006bde:	4640      	mov	r0, r8
 8006be0:	3018      	adds	r0, #24
 8006be2:	f7ff fb47 	bl	8006274 <uxListRemove>
 8006be6:	4643      	mov	r3, r8
 8006be8:	465a      	mov	r2, fp
 8006bea:	6adb      	ldr	r3, [r3, #44]	; 0x2c
 8006bec:	6812      	ldr	r2, [r2, #0]
 8006bee:	4293      	cmp	r3, r2
 8006bf0:	d901      	bls.n	8006bf6 <xTaskIncrementTick+0xce>
 8006bf2:	465a      	mov	r2, fp
 8006bf4:	6013      	str	r3, [r2, #0]
 8006bf6:	0098      	lsls	r0, r3, #2
 8006bf8:	18c0      	adds	r0, r0, r3
 8006bfa:	0080      	lsls	r0, r0, #2
 8006bfc:	4448      	add	r0, r9
 8006bfe:	9901      	ldr	r1, [sp, #4]
 8006c00:	f7ff fb14 	bl	800622c <vListInsertEnd>
 8006c04:	4653      	mov	r3, sl
 8006c06:	4642      	mov	r2, r8
 8006c08:	681b      	ldr	r3, [r3, #0]
 8006c0a:	6ad2      	ldr	r2, [r2, #44]	; 0x2c
 8006c0c:	6adb      	ldr	r3, [r3, #44]	; 0x2c
 8006c0e:	429a      	cmp	r2, r3
 8006c10:	d3d0      	bcc.n	8006bb4 <xTaskIncrementTick+0x8c>
 8006c12:	6823      	ldr	r3, [r4, #0]
 8006c14:	2601      	movs	r6, #1
 8006c16:	681b      	ldr	r3, [r3, #0]
 8006c18:	2b00      	cmp	r3, #0
 8006c1a:	d1cf      	bne.n	8006bbc <xTaskIncrementTick+0x94>
 8006c1c:	3b01      	subs	r3, #1
 8006c1e:	602b      	str	r3, [r5, #0]
 8006c20:	e79c      	b.n	8006b5c <xTaskIncrementTick+0x34>
 8006c22:	602b      	str	r3, [r5, #0]
 8006c24:	e79a      	b.n	8006b5c <xTaskIncrementTick+0x34>
 8006c26:	4b15      	ldr	r3, [pc, #84]	; (8006c7c <xTaskIncrementTick+0x154>)
 8006c28:	6822      	ldr	r2, [r4, #0]
 8006c2a:	6819      	ldr	r1, [r3, #0]
 8006c2c:	6021      	str	r1, [r4, #0]
 8006c2e:	601a      	str	r2, [r3, #0]
 8006c30:	4a13      	ldr	r2, [pc, #76]	; (8006c80 <xTaskIncrementTick+0x158>)
 8006c32:	6813      	ldr	r3, [r2, #0]
 8006c34:	3301      	adds	r3, #1
 8006c36:	6013      	str	r3, [r2, #0]
 8006c38:	6823      	ldr	r3, [r4, #0]
 8006c3a:	681b      	ldr	r3, [r3, #0]
 8006c3c:	2b00      	cmp	r3, #0
 8006c3e:	d103      	bne.n	8006c48 <xTaskIncrementTick+0x120>
 8006c40:	4d07      	ldr	r5, [pc, #28]	; (8006c60 <xTaskIncrementTick+0x138>)
 8006c42:	3b01      	subs	r3, #1
 8006c44:	602b      	str	r3, [r5, #0]
 8006c46:	e781      	b.n	8006b4c <xTaskIncrementTick+0x24>
 8006c48:	6823      	ldr	r3, [r4, #0]
 8006c4a:	4d05      	ldr	r5, [pc, #20]	; (8006c60 <xTaskIncrementTick+0x138>)
 8006c4c:	68db      	ldr	r3, [r3, #12]
 8006c4e:	68db      	ldr	r3, [r3, #12]
 8006c50:	685b      	ldr	r3, [r3, #4]
 8006c52:	602b      	str	r3, [r5, #0]
 8006c54:	e77a      	b.n	8006b4c <xTaskIncrementTick+0x24>
 8006c56:	46c0      	nop			; (mov r8, r8)
 8006c58:	200000cc 	.word	0x200000cc
 8006c5c:	2000014c 	.word	0x2000014c
 8006c60:	20000104 	.word	0x20000104
 8006c64:	20000034 	.word	0x20000034
 8006c68:	20000028 	.word	0x20000028
 8006c6c:	200000c8 	.word	0x200000c8
 8006c70:	20000150 	.word	0x20000150
 8006c74:	2000002c 	.word	0x2000002c
 8006c78:	200000d4 	.word	0x200000d4
 8006c7c:	20000030 	.word	0x20000030
 8006c80:	20000108 	.word	0x20000108

08006c84 <xTaskResumeAll>:
 8006c84:	b5f0      	push	{r4, r5, r6, r7, lr}
 8006c86:	46d6      	mov	lr, sl
 8006c88:	464f      	mov	r7, r9
 8006c8a:	4646      	mov	r6, r8
 8006c8c:	4c35      	ldr	r4, [pc, #212]	; (8006d64 <xTaskResumeAll+0xe0>)
 8006c8e:	b5c0      	push	{r6, r7, lr}
 8006c90:	6823      	ldr	r3, [r4, #0]
 8006c92:	2b00      	cmp	r3, #0
 8006c94:	d101      	bne.n	8006c9a <xTaskResumeAll+0x16>
 8006c96:	b672      	cpsid	i
 8006c98:	e7fe      	b.n	8006c98 <xTaskResumeAll+0x14>
 8006c9a:	f000 fad9 	bl	8007250 <vPortEnterCritical>
 8006c9e:	6823      	ldr	r3, [r4, #0]
 8006ca0:	3b01      	subs	r3, #1
 8006ca2:	6023      	str	r3, [r4, #0]
 8006ca4:	6824      	ldr	r4, [r4, #0]
 8006ca6:	2c00      	cmp	r4, #0
 8006ca8:	d148      	bne.n	8006d3c <xTaskResumeAll+0xb8>
 8006caa:	4b2f      	ldr	r3, [pc, #188]	; (8006d68 <xTaskResumeAll+0xe4>)
 8006cac:	681b      	ldr	r3, [r3, #0]
 8006cae:	2b00      	cmp	r3, #0
 8006cb0:	d044      	beq.n	8006d3c <xTaskResumeAll+0xb8>
 8006cb2:	4b2e      	ldr	r3, [pc, #184]	; (8006d6c <xTaskResumeAll+0xe8>)
 8006cb4:	4d2e      	ldr	r5, [pc, #184]	; (8006d70 <xTaskResumeAll+0xec>)
 8006cb6:	469a      	mov	sl, r3
 8006cb8:	4b2e      	ldr	r3, [pc, #184]	; (8006d74 <xTaskResumeAll+0xf0>)
 8006cba:	4f2f      	ldr	r7, [pc, #188]	; (8006d78 <xTaskResumeAll+0xf4>)
 8006cbc:	4699      	mov	r9, r3
 8006cbe:	4e2f      	ldr	r6, [pc, #188]	; (8006d7c <xTaskResumeAll+0xf8>)
 8006cc0:	683b      	ldr	r3, [r7, #0]
 8006cc2:	2b00      	cmp	r3, #0
 8006cc4:	d01f      	beq.n	8006d06 <xTaskResumeAll+0x82>
 8006cc6:	68fb      	ldr	r3, [r7, #12]
 8006cc8:	68dc      	ldr	r4, [r3, #12]
 8006cca:	0020      	movs	r0, r4
 8006ccc:	3018      	adds	r0, #24
 8006cce:	f7ff fad1 	bl	8006274 <uxListRemove>
 8006cd2:	1d23      	adds	r3, r4, #4
 8006cd4:	0018      	movs	r0, r3
 8006cd6:	4698      	mov	r8, r3
 8006cd8:	f7ff facc 	bl	8006274 <uxListRemove>
 8006cdc:	6ae3      	ldr	r3, [r4, #44]	; 0x2c
 8006cde:	6832      	ldr	r2, [r6, #0]
 8006ce0:	4293      	cmp	r3, r2
 8006ce2:	d900      	bls.n	8006ce6 <xTaskResumeAll+0x62>
 8006ce4:	6033      	str	r3, [r6, #0]
 8006ce6:	0098      	lsls	r0, r3, #2
 8006ce8:	18c0      	adds	r0, r0, r3
 8006cea:	0080      	lsls	r0, r0, #2
 8006cec:	4450      	add	r0, sl
 8006cee:	4641      	mov	r1, r8
 8006cf0:	f7ff fa9c 	bl	800622c <vListInsertEnd>
 8006cf4:	464b      	mov	r3, r9
 8006cf6:	681b      	ldr	r3, [r3, #0]
 8006cf8:	6ae2      	ldr	r2, [r4, #44]	; 0x2c
 8006cfa:	6adb      	ldr	r3, [r3, #44]	; 0x2c
 8006cfc:	429a      	cmp	r2, r3
 8006cfe:	d3df      	bcc.n	8006cc0 <xTaskResumeAll+0x3c>
 8006d00:	2301      	movs	r3, #1
 8006d02:	602b      	str	r3, [r5, #0]
 8006d04:	e7dc      	b.n	8006cc0 <xTaskResumeAll+0x3c>
 8006d06:	2c00      	cmp	r4, #0
 8006d08:	d007      	beq.n	8006d1a <xTaskResumeAll+0x96>
 8006d0a:	4b1d      	ldr	r3, [pc, #116]	; (8006d80 <xTaskResumeAll+0xfc>)
 8006d0c:	681a      	ldr	r2, [r3, #0]
 8006d0e:	6812      	ldr	r2, [r2, #0]
 8006d10:	2a00      	cmp	r2, #0
 8006d12:	d11c      	bne.n	8006d4e <xTaskResumeAll+0xca>
 8006d14:	4b1b      	ldr	r3, [pc, #108]	; (8006d84 <xTaskResumeAll+0x100>)
 8006d16:	3a01      	subs	r2, #1
 8006d18:	601a      	str	r2, [r3, #0]
 8006d1a:	4e1b      	ldr	r6, [pc, #108]	; (8006d88 <xTaskResumeAll+0x104>)
 8006d1c:	6834      	ldr	r4, [r6, #0]
 8006d1e:	2c00      	cmp	r4, #0
 8006d20:	d009      	beq.n	8006d36 <xTaskResumeAll+0xb2>
 8006d22:	2701      	movs	r7, #1
 8006d24:	f7ff ff00 	bl	8006b28 <xTaskIncrementTick>
 8006d28:	2800      	cmp	r0, #0
 8006d2a:	d000      	beq.n	8006d2e <xTaskResumeAll+0xaa>
 8006d2c:	602f      	str	r7, [r5, #0]
 8006d2e:	3c01      	subs	r4, #1
 8006d30:	2c00      	cmp	r4, #0
 8006d32:	d1f7      	bne.n	8006d24 <xTaskResumeAll+0xa0>
 8006d34:	6034      	str	r4, [r6, #0]
 8006d36:	682b      	ldr	r3, [r5, #0]
 8006d38:	2b00      	cmp	r3, #0
 8006d3a:	d10f      	bne.n	8006d5c <xTaskResumeAll+0xd8>
 8006d3c:	2400      	movs	r4, #0
 8006d3e:	f000 fa93 	bl	8007268 <vPortExitCritical>
 8006d42:	0020      	movs	r0, r4
 8006d44:	bc1c      	pop	{r2, r3, r4}
 8006d46:	4690      	mov	r8, r2
 8006d48:	4699      	mov	r9, r3
 8006d4a:	46a2      	mov	sl, r4
 8006d4c:	bdf0      	pop	{r4, r5, r6, r7, pc}
 8006d4e:	681b      	ldr	r3, [r3, #0]
 8006d50:	68db      	ldr	r3, [r3, #12]
 8006d52:	68db      	ldr	r3, [r3, #12]
 8006d54:	685a      	ldr	r2, [r3, #4]
 8006d56:	4b0b      	ldr	r3, [pc, #44]	; (8006d84 <xTaskResumeAll+0x100>)
 8006d58:	601a      	str	r2, [r3, #0]
 8006d5a:	e7de      	b.n	8006d1a <xTaskResumeAll+0x96>
 8006d5c:	f000 fa6c 	bl	8007238 <vPortYield>
 8006d60:	2401      	movs	r4, #1
 8006d62:	e7ec      	b.n	8006d3e <xTaskResumeAll+0xba>
 8006d64:	200000cc 	.word	0x200000cc
 8006d68:	200000c0 	.word	0x200000c0
 8006d6c:	20000034 	.word	0x20000034
 8006d70:	20000150 	.word	0x20000150
 8006d74:	20000028 	.word	0x20000028
 8006d78:	2000010c 	.word	0x2000010c
 8006d7c:	200000d4 	.word	0x200000d4
 8006d80:	2000002c 	.word	0x2000002c
 8006d84:	20000104 	.word	0x20000104
 8006d88:	200000c8 	.word	0x200000c8

08006d8c <vTaskDelayUntil>:
 8006d8c:	b510      	push	{r4, lr}
 8006d8e:	2800      	cmp	r0, #0
 8006d90:	d009      	beq.n	8006da6 <vTaskDelayUntil+0x1a>
 8006d92:	2900      	cmp	r1, #0
 8006d94:	d101      	bne.n	8006d9a <vTaskDelayUntil+0xe>
 8006d96:	b672      	cpsid	i
 8006d98:	e7fe      	b.n	8006d98 <vTaskDelayUntil+0xc>
 8006d9a:	4b12      	ldr	r3, [pc, #72]	; (8006de4 <vTaskDelayUntil+0x58>)
 8006d9c:	681a      	ldr	r2, [r3, #0]
 8006d9e:	2a00      	cmp	r2, #0
 8006da0:	d003      	beq.n	8006daa <vTaskDelayUntil+0x1e>
 8006da2:	b672      	cpsid	i
 8006da4:	e7fe      	b.n	8006da4 <vTaskDelayUntil+0x18>
 8006da6:	b672      	cpsid	i
 8006da8:	e7fe      	b.n	8006da8 <vTaskDelayUntil+0x1c>
 8006daa:	681a      	ldr	r2, [r3, #0]
 8006dac:	3201      	adds	r2, #1
 8006dae:	601a      	str	r2, [r3, #0]
 8006db0:	4b0d      	ldr	r3, [pc, #52]	; (8006de8 <vTaskDelayUntil+0x5c>)
 8006db2:	6802      	ldr	r2, [r0, #0]
 8006db4:	681b      	ldr	r3, [r3, #0]
 8006db6:	1851      	adds	r1, r2, r1
 8006db8:	6001      	str	r1, [r0, #0]
 8006dba:	429a      	cmp	r2, r3
 8006dbc:	d90e      	bls.n	8006ddc <vTaskDelayUntil+0x50>
 8006dbe:	428a      	cmp	r2, r1
 8006dc0:	d905      	bls.n	8006dce <vTaskDelayUntil+0x42>
 8006dc2:	428b      	cmp	r3, r1
 8006dc4:	d203      	bcs.n	8006dce <vTaskDelayUntil+0x42>
 8006dc6:	1ac8      	subs	r0, r1, r3
 8006dc8:	2100      	movs	r1, #0
 8006dca:	f7ff fc5d 	bl	8006688 <prvAddCurrentTaskToDelayedList>
 8006dce:	f7ff ff59 	bl	8006c84 <xTaskResumeAll>
 8006dd2:	2800      	cmp	r0, #0
 8006dd4:	d101      	bne.n	8006dda <vTaskDelayUntil+0x4e>
 8006dd6:	f000 fa2f 	bl	8007238 <vPortYield>
 8006dda:	bd10      	pop	{r4, pc}
 8006ddc:	428a      	cmp	r2, r1
 8006dde:	d8f2      	bhi.n	8006dc6 <vTaskDelayUntil+0x3a>
 8006de0:	e7ef      	b.n	8006dc2 <vTaskDelayUntil+0x36>
 8006de2:	46c0      	nop			; (mov r8, r8)
 8006de4:	200000cc 	.word	0x200000cc
 8006de8:	2000014c 	.word	0x2000014c

08006dec <vTaskDelay>:
 8006dec:	b510      	push	{r4, lr}
 8006dee:	2800      	cmp	r0, #0
 8006df0:	d00f      	beq.n	8006e12 <vTaskDelay+0x26>
 8006df2:	4b09      	ldr	r3, [pc, #36]	; (8006e18 <vTaskDelay+0x2c>)
 8006df4:	681a      	ldr	r2, [r3, #0]
 8006df6:	2a00      	cmp	r2, #0
 8006df8:	d001      	beq.n	8006dfe <vTaskDelay+0x12>
 8006dfa:	b672      	cpsid	i
 8006dfc:	e7fe      	b.n	8006dfc <vTaskDelay+0x10>
 8006dfe:	681a      	ldr	r2, [r3, #0]
 8006e00:	2100      	movs	r1, #0
 8006e02:	3201      	adds	r2, #1
 8006e04:	601a      	str	r2, [r3, #0]
 8006e06:	f7ff fc3f 	bl	8006688 <prvAddCurrentTaskToDelayedList>
 8006e0a:	f7ff ff3b 	bl	8006c84 <xTaskResumeAll>
 8006e0e:	2800      	cmp	r0, #0
 8006e10:	d101      	bne.n	8006e16 <vTaskDelay+0x2a>
 8006e12:	f000 fa11 	bl	8007238 <vPortYield>
 8006e16:	bd10      	pop	{r4, pc}
 8006e18:	200000cc 	.word	0x200000cc

08006e1c <prvIdleTask>:
 8006e1c:	b5f0      	push	{r4, r5, r6, r7, lr}
 8006e1e:	4646      	mov	r6, r8
 8006e20:	46d6      	mov	lr, sl
 8006e22:	464f      	mov	r7, r9
 8006e24:	4b1a      	ldr	r3, [pc, #104]	; (8006e90 <prvIdleTask+0x74>)
 8006e26:	b5c0      	push	{r6, r7, lr}
 8006e28:	469a      	mov	sl, r3
 8006e2a:	4b1a      	ldr	r3, [pc, #104]	; (8006e94 <prvIdleTask+0x78>)
 8006e2c:	4c1a      	ldr	r4, [pc, #104]	; (8006e98 <prvIdleTask+0x7c>)
 8006e2e:	4e1b      	ldr	r6, [pc, #108]	; (8006e9c <prvIdleTask+0x80>)
 8006e30:	4d1b      	ldr	r5, [pc, #108]	; (8006ea0 <prvIdleTask+0x84>)
 8006e32:	4698      	mov	r8, r3
 8006e34:	e007      	b.n	8006e46 <prvIdleTask+0x2a>
 8006e36:	6823      	ldr	r3, [r4, #0]
 8006e38:	6837      	ldr	r7, [r6, #0]
 8006e3a:	3301      	adds	r3, #1
 8006e3c:	6023      	str	r3, [r4, #0]
 8006e3e:	f7ff ff21 	bl	8006c84 <xTaskResumeAll>
 8006e42:	2f00      	cmp	r7, #0
 8006e44:	d109      	bne.n	8006e5a <prvIdleTask+0x3e>
 8006e46:	682b      	ldr	r3, [r5, #0]
 8006e48:	2b00      	cmp	r3, #0
 8006e4a:	d1f4      	bne.n	8006e36 <prvIdleTask+0x1a>
 8006e4c:	4643      	mov	r3, r8
 8006e4e:	681b      	ldr	r3, [r3, #0]
 8006e50:	2b01      	cmp	r3, #1
 8006e52:	d9f8      	bls.n	8006e46 <prvIdleTask+0x2a>
 8006e54:	f000 f9f0 	bl	8007238 <vPortYield>
 8006e58:	e7f5      	b.n	8006e46 <prvIdleTask+0x2a>
 8006e5a:	f000 f9f9 	bl	8007250 <vPortEnterCritical>
 8006e5e:	68f3      	ldr	r3, [r6, #12]
 8006e60:	68db      	ldr	r3, [r3, #12]
 8006e62:	1d18      	adds	r0, r3, #4
 8006e64:	4699      	mov	r9, r3
 8006e66:	f7ff fa05 	bl	8006274 <uxListRemove>
 8006e6a:	4653      	mov	r3, sl
 8006e6c:	4652      	mov	r2, sl
 8006e6e:	681b      	ldr	r3, [r3, #0]
 8006e70:	3b01      	subs	r3, #1
 8006e72:	6013      	str	r3, [r2, #0]
 8006e74:	682b      	ldr	r3, [r5, #0]
 8006e76:	3b01      	subs	r3, #1
 8006e78:	602b      	str	r3, [r5, #0]
 8006e7a:	f000 f9f5 	bl	8007268 <vPortExitCritical>
 8006e7e:	464b      	mov	r3, r9
 8006e80:	6b18      	ldr	r0, [r3, #48]	; 0x30
 8006e82:	f000 fb1d 	bl	80074c0 <vPortFree>
 8006e86:	4648      	mov	r0, r9
 8006e88:	f000 fb1a 	bl	80074c0 <vPortFree>
 8006e8c:	e7db      	b.n	8006e46 <prvIdleTask+0x2a>
 8006e8e:	46c0      	nop			; (mov r8, r8)
 8006e90:	200000c0 	.word	0x200000c0
 8006e94:	20000034 	.word	0x20000034
 8006e98:	200000cc 	.word	0x200000cc
 8006e9c:	20000138 	.word	0x20000138
 8006ea0:	200000c4 	.word	0x200000c4

08006ea4 <vTaskSwitchContext>:
 8006ea4:	4b35      	ldr	r3, [pc, #212]	; (8006f7c <vTaskSwitchContext+0xd8>)
 8006ea6:	b530      	push	{r4, r5, lr}
 8006ea8:	681b      	ldr	r3, [r3, #0]
 8006eaa:	2b00      	cmp	r3, #0
 8006eac:	d14b      	bne.n	8006f46 <vTaskSwitchContext+0xa2>
 8006eae:	4a34      	ldr	r2, [pc, #208]	; (8006f80 <vTaskSwitchContext+0xdc>)
 8006eb0:	4c34      	ldr	r4, [pc, #208]	; (8006f84 <vTaskSwitchContext+0xe0>)
 8006eb2:	6013      	str	r3, [r2, #0]
 8006eb4:	6822      	ldr	r2, [r4, #0]
 8006eb6:	4934      	ldr	r1, [pc, #208]	; (8006f88 <vTaskSwitchContext+0xe4>)
 8006eb8:	0093      	lsls	r3, r2, #2
 8006eba:	1898      	adds	r0, r3, r2
 8006ebc:	0080      	lsls	r0, r0, #2
 8006ebe:	5808      	ldr	r0, [r1, r0]
 8006ec0:	2800      	cmp	r0, #0
 8006ec2:	d146      	bne.n	8006f52 <vTaskSwitchContext+0xae>
 8006ec4:	2a00      	cmp	r2, #0
 8006ec6:	d03c      	beq.n	8006f42 <vTaskSwitchContext+0x9e>
 8006ec8:	1e53      	subs	r3, r2, #1
 8006eca:	0098      	lsls	r0, r3, #2
 8006ecc:	18c0      	adds	r0, r0, r3
 8006ece:	0080      	lsls	r0, r0, #2
 8006ed0:	5808      	ldr	r0, [r1, r0]
 8006ed2:	2800      	cmp	r0, #0
 8006ed4:	d13b      	bne.n	8006f4e <vTaskSwitchContext+0xaa>
 8006ed6:	2b00      	cmp	r3, #0
 8006ed8:	d033      	beq.n	8006f42 <vTaskSwitchContext+0x9e>
 8006eda:	1e93      	subs	r3, r2, #2
 8006edc:	0098      	lsls	r0, r3, #2
 8006ede:	18c0      	adds	r0, r0, r3
 8006ee0:	0080      	lsls	r0, r0, #2
 8006ee2:	5808      	ldr	r0, [r1, r0]
 8006ee4:	2800      	cmp	r0, #0
 8006ee6:	d132      	bne.n	8006f4e <vTaskSwitchContext+0xaa>
 8006ee8:	2b00      	cmp	r3, #0
 8006eea:	d02a      	beq.n	8006f42 <vTaskSwitchContext+0x9e>
 8006eec:	1ed3      	subs	r3, r2, #3
 8006eee:	0098      	lsls	r0, r3, #2
 8006ef0:	18c0      	adds	r0, r0, r3
 8006ef2:	0080      	lsls	r0, r0, #2
 8006ef4:	5808      	ldr	r0, [r1, r0]
 8006ef6:	2800      	cmp	r0, #0
 8006ef8:	d129      	bne.n	8006f4e <vTaskSwitchContext+0xaa>
 8006efa:	2b00      	cmp	r3, #0
 8006efc:	d021      	beq.n	8006f42 <vTaskSwitchContext+0x9e>
 8006efe:	1f13      	subs	r3, r2, #4
 8006f00:	0098      	lsls	r0, r3, #2
 8006f02:	18c0      	adds	r0, r0, r3
 8006f04:	0080      	lsls	r0, r0, #2
 8006f06:	5808      	ldr	r0, [r1, r0]
 8006f08:	2800      	cmp	r0, #0
 8006f0a:	d120      	bne.n	8006f4e <vTaskSwitchContext+0xaa>
 8006f0c:	2b00      	cmp	r3, #0
 8006f0e:	d018      	beq.n	8006f42 <vTaskSwitchContext+0x9e>
 8006f10:	1f53      	subs	r3, r2, #5
 8006f12:	0098      	lsls	r0, r3, #2
 8006f14:	18c0      	adds	r0, r0, r3
 8006f16:	0080      	lsls	r0, r0, #2
 8006f18:	5808      	ldr	r0, [r1, r0]
 8006f1a:	2800      	cmp	r0, #0
 8006f1c:	d117      	bne.n	8006f4e <vTaskSwitchContext+0xaa>
 8006f1e:	2b00      	cmp	r3, #0
 8006f20:	d00f      	beq.n	8006f42 <vTaskSwitchContext+0x9e>
 8006f22:	1f93      	subs	r3, r2, #6
 8006f24:	0098      	lsls	r0, r3, #2
 8006f26:	18c0      	adds	r0, r0, r3
 8006f28:	0080      	lsls	r0, r0, #2
 8006f2a:	5808      	ldr	r0, [r1, r0]
 8006f2c:	2800      	cmp	r0, #0
 8006f2e:	d10e      	bne.n	8006f4e <vTaskSwitchContext+0xaa>
 8006f30:	2b00      	cmp	r3, #0
 8006f32:	d006      	beq.n	8006f42 <vTaskSwitchContext+0x9e>
 8006f34:	1fd3      	subs	r3, r2, #7
 8006f36:	009a      	lsls	r2, r3, #2
 8006f38:	18d2      	adds	r2, r2, r3
 8006f3a:	0092      	lsls	r2, r2, #2
 8006f3c:	588a      	ldr	r2, [r1, r2]
 8006f3e:	2a00      	cmp	r2, #0
 8006f40:	d105      	bne.n	8006f4e <vTaskSwitchContext+0xaa>
 8006f42:	b672      	cpsid	i
 8006f44:	e7fe      	b.n	8006f44 <vTaskSwitchContext+0xa0>
 8006f46:	2201      	movs	r2, #1
 8006f48:	4b0d      	ldr	r3, [pc, #52]	; (8006f80 <vTaskSwitchContext+0xdc>)
 8006f4a:	601a      	str	r2, [r3, #0]
 8006f4c:	bd30      	pop	{r4, r5, pc}
 8006f4e:	001a      	movs	r2, r3
 8006f50:	009b      	lsls	r3, r3, #2
 8006f52:	189b      	adds	r3, r3, r2
 8006f54:	009b      	lsls	r3, r3, #2
 8006f56:	18cd      	adds	r5, r1, r3
 8006f58:	6868      	ldr	r0, [r5, #4]
 8006f5a:	3308      	adds	r3, #8
 8006f5c:	6840      	ldr	r0, [r0, #4]
 8006f5e:	18cb      	adds	r3, r1, r3
 8006f60:	6068      	str	r0, [r5, #4]
 8006f62:	4298      	cmp	r0, r3
 8006f64:	d004      	beq.n	8006f70 <vTaskSwitchContext+0xcc>
 8006f66:	68c1      	ldr	r1, [r0, #12]
 8006f68:	4b08      	ldr	r3, [pc, #32]	; (8006f8c <vTaskSwitchContext+0xe8>)
 8006f6a:	6019      	str	r1, [r3, #0]
 8006f6c:	6022      	str	r2, [r4, #0]
 8006f6e:	e7ed      	b.n	8006f4c <vTaskSwitchContext+0xa8>
 8006f70:	2314      	movs	r3, #20
 8006f72:	4353      	muls	r3, r2
 8006f74:	6840      	ldr	r0, [r0, #4]
 8006f76:	18c9      	adds	r1, r1, r3
 8006f78:	6048      	str	r0, [r1, #4]
 8006f7a:	e7f4      	b.n	8006f66 <vTaskSwitchContext+0xc2>
 8006f7c:	200000cc 	.word	0x200000cc
 8006f80:	20000150 	.word	0x20000150
 8006f84:	200000d4 	.word	0x200000d4
 8006f88:	20000034 	.word	0x20000034
 8006f8c:	20000028 	.word	0x20000028

08006f90 <vTaskPlaceOnEventList>:
 8006f90:	b570      	push	{r4, r5, r6, lr}
 8006f92:	000c      	movs	r4, r1
 8006f94:	2800      	cmp	r0, #0
 8006f96:	d101      	bne.n	8006f9c <vTaskPlaceOnEventList+0xc>
 8006f98:	b672      	cpsid	i
 8006f9a:	e7fe      	b.n	8006f9a <vTaskPlaceOnEventList+0xa>
 8006f9c:	4e15      	ldr	r6, [pc, #84]	; (8006ff4 <vTaskPlaceOnEventList+0x64>)
 8006f9e:	6831      	ldr	r1, [r6, #0]
 8006fa0:	3118      	adds	r1, #24
 8006fa2:	f7ff f94f 	bl	8006244 <vListInsert>
 8006fa6:	4b14      	ldr	r3, [pc, #80]	; (8006ff8 <vTaskPlaceOnEventList+0x68>)
 8006fa8:	681d      	ldr	r5, [r3, #0]
 8006faa:	6830      	ldr	r0, [r6, #0]
 8006fac:	3004      	adds	r0, #4
 8006fae:	f7ff f961 	bl	8006274 <uxListRemove>
 8006fb2:	1c63      	adds	r3, r4, #1
 8006fb4:	d010      	beq.n	8006fd8 <vTaskPlaceOnEventList+0x48>
 8006fb6:	6833      	ldr	r3, [r6, #0]
 8006fb8:	1964      	adds	r4, r4, r5
 8006fba:	605c      	str	r4, [r3, #4]
 8006fbc:	42a5      	cmp	r5, r4
 8006fbe:	d811      	bhi.n	8006fe4 <vTaskPlaceOnEventList+0x54>
 8006fc0:	4b0e      	ldr	r3, [pc, #56]	; (8006ffc <vTaskPlaceOnEventList+0x6c>)
 8006fc2:	6818      	ldr	r0, [r3, #0]
 8006fc4:	6831      	ldr	r1, [r6, #0]
 8006fc6:	3104      	adds	r1, #4
 8006fc8:	f7ff f93c 	bl	8006244 <vListInsert>
 8006fcc:	4b0c      	ldr	r3, [pc, #48]	; (8007000 <vTaskPlaceOnEventList+0x70>)
 8006fce:	681a      	ldr	r2, [r3, #0]
 8006fd0:	4294      	cmp	r4, r2
 8006fd2:	d200      	bcs.n	8006fd6 <vTaskPlaceOnEventList+0x46>
 8006fd4:	601c      	str	r4, [r3, #0]
 8006fd6:	bd70      	pop	{r4, r5, r6, pc}
 8006fd8:	6831      	ldr	r1, [r6, #0]
 8006fda:	480a      	ldr	r0, [pc, #40]	; (8007004 <vTaskPlaceOnEventList+0x74>)
 8006fdc:	3104      	adds	r1, #4
 8006fde:	f7ff f925 	bl	800622c <vListInsertEnd>
 8006fe2:	e7f8      	b.n	8006fd6 <vTaskPlaceOnEventList+0x46>
 8006fe4:	4b08      	ldr	r3, [pc, #32]	; (8007008 <vTaskPlaceOnEventList+0x78>)
 8006fe6:	6818      	ldr	r0, [r3, #0]
 8006fe8:	6831      	ldr	r1, [r6, #0]
 8006fea:	3104      	adds	r1, #4
 8006fec:	f7ff f92a 	bl	8006244 <vListInsert>
 8006ff0:	e7f1      	b.n	8006fd6 <vTaskPlaceOnEventList+0x46>
 8006ff2:	46c0      	nop			; (mov r8, r8)
 8006ff4:	20000028 	.word	0x20000028
 8006ff8:	2000014c 	.word	0x2000014c
 8006ffc:	2000002c 	.word	0x2000002c
 8007000:	20000104 	.word	0x20000104
 8007004:	20000124 	.word	0x20000124
 8007008:	20000030 	.word	0x20000030

0800700c <xTaskRemoveFromEventList>:
 800700c:	68c3      	ldr	r3, [r0, #12]
 800700e:	b570      	push	{r4, r5, r6, lr}
 8007010:	68dc      	ldr	r4, [r3, #12]
 8007012:	2c00      	cmp	r4, #0
 8007014:	d026      	beq.n	8007064 <xTaskRemoveFromEventList+0x58>
 8007016:	0025      	movs	r5, r4
 8007018:	3518      	adds	r5, #24
 800701a:	0028      	movs	r0, r5
 800701c:	f7ff f92a 	bl	8006274 <uxListRemove>
 8007020:	4b14      	ldr	r3, [pc, #80]	; (8007074 <xTaskRemoveFromEventList+0x68>)
 8007022:	681b      	ldr	r3, [r3, #0]
 8007024:	2b00      	cmp	r3, #0
 8007026:	d11f      	bne.n	8007068 <xTaskRemoveFromEventList+0x5c>
 8007028:	1d25      	adds	r5, r4, #4
 800702a:	0028      	movs	r0, r5
 800702c:	f7ff f922 	bl	8006274 <uxListRemove>
 8007030:	4a11      	ldr	r2, [pc, #68]	; (8007078 <xTaskRemoveFromEventList+0x6c>)
 8007032:	6ae3      	ldr	r3, [r4, #44]	; 0x2c
 8007034:	6811      	ldr	r1, [r2, #0]
 8007036:	428b      	cmp	r3, r1
 8007038:	d900      	bls.n	800703c <xTaskRemoveFromEventList+0x30>
 800703a:	6013      	str	r3, [r2, #0]
 800703c:	0098      	lsls	r0, r3, #2
 800703e:	18c0      	adds	r0, r0, r3
 8007040:	4b0e      	ldr	r3, [pc, #56]	; (800707c <xTaskRemoveFromEventList+0x70>)
 8007042:	0080      	lsls	r0, r0, #2
 8007044:	18c0      	adds	r0, r0, r3
 8007046:	0029      	movs	r1, r5
 8007048:	f7ff f8f0 	bl	800622c <vListInsertEnd>
 800704c:	4b0c      	ldr	r3, [pc, #48]	; (8007080 <xTaskRemoveFromEventList+0x74>)
 800704e:	6ae2      	ldr	r2, [r4, #44]	; 0x2c
 8007050:	681b      	ldr	r3, [r3, #0]
 8007052:	2000      	movs	r0, #0
 8007054:	6adb      	ldr	r3, [r3, #44]	; 0x2c
 8007056:	429a      	cmp	r2, r3
 8007058:	d903      	bls.n	8007062 <xTaskRemoveFromEventList+0x56>
 800705a:	2201      	movs	r2, #1
 800705c:	4b09      	ldr	r3, [pc, #36]	; (8007084 <xTaskRemoveFromEventList+0x78>)
 800705e:	3001      	adds	r0, #1
 8007060:	601a      	str	r2, [r3, #0]
 8007062:	bd70      	pop	{r4, r5, r6, pc}
 8007064:	b672      	cpsid	i
 8007066:	e7fe      	b.n	8007066 <xTaskRemoveFromEventList+0x5a>
 8007068:	0029      	movs	r1, r5
 800706a:	4807      	ldr	r0, [pc, #28]	; (8007088 <xTaskRemoveFromEventList+0x7c>)
 800706c:	f7ff f8de 	bl	800622c <vListInsertEnd>
 8007070:	e7ec      	b.n	800704c <xTaskRemoveFromEventList+0x40>
 8007072:	46c0      	nop			; (mov r8, r8)
 8007074:	200000cc 	.word	0x200000cc
 8007078:	200000d4 	.word	0x200000d4
 800707c:	20000034 	.word	0x20000034
 8007080:	20000028 	.word	0x20000028
 8007084:	20000150 	.word	0x20000150
 8007088:	2000010c 	.word	0x2000010c

0800708c <vTaskSetTimeOutState>:
 800708c:	2800      	cmp	r0, #0
 800708e:	d006      	beq.n	800709e <vTaskSetTimeOutState+0x12>
 8007090:	4b04      	ldr	r3, [pc, #16]	; (80070a4 <vTaskSetTimeOutState+0x18>)
 8007092:	681b      	ldr	r3, [r3, #0]
 8007094:	6003      	str	r3, [r0, #0]
 8007096:	4b04      	ldr	r3, [pc, #16]	; (80070a8 <vTaskSetTimeOutState+0x1c>)
 8007098:	681b      	ldr	r3, [r3, #0]
 800709a:	6043      	str	r3, [r0, #4]
 800709c:	4770      	bx	lr
 800709e:	b672      	cpsid	i
 80070a0:	e7fe      	b.n	80070a0 <vTaskSetTimeOutState+0x14>
 80070a2:	46c0      	nop			; (mov r8, r8)
 80070a4:	20000108 	.word	0x20000108
 80070a8:	2000014c 	.word	0x2000014c

080070ac <xTaskCheckForTimeOut>:
 80070ac:	b5f8      	push	{r3, r4, r5, r6, r7, lr}
 80070ae:	0004      	movs	r4, r0
 80070b0:	000e      	movs	r6, r1
 80070b2:	2800      	cmp	r0, #0
 80070b4:	d025      	beq.n	8007102 <xTaskCheckForTimeOut+0x56>
 80070b6:	2900      	cmp	r1, #0
 80070b8:	d021      	beq.n	80070fe <xTaskCheckForTimeOut+0x52>
 80070ba:	f000 f8c9 	bl	8007250 <vPortEnterCritical>
 80070be:	4f13      	ldr	r7, [pc, #76]	; (800710c <xTaskCheckForTimeOut+0x60>)
 80070c0:	6833      	ldr	r3, [r6, #0]
 80070c2:	6839      	ldr	r1, [r7, #0]
 80070c4:	1c5a      	adds	r2, r3, #1
 80070c6:	d01e      	beq.n	8007106 <xTaskCheckForTimeOut+0x5a>
 80070c8:	4a11      	ldr	r2, [pc, #68]	; (8007110 <xTaskCheckForTimeOut+0x64>)
 80070ca:	6825      	ldr	r5, [r4, #0]
 80070cc:	6810      	ldr	r0, [r2, #0]
 80070ce:	4694      	mov	ip, r2
 80070d0:	6862      	ldr	r2, [r4, #4]
 80070d2:	4285      	cmp	r5, r0
 80070d4:	d002      	beq.n	80070dc <xTaskCheckForTimeOut+0x30>
 80070d6:	2501      	movs	r5, #1
 80070d8:	4291      	cmp	r1, r2
 80070da:	d20c      	bcs.n	80070f6 <xTaskCheckForTimeOut+0x4a>
 80070dc:	1a88      	subs	r0, r1, r2
 80070de:	2501      	movs	r5, #1
 80070e0:	4283      	cmp	r3, r0
 80070e2:	d908      	bls.n	80070f6 <xTaskCheckForTimeOut+0x4a>
 80070e4:	1a5b      	subs	r3, r3, r1
 80070e6:	189b      	adds	r3, r3, r2
 80070e8:	6033      	str	r3, [r6, #0]
 80070ea:	4663      	mov	r3, ip
 80070ec:	2500      	movs	r5, #0
 80070ee:	681b      	ldr	r3, [r3, #0]
 80070f0:	6023      	str	r3, [r4, #0]
 80070f2:	683b      	ldr	r3, [r7, #0]
 80070f4:	6063      	str	r3, [r4, #4]
 80070f6:	f000 f8b7 	bl	8007268 <vPortExitCritical>
 80070fa:	0028      	movs	r0, r5
 80070fc:	bdf8      	pop	{r3, r4, r5, r6, r7, pc}
 80070fe:	b672      	cpsid	i
 8007100:	e7fe      	b.n	8007100 <xTaskCheckForTimeOut+0x54>
 8007102:	b672      	cpsid	i
 8007104:	e7fe      	b.n	8007104 <xTaskCheckForTimeOut+0x58>
 8007106:	2500      	movs	r5, #0
 8007108:	e7f5      	b.n	80070f6 <xTaskCheckForTimeOut+0x4a>
 800710a:	46c0      	nop			; (mov r8, r8)
 800710c:	2000014c 	.word	0x2000014c
 8007110:	20000108 	.word	0x20000108

08007114 <vTaskMissedYield>:
 8007114:	2201      	movs	r2, #1
 8007116:	4b01      	ldr	r3, [pc, #4]	; (800711c <vTaskMissedYield+0x8>)
 8007118:	601a      	str	r2, [r3, #0]
 800711a:	4770      	bx	lr
 800711c:	20000150 	.word	0x20000150

08007120 <xTaskGetSchedulerState>:
 8007120:	4b05      	ldr	r3, [pc, #20]	; (8007138 <xTaskGetSchedulerState+0x18>)
 8007122:	2001      	movs	r0, #1
 8007124:	681b      	ldr	r3, [r3, #0]
 8007126:	2b00      	cmp	r3, #0
 8007128:	d004      	beq.n	8007134 <xTaskGetSchedulerState+0x14>
 800712a:	4b04      	ldr	r3, [pc, #16]	; (800713c <xTaskGetSchedulerState+0x1c>)
 800712c:	6818      	ldr	r0, [r3, #0]
 800712e:	4243      	negs	r3, r0
 8007130:	4158      	adcs	r0, r3
 8007132:	0040      	lsls	r0, r0, #1
 8007134:	4770      	bx	lr
 8007136:	46c0      	nop			; (mov r8, r8)
 8007138:	20000120 	.word	0x20000120
 800713c:	200000cc 	.word	0x200000cc

08007140 <vTaskPriorityInherit>:
 8007140:	b5f8      	push	{r3, r4, r5, r6, r7, lr}
 8007142:	1e04      	subs	r4, r0, #0
 8007144:	d018      	beq.n	8007178 <vTaskPriorityInherit+0x38>
 8007146:	4d17      	ldr	r5, [pc, #92]	; (80071a4 <vTaskPriorityInherit+0x64>)
 8007148:	6ac2      	ldr	r2, [r0, #44]	; 0x2c
 800714a:	682b      	ldr	r3, [r5, #0]
 800714c:	6adb      	ldr	r3, [r3, #44]	; 0x2c
 800714e:	429a      	cmp	r2, r3
 8007150:	d212      	bcs.n	8007178 <vTaskPriorityInherit+0x38>
 8007152:	6983      	ldr	r3, [r0, #24]
 8007154:	2b00      	cmp	r3, #0
 8007156:	db04      	blt.n	8007162 <vTaskPriorityInherit+0x22>
 8007158:	682b      	ldr	r3, [r5, #0]
 800715a:	6ad9      	ldr	r1, [r3, #44]	; 0x2c
 800715c:	2307      	movs	r3, #7
 800715e:	1a5b      	subs	r3, r3, r1
 8007160:	6183      	str	r3, [r0, #24]
 8007162:	0093      	lsls	r3, r2, #2
 8007164:	189b      	adds	r3, r3, r2
 8007166:	4e10      	ldr	r6, [pc, #64]	; (80071a8 <vTaskPriorityInherit+0x68>)
 8007168:	009b      	lsls	r3, r3, #2
 800716a:	6962      	ldr	r2, [r4, #20]
 800716c:	18f3      	adds	r3, r6, r3
 800716e:	429a      	cmp	r2, r3
 8007170:	d003      	beq.n	800717a <vTaskPriorityInherit+0x3a>
 8007172:	682b      	ldr	r3, [r5, #0]
 8007174:	6adb      	ldr	r3, [r3, #44]	; 0x2c
 8007176:	62e3      	str	r3, [r4, #44]	; 0x2c
 8007178:	bdf8      	pop	{r3, r4, r5, r6, r7, pc}
 800717a:	1d27      	adds	r7, r4, #4
 800717c:	0038      	movs	r0, r7
 800717e:	f7ff f879 	bl	8006274 <uxListRemove>
 8007182:	682b      	ldr	r3, [r5, #0]
 8007184:	4a09      	ldr	r2, [pc, #36]	; (80071ac <vTaskPriorityInherit+0x6c>)
 8007186:	6adb      	ldr	r3, [r3, #44]	; 0x2c
 8007188:	6811      	ldr	r1, [r2, #0]
 800718a:	62e3      	str	r3, [r4, #44]	; 0x2c
 800718c:	428b      	cmp	r3, r1
 800718e:	d900      	bls.n	8007192 <vTaskPriorityInherit+0x52>
 8007190:	6013      	str	r3, [r2, #0]
 8007192:	0098      	lsls	r0, r3, #2
 8007194:	18c0      	adds	r0, r0, r3
 8007196:	0080      	lsls	r0, r0, #2
 8007198:	1830      	adds	r0, r6, r0
 800719a:	0039      	movs	r1, r7
 800719c:	f7ff f846 	bl	800622c <vListInsertEnd>
 80071a0:	e7ea      	b.n	8007178 <vTaskPriorityInherit+0x38>
 80071a2:	46c0      	nop			; (mov r8, r8)
 80071a4:	20000028 	.word	0x20000028
 80071a8:	20000034 	.word	0x20000034
 80071ac:	200000d4 	.word	0x200000d4

080071b0 <pvTaskIncrementMutexHeldCount>:
 80071b0:	4b04      	ldr	r3, [pc, #16]	; (80071c4 <pvTaskIncrementMutexHeldCount+0x14>)
 80071b2:	681a      	ldr	r2, [r3, #0]
 80071b4:	2a00      	cmp	r2, #0
 80071b6:	d003      	beq.n	80071c0 <pvTaskIncrementMutexHeldCount+0x10>
 80071b8:	6819      	ldr	r1, [r3, #0]
 80071ba:	6c8a      	ldr	r2, [r1, #72]	; 0x48
 80071bc:	3201      	adds	r2, #1
 80071be:	648a      	str	r2, [r1, #72]	; 0x48
 80071c0:	6818      	ldr	r0, [r3, #0]
 80071c2:	4770      	bx	lr
 80071c4:	20000028 	.word	0x20000028

080071c8 <prvTaskExitError>:
 80071c8:	4b03      	ldr	r3, [pc, #12]	; (80071d8 <prvTaskExitError+0x10>)
 80071ca:	681b      	ldr	r3, [r3, #0]
 80071cc:	3301      	adds	r3, #1
 80071ce:	d001      	beq.n	80071d4 <prvTaskExitError+0xc>
 80071d0:	b672      	cpsid	i
 80071d2:	e7fe      	b.n	80071d2 <prvTaskExitError+0xa>
 80071d4:	b672      	cpsid	i
 80071d6:	e7fe      	b.n	80071d6 <prvTaskExitError+0xe>
 80071d8:	20000008 	.word	0x20000008
 80071dc:	00000000 	.word	0x00000000

080071e0 <vPortStartFirstTask>:
 80071e0:	4a0b      	ldr	r2, [pc, #44]	; (8007210 <pxCurrentTCBConst2>)
 80071e2:	6813      	ldr	r3, [r2, #0]
 80071e4:	6818      	ldr	r0, [r3, #0]
 80071e6:	3020      	adds	r0, #32
 80071e8:	f380 8809 	msr	PSP, r0
 80071ec:	2002      	movs	r0, #2
 80071ee:	f380 8814 	msr	CONTROL, r0
 80071f2:	f3bf 8f6f 	isb	sy
 80071f6:	bc3f      	pop	{r0, r1, r2, r3, r4, r5}
 80071f8:	46ae      	mov	lr, r5
 80071fa:	bc08      	pop	{r3}
 80071fc:	bc04      	pop	{r2}
 80071fe:	b662      	cpsie	i
 8007200:	4718      	bx	r3
 8007202:	46c0      	nop			; (mov r8, r8)
 8007204:	46c0      	nop			; (mov r8, r8)
 8007206:	46c0      	nop			; (mov r8, r8)
 8007208:	46c0      	nop			; (mov r8, r8)
 800720a:	46c0      	nop			; (mov r8, r8)
 800720c:	46c0      	nop			; (mov r8, r8)
 800720e:	46c0      	nop			; (mov r8, r8)

08007210 <pxCurrentTCBConst2>:
 8007210:	20000028 	.word	0x20000028

08007214 <pxPortInitialiseStack>:
 8007214:	b510      	push	{r4, lr}
 8007216:	2480      	movs	r4, #128	; 0x80
 8007218:	1f03      	subs	r3, r0, #4
 800721a:	0464      	lsls	r4, r4, #17
 800721c:	601c      	str	r4, [r3, #0]
 800721e:	3b04      	subs	r3, #4
 8007220:	6019      	str	r1, [r3, #0]
 8007222:	4903      	ldr	r1, [pc, #12]	; (8007230 <pxPortInitialiseStack+0x1c>)
 8007224:	3b04      	subs	r3, #4
 8007226:	6019      	str	r1, [r3, #0]
 8007228:	3b14      	subs	r3, #20
 800722a:	3840      	subs	r0, #64	; 0x40
 800722c:	601a      	str	r2, [r3, #0]
 800722e:	bd10      	pop	{r4, pc}
 8007230:	080071c9 	.word	0x080071c9

08007234 <SVC_Handler>:
 8007234:	4770      	bx	lr
 8007236:	46c0      	nop			; (mov r8, r8)

08007238 <vPortYield>:
 8007238:	2280      	movs	r2, #128	; 0x80
 800723a:	4b04      	ldr	r3, [pc, #16]	; (800724c <vPortYield+0x14>)
 800723c:	0552      	lsls	r2, r2, #21
 800723e:	601a      	str	r2, [r3, #0]
 8007240:	f3bf 8f4f 	dsb	sy
 8007244:	f3bf 8f6f 	isb	sy
 8007248:	4770      	bx	lr
 800724a:	46c0      	nop			; (mov r8, r8)
 800724c:	e000ed04 	.word	0xe000ed04

08007250 <vPortEnterCritical>:
 8007250:	b672      	cpsid	i
 8007252:	4a04      	ldr	r2, [pc, #16]	; (8007264 <vPortEnterCritical+0x14>)
 8007254:	6813      	ldr	r3, [r2, #0]
 8007256:	3301      	adds	r3, #1
 8007258:	6013      	str	r3, [r2, #0]
 800725a:	f3bf 8f4f 	dsb	sy
 800725e:	f3bf 8f6f 	isb	sy
 8007262:	4770      	bx	lr
 8007264:	20000008 	.word	0x20000008

08007268 <vPortExitCritical>:
 8007268:	4a05      	ldr	r2, [pc, #20]	; (8007280 <vPortExitCritical+0x18>)
 800726a:	6813      	ldr	r3, [r2, #0]
 800726c:	2b00      	cmp	r3, #0
 800726e:	d101      	bne.n	8007274 <vPortExitCritical+0xc>
 8007270:	b672      	cpsid	i
 8007272:	e7fe      	b.n	8007272 <vPortExitCritical+0xa>
 8007274:	3b01      	subs	r3, #1
 8007276:	6013      	str	r3, [r2, #0]
 8007278:	2b00      	cmp	r3, #0
 800727a:	d100      	bne.n	800727e <vPortExitCritical+0x16>
 800727c:	b662      	cpsie	i
 800727e:	4770      	bx	lr
 8007280:	20000008 	.word	0x20000008

08007284 <ulSetInterruptMaskFromISR>:
 8007284:	f3ef 8010 	mrs	r0, PRIMASK
 8007288:	b672      	cpsid	i
 800728a:	4770      	bx	lr
 800728c:	2000      	movs	r0, #0
 800728e:	46c0      	nop			; (mov r8, r8)

08007290 <vClearInterruptMaskFromISR>:
 8007290:	f380 8810 	msr	PRIMASK, r0
 8007294:	4770      	bx	lr
 8007296:	46c0      	nop			; (mov r8, r8)
	...

080072a0 <PendSV_Handler>:
 80072a0:	f3ef 8009 	mrs	r0, PSP
 80072a4:	4b0e      	ldr	r3, [pc, #56]	; (80072e0 <pxCurrentTCBConst>)
 80072a6:	681a      	ldr	r2, [r3, #0]
 80072a8:	3820      	subs	r0, #32
 80072aa:	6010      	str	r0, [r2, #0]
 80072ac:	c0f0      	stmia	r0!, {r4, r5, r6, r7}
 80072ae:	4644      	mov	r4, r8
 80072b0:	464d      	mov	r5, r9
 80072b2:	4656      	mov	r6, sl
 80072b4:	465f      	mov	r7, fp
 80072b6:	c0f0      	stmia	r0!, {r4, r5, r6, r7}
 80072b8:	b508      	push	{r3, lr}
 80072ba:	b672      	cpsid	i
 80072bc:	f7ff fdf2 	bl	8006ea4 <vTaskSwitchContext>
 80072c0:	b662      	cpsie	i
 80072c2:	bc0c      	pop	{r2, r3}
 80072c4:	6811      	ldr	r1, [r2, #0]
 80072c6:	6808      	ldr	r0, [r1, #0]
 80072c8:	3010      	adds	r0, #16
 80072ca:	c8f0      	ldmia	r0!, {r4, r5, r6, r7}
 80072cc:	46a0      	mov	r8, r4
 80072ce:	46a9      	mov	r9, r5
 80072d0:	46b2      	mov	sl, r6
 80072d2:	46bb      	mov	fp, r7
 80072d4:	f380 8809 	msr	PSP, r0
 80072d8:	3820      	subs	r0, #32
 80072da:	c8f0      	ldmia	r0!, {r4, r5, r6, r7}
 80072dc:	4718      	bx	r3
 80072de:	46c0      	nop			; (mov r8, r8)

080072e0 <pxCurrentTCBConst>:
 80072e0:	20000028 	.word	0x20000028

080072e4 <SysTick_Handler>:
 80072e4:	b510      	push	{r4, lr}
 80072e6:	f7ff ffcd 	bl	8007284 <ulSetInterruptMaskFromISR>
 80072ea:	0004      	movs	r4, r0
 80072ec:	f7ff fc1c 	bl	8006b28 <xTaskIncrementTick>
 80072f0:	2800      	cmp	r0, #0
 80072f2:	d003      	beq.n	80072fc <SysTick_Handler+0x18>
 80072f4:	2280      	movs	r2, #128	; 0x80
 80072f6:	4b03      	ldr	r3, [pc, #12]	; (8007304 <SysTick_Handler+0x20>)
 80072f8:	0552      	lsls	r2, r2, #21
 80072fa:	601a      	str	r2, [r3, #0]
 80072fc:	0020      	movs	r0, r4
 80072fe:	f7ff ffc7 	bl	8007290 <vClearInterruptMaskFromISR>
 8007302:	bd10      	pop	{r4, pc}
 8007304:	e000ed04 	.word	0xe000ed04

08007308 <vPortSetupTimerInterrupt>:
 8007308:	21fa      	movs	r1, #250	; 0xfa
 800730a:	4b06      	ldr	r3, [pc, #24]	; (8007324 <vPortSetupTimerInterrupt+0x1c>)
 800730c:	b510      	push	{r4, lr}
 800730e:	6818      	ldr	r0, [r3, #0]
 8007310:	0089      	lsls	r1, r1, #2
 8007312:	f7f8 ff01 	bl	8000118 <__udivsi3>
 8007316:	2207      	movs	r2, #7
 8007318:	4b03      	ldr	r3, [pc, #12]	; (8007328 <vPortSetupTimerInterrupt+0x20>)
 800731a:	3801      	subs	r0, #1
 800731c:	6018      	str	r0, [r3, #0]
 800731e:	4b03      	ldr	r3, [pc, #12]	; (800732c <vPortSetupTimerInterrupt+0x24>)
 8007320:	601a      	str	r2, [r3, #0]
 8007322:	bd10      	pop	{r4, pc}
 8007324:	20000004 	.word	0x20000004
 8007328:	e000e014 	.word	0xe000e014
 800732c:	e000e010 	.word	0xe000e010

08007330 <xPortStartScheduler>:
 8007330:	22ff      	movs	r2, #255	; 0xff
 8007332:	4b0a      	ldr	r3, [pc, #40]	; (800735c <xPortStartScheduler+0x2c>)
 8007334:	0412      	lsls	r2, r2, #16
 8007336:	6819      	ldr	r1, [r3, #0]
 8007338:	b510      	push	{r4, lr}
 800733a:	430a      	orrs	r2, r1
 800733c:	601a      	str	r2, [r3, #0]
 800733e:	22ff      	movs	r2, #255	; 0xff
 8007340:	6819      	ldr	r1, [r3, #0]
 8007342:	0612      	lsls	r2, r2, #24
 8007344:	430a      	orrs	r2, r1
 8007346:	601a      	str	r2, [r3, #0]
 8007348:	f7ff ffde 	bl	8007308 <vPortSetupTimerInterrupt>
 800734c:	2200      	movs	r2, #0
 800734e:	4b04      	ldr	r3, [pc, #16]	; (8007360 <xPortStartScheduler+0x30>)
 8007350:	601a      	str	r2, [r3, #0]
 8007352:	f7ff ff45 	bl	80071e0 <vPortStartFirstTask>
 8007356:	f7ff ff37 	bl	80071c8 <prvTaskExitError>
 800735a:	46c0      	nop			; (mov r8, r8)
 800735c:	e000ed20 	.word	0xe000ed20
 8007360:	20000008 	.word	0x20000008

08007364 <prvInsertBlockIntoFreeList>:
 8007364:	b510      	push	{r4, lr}
 8007366:	4b11      	ldr	r3, [pc, #68]	; (80073ac <prvInsertBlockIntoFreeList+0x48>)
 8007368:	681a      	ldr	r2, [r3, #0]
 800736a:	4282      	cmp	r2, r0
 800736c:	d201      	bcs.n	8007372 <prvInsertBlockIntoFreeList+0xe>
 800736e:	0013      	movs	r3, r2
 8007370:	e7fa      	b.n	8007368 <prvInsertBlockIntoFreeList+0x4>
 8007372:	685c      	ldr	r4, [r3, #4]
 8007374:	1919      	adds	r1, r3, r4
 8007376:	4288      	cmp	r0, r1
 8007378:	d103      	bne.n	8007382 <prvInsertBlockIntoFreeList+0x1e>
 800737a:	6841      	ldr	r1, [r0, #4]
 800737c:	0018      	movs	r0, r3
 800737e:	1909      	adds	r1, r1, r4
 8007380:	6059      	str	r1, [r3, #4]
 8007382:	6841      	ldr	r1, [r0, #4]
 8007384:	1844      	adds	r4, r0, r1
 8007386:	42a2      	cmp	r2, r4
 8007388:	d10a      	bne.n	80073a0 <prvInsertBlockIntoFreeList+0x3c>
 800738a:	4c09      	ldr	r4, [pc, #36]	; (80073b0 <prvInsertBlockIntoFreeList+0x4c>)
 800738c:	6824      	ldr	r4, [r4, #0]
 800738e:	42a2      	cmp	r2, r4
 8007390:	d006      	beq.n	80073a0 <prvInsertBlockIntoFreeList+0x3c>
 8007392:	6854      	ldr	r4, [r2, #4]
 8007394:	6812      	ldr	r2, [r2, #0]
 8007396:	46a4      	mov	ip, r4
 8007398:	4461      	add	r1, ip
 800739a:	6041      	str	r1, [r0, #4]
 800739c:	6002      	str	r2, [r0, #0]
 800739e:	e000      	b.n	80073a2 <prvInsertBlockIntoFreeList+0x3e>
 80073a0:	6002      	str	r2, [r0, #0]
 80073a2:	4298      	cmp	r0, r3
 80073a4:	d000      	beq.n	80073a8 <prvInsertBlockIntoFreeList+0x44>
 80073a6:	6018      	str	r0, [r3, #0]
 80073a8:	bd10      	pop	{r4, pc}
 80073aa:	46c0      	nop			; (mov r8, r8)
 80073ac:	20000d64 	.word	0x20000d64
 80073b0:	20000154 	.word	0x20000154

080073b4 <pvPortMalloc>:
 80073b4:	b5f0      	push	{r4, r5, r6, r7, lr}
 80073b6:	46c6      	mov	lr, r8
 80073b8:	b500      	push	{lr}
 80073ba:	0004      	movs	r4, r0
 80073bc:	f7ff fba6 	bl	8006b0c <vTaskSuspendAll>
 80073c0:	4d38      	ldr	r5, [pc, #224]	; (80074a4 <pvPortMalloc+0xf0>)
 80073c2:	682b      	ldr	r3, [r5, #0]
 80073c4:	2b00      	cmp	r3, #0
 80073c6:	d04b      	beq.n	8007460 <pvPortMalloc+0xac>
 80073c8:	4a37      	ldr	r2, [pc, #220]	; (80074a8 <pvPortMalloc+0xf4>)
 80073ca:	6815      	ldr	r5, [r2, #0]
 80073cc:	4225      	tst	r5, r4
 80073ce:	d140      	bne.n	8007452 <pvPortMalloc+0x9e>
 80073d0:	2c00      	cmp	r4, #0
 80073d2:	d03e      	beq.n	8007452 <pvPortMalloc+0x9e>
 80073d4:	0022      	movs	r2, r4
 80073d6:	2107      	movs	r1, #7
 80073d8:	3208      	adds	r2, #8
 80073da:	4211      	tst	r1, r2
 80073dc:	d001      	beq.n	80073e2 <pvPortMalloc+0x2e>
 80073de:	438a      	bics	r2, r1
 80073e0:	3208      	adds	r2, #8
 80073e2:	2a00      	cmp	r2, #0
 80073e4:	d035      	beq.n	8007452 <pvPortMalloc+0x9e>
 80073e6:	4931      	ldr	r1, [pc, #196]	; (80074ac <pvPortMalloc+0xf8>)
 80073e8:	680e      	ldr	r6, [r1, #0]
 80073ea:	4688      	mov	r8, r1
 80073ec:	4296      	cmp	r6, r2
 80073ee:	d330      	bcc.n	8007452 <pvPortMalloc+0x9e>
 80073f0:	482f      	ldr	r0, [pc, #188]	; (80074b0 <pvPortMalloc+0xfc>)
 80073f2:	6804      	ldr	r4, [r0, #0]
 80073f4:	e005      	b.n	8007402 <pvPortMalloc+0x4e>
 80073f6:	6827      	ldr	r7, [r4, #0]
 80073f8:	46bc      	mov	ip, r7
 80073fa:	2f00      	cmp	r7, #0
 80073fc:	d004      	beq.n	8007408 <pvPortMalloc+0x54>
 80073fe:	0020      	movs	r0, r4
 8007400:	4664      	mov	r4, ip
 8007402:	6861      	ldr	r1, [r4, #4]
 8007404:	4291      	cmp	r1, r2
 8007406:	d3f6      	bcc.n	80073f6 <pvPortMalloc+0x42>
 8007408:	429c      	cmp	r4, r3
 800740a:	d022      	beq.n	8007452 <pvPortMalloc+0x9e>
 800740c:	6823      	ldr	r3, [r4, #0]
 800740e:	6003      	str	r3, [r0, #0]
 8007410:	1a8b      	subs	r3, r1, r2
 8007412:	2b10      	cmp	r3, #16
 8007414:	d909      	bls.n	800742a <pvPortMalloc+0x76>
 8007416:	18a0      	adds	r0, r4, r2
 8007418:	0741      	lsls	r1, r0, #29
 800741a:	d001      	beq.n	8007420 <pvPortMalloc+0x6c>
 800741c:	b672      	cpsid	i
 800741e:	e7fe      	b.n	800741e <pvPortMalloc+0x6a>
 8007420:	6043      	str	r3, [r0, #4]
 8007422:	6062      	str	r2, [r4, #4]
 8007424:	f7ff ff9e 	bl	8007364 <prvInsertBlockIntoFreeList>
 8007428:	6861      	ldr	r1, [r4, #4]
 800742a:	4643      	mov	r3, r8
 800742c:	4a21      	ldr	r2, [pc, #132]	; (80074b4 <pvPortMalloc+0x100>)
 800742e:	1a76      	subs	r6, r6, r1
 8007430:	601e      	str	r6, [r3, #0]
 8007432:	6813      	ldr	r3, [r2, #0]
 8007434:	429e      	cmp	r6, r3
 8007436:	d200      	bcs.n	800743a <pvPortMalloc+0x86>
 8007438:	6016      	str	r6, [r2, #0]
 800743a:	2300      	movs	r3, #0
 800743c:	0026      	movs	r6, r4
 800743e:	4329      	orrs	r1, r5
 8007440:	3608      	adds	r6, #8
 8007442:	6023      	str	r3, [r4, #0]
 8007444:	6061      	str	r1, [r4, #4]
 8007446:	f7ff fc1d 	bl	8006c84 <xTaskResumeAll>
 800744a:	0773      	lsls	r3, r6, #29
 800744c:	d004      	beq.n	8007458 <pvPortMalloc+0xa4>
 800744e:	b672      	cpsid	i
 8007450:	e7fe      	b.n	8007450 <pvPortMalloc+0x9c>
 8007452:	f7ff fc17 	bl	8006c84 <xTaskResumeAll>
 8007456:	2600      	movs	r6, #0
 8007458:	0030      	movs	r0, r6
 800745a:	bc04      	pop	{r2}
 800745c:	4690      	mov	r8, r2
 800745e:	bdf0      	pop	{r4, r5, r6, r7, pc}
 8007460:	2107      	movs	r1, #7
 8007462:	4b15      	ldr	r3, [pc, #84]	; (80074b8 <pvPortMalloc+0x104>)
 8007464:	4219      	tst	r1, r3
 8007466:	d003      	beq.n	8007470 <pvPortMalloc+0xbc>
 8007468:	185a      	adds	r2, r3, r1
 800746a:	438a      	bics	r2, r1
 800746c:	0011      	movs	r1, r2
 800746e:	e001      	b.n	8007474 <pvPortMalloc+0xc0>
 8007470:	001a      	movs	r2, r3
 8007472:	0019      	movs	r1, r3
 8007474:	2000      	movs	r0, #0
 8007476:	4e0e      	ldr	r6, [pc, #56]	; (80074b0 <pvPortMalloc+0xfc>)
 8007478:	6070      	str	r0, [r6, #4]
 800747a:	6031      	str	r1, [r6, #0]
 800747c:	4e0f      	ldr	r6, [pc, #60]	; (80074bc <pvPortMalloc+0x108>)
 800747e:	46b4      	mov	ip, r6
 8007480:	2607      	movs	r6, #7
 8007482:	4463      	add	r3, ip
 8007484:	43b3      	bics	r3, r6
 8007486:	602b      	str	r3, [r5, #0]
 8007488:	2580      	movs	r5, #128	; 0x80
 800748a:	1a9a      	subs	r2, r3, r2
 800748c:	6058      	str	r0, [r3, #4]
 800748e:	6018      	str	r0, [r3, #0]
 8007490:	600b      	str	r3, [r1, #0]
 8007492:	604a      	str	r2, [r1, #4]
 8007494:	4907      	ldr	r1, [pc, #28]	; (80074b4 <pvPortMalloc+0x100>)
 8007496:	062d      	lsls	r5, r5, #24
 8007498:	600a      	str	r2, [r1, #0]
 800749a:	4904      	ldr	r1, [pc, #16]	; (80074ac <pvPortMalloc+0xf8>)
 800749c:	600a      	str	r2, [r1, #0]
 800749e:	4a02      	ldr	r2, [pc, #8]	; (80074a8 <pvPortMalloc+0xf4>)
 80074a0:	6015      	str	r5, [r2, #0]
 80074a2:	e793      	b.n	80073cc <pvPortMalloc+0x18>
 80074a4:	20000154 	.word	0x20000154
 80074a8:	20000d58 	.word	0x20000d58
 80074ac:	20000d5c 	.word	0x20000d5c
 80074b0:	20000d64 	.word	0x20000d64
 80074b4:	20000d60 	.word	0x20000d60
 80074b8:	20000158 	.word	0x20000158
 80074bc:	00000bf8 	.word	0x00000bf8

080074c0 <vPortFree>:
 80074c0:	b510      	push	{r4, lr}
 80074c2:	2800      	cmp	r0, #0
 80074c4:	d01c      	beq.n	8007500 <vPortFree+0x40>
 80074c6:	4a0f      	ldr	r2, [pc, #60]	; (8007504 <vPortFree+0x44>)
 80074c8:	3808      	subs	r0, #8
 80074ca:	6843      	ldr	r3, [r0, #4]
 80074cc:	6812      	ldr	r2, [r2, #0]
 80074ce:	0004      	movs	r4, r0
 80074d0:	421a      	tst	r2, r3
 80074d2:	d101      	bne.n	80074d8 <vPortFree+0x18>
 80074d4:	b672      	cpsid	i
 80074d6:	e7fe      	b.n	80074d6 <vPortFree+0x16>
 80074d8:	6801      	ldr	r1, [r0, #0]
 80074da:	2900      	cmp	r1, #0
 80074dc:	d001      	beq.n	80074e2 <vPortFree+0x22>
 80074de:	b672      	cpsid	i
 80074e0:	e7fe      	b.n	80074e0 <vPortFree+0x20>
 80074e2:	4393      	bics	r3, r2
 80074e4:	6043      	str	r3, [r0, #4]
 80074e6:	f7ff fb11 	bl	8006b0c <vTaskSuspendAll>
 80074ea:	4a07      	ldr	r2, [pc, #28]	; (8007508 <vPortFree+0x48>)
 80074ec:	6863      	ldr	r3, [r4, #4]
 80074ee:	6811      	ldr	r1, [r2, #0]
 80074f0:	0020      	movs	r0, r4
 80074f2:	468c      	mov	ip, r1
 80074f4:	4463      	add	r3, ip
 80074f6:	6013      	str	r3, [r2, #0]
 80074f8:	f7ff ff34 	bl	8007364 <prvInsertBlockIntoFreeList>
 80074fc:	f7ff fbc2 	bl	8006c84 <xTaskResumeAll>
 8007500:	bd10      	pop	{r4, pc}
 8007502:	46c0      	nop			; (mov r8, r8)
 8007504:	20000d58 	.word	0x20000d58
 8007508:	20000d5c 	.word	0x20000d5c

0800750c <Reset_Handler>:
 800750c:	480d      	ldr	r0, [pc, #52]	; (8007544 <LoopForever+0x2>)
 800750e:	4685      	mov	sp, r0
 8007510:	480d      	ldr	r0, [pc, #52]	; (8007548 <LoopForever+0x6>)
 8007512:	490e      	ldr	r1, [pc, #56]	; (800754c <LoopForever+0xa>)
 8007514:	4a0e      	ldr	r2, [pc, #56]	; (8007550 <LoopForever+0xe>)
 8007516:	2300      	movs	r3, #0
 8007518:	e002      	b.n	8007520 <LoopCopyDataInit>

0800751a <CopyDataInit>:
 800751a:	58d4      	ldr	r4, [r2, r3]
 800751c:	50c4      	str	r4, [r0, r3]
 800751e:	3304      	adds	r3, #4

08007520 <LoopCopyDataInit>:
 8007520:	18c4      	adds	r4, r0, r3
 8007522:	428c      	cmp	r4, r1
 8007524:	d3f9      	bcc.n	800751a <CopyDataInit>
 8007526:	4a0b      	ldr	r2, [pc, #44]	; (8007554 <LoopForever+0x12>)
 8007528:	4c0b      	ldr	r4, [pc, #44]	; (8007558 <LoopForever+0x16>)
 800752a:	2300      	movs	r3, #0
 800752c:	e001      	b.n	8007532 <LoopFillZerobss>

0800752e <FillZerobss>:
 800752e:	6013      	str	r3, [r2, #0]
 8007530:	3204      	adds	r2, #4

08007532 <LoopFillZerobss>:
 8007532:	42a2      	cmp	r2, r4
 8007534:	d3fb      	bcc.n	800752e <FillZerobss>
 8007536:	f7fe fe39 	bl	80061ac <SystemInit>
 800753a:	f000 f811 	bl	8007560 <__libc_init_array>
 800753e:	f7fd ffcb 	bl	80054d8 <main>

08007542 <LoopForever>:
 8007542:	e7fe      	b.n	8007542 <LoopForever>
 8007544:	20002000 	.word	0x20002000
 8007548:	20000000 	.word	0x20000000
 800754c:	2000000c 	.word	0x2000000c
 8007550:	08007df8 	.word	0x08007df8
 8007554:	2000000c 	.word	0x2000000c
 8007558:	20001718 	.word	0x20001718

0800755c <ADC1_IRQHandler>:
 800755c:	e7fe      	b.n	800755c <ADC1_IRQHandler>
	...

08007560 <__libc_init_array>:
 8007560:	b570      	push	{r4, r5, r6, lr}
 8007562:	2600      	movs	r6, #0
 8007564:	4d0c      	ldr	r5, [pc, #48]	; (8007598 <__libc_init_array+0x38>)
 8007566:	4c0d      	ldr	r4, [pc, #52]	; (800759c <__libc_init_array+0x3c>)
 8007568:	1b64      	subs	r4, r4, r5
 800756a:	10a4      	asrs	r4, r4, #2
 800756c:	42a6      	cmp	r6, r4
 800756e:	d109      	bne.n	8007584 <__libc_init_array+0x24>
 8007570:	2600      	movs	r6, #0
 8007572:	f000 f833 	bl	80075dc <_init>
 8007576:	4d0a      	ldr	r5, [pc, #40]	; (80075a0 <__libc_init_array+0x40>)
 8007578:	4c0a      	ldr	r4, [pc, #40]	; (80075a4 <__libc_init_array+0x44>)
 800757a:	1b64      	subs	r4, r4, r5
 800757c:	10a4      	asrs	r4, r4, #2
 800757e:	42a6      	cmp	r6, r4
 8007580:	d105      	bne.n	800758e <__libc_init_array+0x2e>
 8007582:	bd70      	pop	{r4, r5, r6, pc}
 8007584:	00b3      	lsls	r3, r6, #2
 8007586:	58eb      	ldr	r3, [r5, r3]
 8007588:	4798      	blx	r3
 800758a:	3601      	adds	r6, #1
 800758c:	e7ee      	b.n	800756c <__libc_init_array+0xc>
 800758e:	00b3      	lsls	r3, r6, #2
 8007590:	58eb      	ldr	r3, [r5, r3]
 8007592:	4798      	blx	r3
 8007594:	3601      	adds	r6, #1
 8007596:	e7f2      	b.n	800757e <__libc_init_array+0x1e>
 8007598:	08007df0 	.word	0x08007df0
 800759c:	08007df0 	.word	0x08007df0
 80075a0:	08007df0 	.word	0x08007df0
 80075a4:	08007df4 	.word	0x08007df4

080075a8 <memcpy>:
 80075a8:	2300      	movs	r3, #0
 80075aa:	b510      	push	{r4, lr}
 80075ac:	429a      	cmp	r2, r3
 80075ae:	d100      	bne.n	80075b2 <memcpy+0xa>
 80075b0:	bd10      	pop	{r4, pc}
 80075b2:	5ccc      	ldrb	r4, [r1, r3]
 80075b4:	54c4      	strb	r4, [r0, r3]
 80075b6:	3301      	adds	r3, #1
 80075b8:	e7f8      	b.n	80075ac <memcpy+0x4>

080075ba <memset>:
 80075ba:	0003      	movs	r3, r0
 80075bc:	1812      	adds	r2, r2, r0
 80075be:	4293      	cmp	r3, r2
 80075c0:	d100      	bne.n	80075c4 <memset+0xa>
 80075c2:	4770      	bx	lr
 80075c4:	7019      	strb	r1, [r3, #0]
 80075c6:	3301      	adds	r3, #1
 80075c8:	e7f9      	b.n	80075be <memset+0x4>

080075ca <strcpy>:
 80075ca:	0003      	movs	r3, r0
 80075cc:	780a      	ldrb	r2, [r1, #0]
 80075ce:	3101      	adds	r1, #1
 80075d0:	701a      	strb	r2, [r3, #0]
 80075d2:	3301      	adds	r3, #1
 80075d4:	2a00      	cmp	r2, #0
 80075d6:	d1f9      	bne.n	80075cc <strcpy+0x2>
 80075d8:	4770      	bx	lr
	...

080075dc <_init>:
 80075dc:	b5f8      	push	{r3, r4, r5, r6, r7, lr}
 80075de:	46c0      	nop			; (mov r8, r8)
 80075e0:	bcf8      	pop	{r3, r4, r5, r6, r7}
 80075e2:	bc08      	pop	{r3}
 80075e4:	469e      	mov	lr, r3
 80075e6:	4770      	bx	lr

080075e8 <_fini>:
 80075e8:	b5f8      	push	{r3, r4, r5, r6, r7, lr}
 80075ea:	46c0      	nop			; (mov r8, r8)
 80075ec:	bcf8      	pop	{r3, r4, r5, r6, r7}
 80075ee:	bc08      	pop	{r3}
 80075f0:	469e      	mov	lr, r3
 80075f2:	4770      	bx	lr
